<?xml version="1.0"?>
<?xml-stylesheet type="text/xsl" href="pdml2html.xsl"?>
<!-- You can find pdml2html.xsl in /usr/share/wireshark or at http://anonsvn.wireshark.org/trunk/wireshark/pdml2html.xsl. -->
<pdml version="0" creator="wireshark/1.10.14" time="Wed Jul 24 18:55:41 2019" capture_file="ipv4--16.cap">
<packet>
  <proto name="geninfo" pos="0" showname="General information" size="74">
    <field name="num" pos="0" show="1" showname="Number" value="1" size="74"/>
    <field name="len" pos="0" show="74" showname="Frame Length" value="4a" size="74"/>
    <field name="caplen" pos="0" show="74" showname="Captured Length" value="4a" size="74"/>
    <field name="timestamp" pos="0" show="Jun 27, 2019 12:20:58.489350000 CEST" showname="Captured Time" value="1561630858.489350000" size="74"/>
  </proto>
  <proto name="frame" showname="Frame 1: 74 bytes on wire (592 bits), 74 bytes captured (592 bits) on interface 0" size="74" pos="0">
    <field name="frame.interface_id" showname="Interface id: 0" size="0" pos="0" show="0"/>
    <field name="frame.encap_type" showname="Encapsulation type: Ethernet (1)" size="0" pos="0" show="1"/>
    <field name="frame.time" showname="Arrival Time: Jun 27, 2019 12:20:58.489350000 CEST" size="0" pos="0" show="&quot;Jun 27, 2019 12:20:58.489350000 CEST&quot;"/>
    <field name="frame.offset_shift" showname="Time shift for this packet: 0.000000000 seconds" size="0" pos="0" show="0.000000000"/>
    <field name="frame.time_epoch" showname="Epoch Time: 1561630858.489350000 seconds" size="0" pos="0" show="1561630858.489350000"/>
    <field name="frame.time_delta" showname="Time delta from previous captured frame: 0.000000000 seconds" size="0" pos="0" show="0.000000000"/>
    <field name="frame.time_delta_displayed" showname="Time delta from previous displayed frame: 0.000000000 seconds" size="0" pos="0" show="0.000000000"/>
    <field name="frame.time_relative" showname="Time since reference or first frame: 0.000000000 seconds" size="0" pos="0" show="0.000000000"/>
    <field name="frame.number" showname="Frame Number: 1" size="0" pos="0" show="1"/>
    <field name="frame.len" showname="Frame Length: 74 bytes (592 bits)" size="0" pos="0" show="74"/>
    <field name="frame.cap_len" showname="Capture Length: 74 bytes (592 bits)" size="0" pos="0" show="74"/>
    <field name="frame.marked" showname="Frame is marked: False" size="0" pos="0" show="0"/>
    <field name="frame.ignored" showname="Frame is ignored: False" size="0" pos="0" show="0"/>
    <field name="frame.protocols" showname="Protocols in frame: eth:ip:tcp" size="0" pos="0" show="eth:ip:tcp"/>
  </proto>
  <proto name="eth" showname="Ethernet II, Src: 02:42:ac:11:00:02 (02:42:ac:11:00:02), Dst: 02:42:71:12:56:af (02:42:71:12:56:af)" size="14" pos="0">
    <field name="eth.dst" showname="Destination: 02:42:71:12:56:af (02:42:71:12:56:af)" size="6" pos="0" show="02:42:71:12:56:af" value="0242711256af">
      <field name="eth.addr" showname="Address: 02:42:71:12:56:af (02:42:71:12:56:af)" size="6" pos="0" show="02:42:71:12:56:af" value="0242711256af"/>
      <field name="eth.lg" showname=".... ..1. .... .... .... .... = LG bit: Locally administered address (this is NOT the factory default)" size="3" pos="0" show="1" value="1" unmaskedvalue="024271"/>
      <field name="eth.ig" showname=".... ...0 .... .... .... .... = IG bit: Individual address (unicast)" size="3" pos="0" show="0" value="0" unmaskedvalue="024271"/>
    </field>
    <field name="eth.src" showname="Source: 02:42:ac:11:00:02 (02:42:ac:11:00:02)" size="6" pos="6" show="02:42:ac:11:00:02" value="0242ac110002">
      <field name="eth.addr" showname="Address: 02:42:ac:11:00:02 (02:42:ac:11:00:02)" size="6" pos="6" show="02:42:ac:11:00:02" value="0242ac110002"/>
      <field name="eth.lg" showname=".... ..1. .... .... .... .... = LG bit: Locally administered address (this is NOT the factory default)" size="3" pos="6" show="1" value="1" unmaskedvalue="0242ac"/>
      <field name="eth.ig" showname=".... ...0 .... .... .... .... = IG bit: Individual address (unicast)" size="3" pos="6" show="0" value="0" unmaskedvalue="0242ac"/>
    </field>
    <field name="eth.type" showname="Type: IP (0x0800)" size="2" pos="12" show="2048" value="0800"/>
  </proto>
  <proto name="ip" showname="Internet Protocol Version 4, Src: 172.17.0.2 (172.17.0.2), Dst: 1.1.1.1 (1.1.1.1)" size="20" pos="14">
    <field name="ip.version" showname="Version: 4" size="1" pos="14" show="4" value="45"/>
    <field name="ip.hdr_len" showname="Header length: 20 bytes" size="1" pos="14" show="20" value="45"/>
    <field name="ip.dsfield" showname="Differentiated Services Field: 0x00 (DSCP 0x00: Default; ECN: 0x00: Not-ECT (Not ECN-Capable Transport))" size="1" pos="15" show="0" value="00">
      <field name="ip.dsfield.dscp" showname="0000 00.. = Differentiated Services Codepoint: Default (0x00)" size="1" pos="15" show="0" value="0" unmaskedvalue="00"/>
      <field name="ip.dsfield.ecn" showname=".... ..00 = Explicit Congestion Notification: Not-ECT (Not ECN-Capable Transport) (0x00)" size="1" pos="15" show="0" value="0" unmaskedvalue="00"/>
    </field>
    <field name="ip.len" showname="Total Length: 60" size="2" pos="16" show="60" value="003c"/>
    <field name="ip.id" showname="Identification: 0xe77a (59258)" size="2" pos="18" show="59258" value="e77a"/>
    <field name="ip.flags" showname="Flags: 0x02 (Don&apos;t Fragment)" size="1" pos="20" show="2" value="40">
      <field name="ip.flags.rb" showname="0... .... = Reserved bit: Not set" size="1" pos="20" show="0" value="40"/>
      <field name="ip.flags.df" showname=".1.. .... = Don&apos;t fragment: Set" size="1" pos="20" show="1" value="40"/>
      <field name="ip.flags.mf" showname="..0. .... = More fragments: Not set" size="1" pos="20" show="0" value="40"/>
    </field>
    <field name="ip.frag_offset" showname="Fragment offset: 0" size="2" pos="20" show="0" value="4000"/>
    <field name="ip.ttl" showname="Time to live: 64" size="1" pos="22" show="64" value="40"/>
    <field name="ip.proto" showname="Protocol: TCP (6)" size="1" pos="23" show="6" value="06"/>
    <field name="ip.checksum" showname="Header checksum: 0xa52c [validation disabled]" size="2" pos="24" show="42284" value="a52c">
      <field name="ip.checksum_good" showname="Good: False" size="2" pos="24" show="0" value="a52c"/>
      <field name="ip.checksum_bad" showname="Bad: False" size="2" pos="24" show="0" value="a52c"/>
    </field>
    <field name="ip.src" showname="Source: 172.17.0.2 (172.17.0.2)" size="4" pos="26" show="172.17.0.2" value="ac110002"/>
    <field name="ip.addr" showname="Source or Destination Address: 172.17.0.2 (172.17.0.2)" hide="yes" size="4" pos="26" show="172.17.0.2" value="ac110002"/>
    <field name="ip.src_host" showname="Source Host: 172.17.0.2" hide="yes" size="4" pos="26" show="172.17.0.2" value="ac110002"/>
    <field name="ip.host" showname="Source or Destination Host: 172.17.0.2" hide="yes" size="4" pos="26" show="172.17.0.2" value="ac110002"/>
    <field name="ip.dst" showname="Destination: 1.1.1.1 (1.1.1.1)" size="4" pos="30" show="1.1.1.1" value="01010101"/>
    <field name="ip.addr" showname="Source or Destination Address: 1.1.1.1 (1.1.1.1)" hide="yes" size="4" pos="30" show="1.1.1.1" value="01010101"/>
    <field name="ip.dst_host" showname="Destination Host: 1.1.1.1" hide="yes" size="4" pos="30" show="1.1.1.1" value="01010101"/>
    <field name="ip.host" showname="Source or Destination Host: 1.1.1.1" hide="yes" size="4" pos="30" show="1.1.1.1" value="01010101"/>
  </proto>
  <proto name="tcp" showname="Transmission Control Protocol, Src Port: 59682 (59682), Dst Port: 853 (853), Seq: 0, Len: 0" size="40" pos="34">
    <field name="tcp.srcport" showname="Source port: 59682 (59682)" size="2" pos="34" show="59682" value="e922"/>
    <field name="tcp.dstport" showname="Destination port: 853 (853)" size="2" pos="36" show="853" value="0355"/>
    <field name="tcp.port" showname="Source or Destination Port: 59682" hide="yes" size="2" pos="34" show="59682" value="e922"/>
    <field name="tcp.port" showname="Source or Destination Port: 853" hide="yes" size="2" pos="36" show="853" value="0355"/>
    <field name="tcp.stream" showname="Stream index: 0" size="0" pos="34" show="0"/>
    <field name="tcp.len" showname="TCP Segment Len: 0" hide="yes" size="1" pos="46" show="0" value="a0"/>
    <field name="tcp.seq" showname="Sequence number: 0    (relative sequence number)" size="4" pos="38" show="0" value="11b6896a"/>
    <field name="tcp.hdr_len" showname="Header length: 40 bytes" size="1" pos="46" show="40" value="a0"/>
    <field name="tcp.flags" showname="Flags: 0x002 (SYN)" size="2" pos="46" show="2" value="2" unmaskedvalue="a002">
      <field name="tcp.flags.res" showname="000. .... .... = Reserved: Not set" size="1" pos="46" show="0" value="0" unmaskedvalue="a0"/>
      <field name="tcp.flags.ns" showname="...0 .... .... = Nonce: Not set" size="1" pos="46" show="0" value="0" unmaskedvalue="a0"/>
      <field name="tcp.flags.cwr" showname=".... 0... .... = Congestion Window Reduced (CWR): Not set" size="1" pos="47" show="0" value="0" unmaskedvalue="02"/>
      <field name="tcp.flags.ecn" showname=".... .0.. .... = ECN-Echo: Not set" size="1" pos="47" show="0" value="0" unmaskedvalue="02"/>
      <field name="tcp.flags.urg" showname=".... ..0. .... = Urgent: Not set" size="1" pos="47" show="0" value="0" unmaskedvalue="02"/>
      <field name="tcp.flags.ack" showname=".... ...0 .... = Acknowledgment: Not set" size="1" pos="47" show="0" value="0" unmaskedvalue="02"/>
      <field name="tcp.flags.push" showname=".... .... 0... = Push: Not set" size="1" pos="47" show="0" value="0" unmaskedvalue="02"/>
      <field name="tcp.flags.reset" showname=".... .... .0.. = Reset: Not set" size="1" pos="47" show="0" value="0" unmaskedvalue="02"/>
      <field name="tcp.flags.syn" showname=".... .... ..1. = Syn: Set" size="1" pos="47" show="1" value="1" unmaskedvalue="02">
        <field name="expert" showname="Expert Info (Chat/Sequence): Connection establish request (SYN): server port 853" size="0" pos="47">
          <field name="expert.message" showname="Message: Connection establish request (SYN): server port 853" size="0" pos="0" show="Connection establish request (SYN): server port 853"/>
          <field name="expert.severity" showname="Severity level: Chat" size="0" pos="0" show="2097152"/>
          <field name="expert.group" showname="Group: Sequence" size="0" pos="0" show="33554432"/>
        </field>
      </field>
      <field name="tcp.flags.fin" showname=".... .... ...0 = Fin: Not set" size="1" pos="47" show="0" value="0" unmaskedvalue="02"/>
    </field>
    <field name="tcp.window_size_value" showname="Window size value: 29200" size="2" pos="48" show="29200" value="7210"/>
    <field name="tcp.window_size" showname="Calculated window size: 29200" size="2" pos="48" show="29200" value="7210"/>
    <field name="tcp.checksum" showname="Checksum: 0xae43 [validation disabled]" size="2" pos="50" show="44611" value="ae43">
      <field name="tcp.checksum_good" showname="Good Checksum: False" size="2" pos="50" show="0" value="ae43"/>
      <field name="tcp.checksum_bad" showname="Bad Checksum: False" size="2" pos="50" show="0" value="ae43"/>
    </field>
    <field name="tcp.options" showname="Options: (20 bytes), Maximum segment size, SACK permitted, Timestamps, No-Operation (NOP), Window scale" size="20" pos="54" show="02:04:05:b4:04:02:08:0a:9b:12:6e:10:00:00:00:00:01:03:03:07" value="020405b40402080a9b126e100000000001030307">
      <field name="tcp.options.mss" showname="Maximum segment size: 1460 bytes" size="4" pos="54" show="" value="">
        <field name="tcp.option_kind" showname="Kind: MSS size (2)" size="1" pos="54" show="2" value="02"/>
        <field name="tcp.option_len" showname="Length: 4" size="1" pos="55" show="4" value="04"/>
        <field name="tcp.options.mss_val" showname="MSS Value: 1460" size="2" pos="56" show="1460" value="05b4"/>
      </field>
      <field name="tcp.options.sack_perm" showname="TCP SACK Permitted Option: True" size="2" pos="58" show="1" value="0402">
        <field name="tcp.option_kind" showname="Kind: SACK Permission (4)" size="1" pos="58" show="4" value="04"/>
        <field name="tcp.option_len" showname="Length: 2" size="1" pos="59" show="2" value="02"/>
      </field>
      <field name="" show="Timestamps: TSval 2601676304, TSecr 0" size="10" pos="60" value="080a9b126e1000000000">
        <field name="tcp.option_kind" showname="Kind: Timestamp (8)" size="1" pos="60" show="8" value="08"/>
        <field name="tcp.option_len" showname="Length: 10" size="1" pos="61" show="10" value="0a"/>
        <field name="tcp.options.timestamp.tsval" showname="Timestamp value: 2601676304" size="4" pos="62" show="2601676304" value="9b126e10"/>
        <field name="tcp.options.timestamp.tsecr" showname="Timestamp echo reply: 0" size="4" pos="66" show="0" value="00000000"/>
      </field>
      <field name="" show="No-Operation (NOP)" size="1" pos="70" value="01">
        <field name="tcp.options.type" showname="Type: 1" size="1" pos="70" show="1" value="01">
          <field name="tcp.options.type.copy" showname="0... .... = Copy on fragmentation: No" size="1" pos="70" show="0" value="0" unmaskedvalue="01"/>
          <field name="tcp.options.type.class" showname=".00. .... = Class: Control (0)" size="1" pos="70" show="0" value="0" unmaskedvalue="01"/>
          <field name="tcp.options.type.number" showname="...0 0001 = Number: No-Operation (NOP) (1)" size="1" pos="70" show="1" value="1" unmaskedvalue="01"/>
        </field>
      </field>
      <field name="" show="Window scale: 7 (multiply by 128)" size="3" pos="71" value="030307">
        <field name="tcp.option_kind" showname="Kind: Window Scale (3)" size="1" pos="71" show="3" value="03"/>
        <field name="tcp.option_len" showname="Length: 3" size="1" pos="72" show="3" value="03"/>
        <field name="tcp.options.wscale.shift" showname="Shift count: 7" size="1" pos="73" show="7" value="07"/>
        <field name="tcp.options.wscale.multiplier" showname="Multiplier: 128" size="1" pos="73" show="128" value="07"/>
      </field>
    </field>
  </proto>
</packet>


<packet>
  <proto name="geninfo" pos="0" showname="General information" size="66">
    <field name="num" pos="0" show="2" showname="Number" value="2" size="66"/>
    <field name="len" pos="0" show="66" showname="Frame Length" value="42" size="66"/>
    <field name="caplen" pos="0" show="66" showname="Captured Length" value="42" size="66"/>
    <field name="timestamp" pos="0" show="Jun 27, 2019 12:20:58.493044000 CEST" showname="Captured Time" value="1561630858.493044000" size="66"/>
  </proto>
  <proto name="frame" showname="Frame 2: 66 bytes on wire (528 bits), 66 bytes captured (528 bits) on interface 0" size="66" pos="0">
    <field name="frame.interface_id" showname="Interface id: 0" size="0" pos="0" show="0"/>
    <field name="frame.encap_type" showname="Encapsulation type: Ethernet (1)" size="0" pos="0" show="1"/>
    <field name="frame.time" showname="Arrival Time: Jun 27, 2019 12:20:58.493044000 CEST" size="0" pos="0" show="&quot;Jun 27, 2019 12:20:58.493044000 CEST&quot;"/>
    <field name="frame.offset_shift" showname="Time shift for this packet: 0.000000000 seconds" size="0" pos="0" show="0.000000000"/>
    <field name="frame.time_epoch" showname="Epoch Time: 1561630858.493044000 seconds" size="0" pos="0" show="1561630858.493044000"/>
    <field name="frame.time_delta" showname="Time delta from previous captured frame: 0.003694000 seconds" size="0" pos="0" show="0.003694000"/>
    <field name="frame.time_delta_displayed" showname="Time delta from previous displayed frame: 0.003694000 seconds" size="0" pos="0" show="0.003694000"/>
    <field name="frame.time_relative" showname="Time since reference or first frame: 0.003694000 seconds" size="0" pos="0" show="0.003694000"/>
    <field name="frame.number" showname="Frame Number: 2" size="0" pos="0" show="2"/>
    <field name="frame.len" showname="Frame Length: 66 bytes (528 bits)" size="0" pos="0" show="66"/>
    <field name="frame.cap_len" showname="Capture Length: 66 bytes (528 bits)" size="0" pos="0" show="66"/>
    <field name="frame.marked" showname="Frame is marked: False" size="0" pos="0" show="0"/>
    <field name="frame.ignored" showname="Frame is ignored: False" size="0" pos="0" show="0"/>
    <field name="frame.protocols" showname="Protocols in frame: eth:ip:tcp" size="0" pos="0" show="eth:ip:tcp"/>
  </proto>
  <proto name="eth" showname="Ethernet II, Src: 02:42:71:12:56:af (02:42:71:12:56:af), Dst: 02:42:ac:11:00:02 (02:42:ac:11:00:02)" size="14" pos="0">
    <field name="eth.dst" showname="Destination: 02:42:ac:11:00:02 (02:42:ac:11:00:02)" size="6" pos="0" show="02:42:ac:11:00:02" value="0242ac110002">
      <field name="eth.addr" showname="Address: 02:42:ac:11:00:02 (02:42:ac:11:00:02)" size="6" pos="0" show="02:42:ac:11:00:02" value="0242ac110002"/>
      <field name="eth.lg" showname=".... ..1. .... .... .... .... = LG bit: Locally administered address (this is NOT the factory default)" size="3" pos="0" show="1" value="1" unmaskedvalue="0242ac"/>
      <field name="eth.ig" showname=".... ...0 .... .... .... .... = IG bit: Individual address (unicast)" size="3" pos="0" show="0" value="0" unmaskedvalue="0242ac"/>
    </field>
    <field name="eth.src" showname="Source: 02:42:71:12:56:af (02:42:71:12:56:af)" size="6" pos="6" show="02:42:71:12:56:af" value="0242711256af">
      <field name="eth.addr" showname="Address: 02:42:71:12:56:af (02:42:71:12:56:af)" size="6" pos="6" show="02:42:71:12:56:af" value="0242711256af"/>
      <field name="eth.lg" showname=".... ..1. .... .... .... .... = LG bit: Locally administered address (this is NOT the factory default)" size="3" pos="6" show="1" value="1" unmaskedvalue="024271"/>
      <field name="eth.ig" showname=".... ...0 .... .... .... .... = IG bit: Individual address (unicast)" size="3" pos="6" show="0" value="0" unmaskedvalue="024271"/>
    </field>
    <field name="eth.type" showname="Type: IP (0x0800)" size="2" pos="12" show="2048" value="0800"/>
  </proto>
  <proto name="ip" showname="Internet Protocol Version 4, Src: 1.1.1.1 (1.1.1.1), Dst: 172.17.0.2 (172.17.0.2)" size="20" pos="14">
    <field name="ip.version" showname="Version: 4" size="1" pos="14" show="4" value="45"/>
    <field name="ip.hdr_len" showname="Header length: 20 bytes" size="1" pos="14" show="20" value="45"/>
    <field name="ip.dsfield" showname="Differentiated Services Field: 0x00 (DSCP 0x00: Default; ECN: 0x00: Not-ECT (Not ECN-Capable Transport))" size="1" pos="15" show="0" value="00">
      <field name="ip.dsfield.dscp" showname="0000 00.. = Differentiated Services Codepoint: Default (0x00)" size="1" pos="15" show="0" value="0" unmaskedvalue="00"/>
      <field name="ip.dsfield.ecn" showname=".... ..00 = Explicit Congestion Notification: Not-ECT (Not ECN-Capable Transport) (0x00)" size="1" pos="15" show="0" value="0" unmaskedvalue="00"/>
    </field>
    <field name="ip.len" showname="Total Length: 52" size="2" pos="16" show="52" value="0034"/>
    <field name="ip.id" showname="Identification: 0x0000 (0)" size="2" pos="18" show="0" value="0000"/>
    <field name="ip.flags" showname="Flags: 0x02 (Don&apos;t Fragment)" size="1" pos="20" show="2" value="40">
      <field name="ip.flags.rb" showname="0... .... = Reserved bit: Not set" size="1" pos="20" show="0" value="40"/>
      <field name="ip.flags.df" showname=".1.. .... = Don&apos;t fragment: Set" size="1" pos="20" show="1" value="40"/>
      <field name="ip.flags.mf" showname="..0. .... = More fragments: Not set" size="1" pos="20" show="0" value="40"/>
    </field>
    <field name="ip.frag_offset" showname="Fragment offset: 0" size="2" pos="20" show="0" value="4000"/>
    <field name="ip.ttl" showname="Time to live: 57" size="1" pos="22" show="57" value="39"/>
    <field name="ip.proto" showname="Protocol: TCP (6)" size="1" pos="23" show="6" value="06"/>
    <field name="ip.checksum" showname="Header checksum: 0x93af [validation disabled]" size="2" pos="24" show="37807" value="93af">
      <field name="ip.checksum_good" showname="Good: False" size="2" pos="24" show="0" value="93af"/>
      <field name="ip.checksum_bad" showname="Bad: False" size="2" pos="24" show="0" value="93af"/>
    </field>
    <field name="ip.src" showname="Source: 1.1.1.1 (1.1.1.1)" size="4" pos="26" show="1.1.1.1" value="01010101"/>
    <field name="ip.addr" showname="Source or Destination Address: 1.1.1.1 (1.1.1.1)" hide="yes" size="4" pos="26" show="1.1.1.1" value="01010101"/>
    <field name="ip.src_host" showname="Source Host: 1.1.1.1" hide="yes" size="4" pos="26" show="1.1.1.1" value="01010101"/>
    <field name="ip.host" showname="Source or Destination Host: 1.1.1.1" hide="yes" size="4" pos="26" show="1.1.1.1" value="01010101"/>
    <field name="ip.dst" showname="Destination: 172.17.0.2 (172.17.0.2)" size="4" pos="30" show="172.17.0.2" value="ac110002"/>
    <field name="ip.addr" showname="Source or Destination Address: 172.17.0.2 (172.17.0.2)" hide="yes" size="4" pos="30" show="172.17.0.2" value="ac110002"/>
    <field name="ip.dst_host" showname="Destination Host: 172.17.0.2" hide="yes" size="4" pos="30" show="172.17.0.2" value="ac110002"/>
    <field name="ip.host" showname="Source or Destination Host: 172.17.0.2" hide="yes" size="4" pos="30" show="172.17.0.2" value="ac110002"/>
  </proto>
  <proto name="tcp" showname="Transmission Control Protocol, Src Port: 853 (853), Dst Port: 59682 (59682), Seq: 0, Ack: 1, Len: 0" size="32" pos="34">
    <field name="tcp.srcport" showname="Source port: 853 (853)" size="2" pos="34" show="853" value="0355"/>
    <field name="tcp.dstport" showname="Destination port: 59682 (59682)" size="2" pos="36" show="59682" value="e922"/>
    <field name="tcp.port" showname="Source or Destination Port: 853" hide="yes" size="2" pos="34" show="853" value="0355"/>
    <field name="tcp.port" showname="Source or Destination Port: 59682" hide="yes" size="2" pos="36" show="59682" value="e922"/>
    <field name="tcp.stream" showname="Stream index: 0" size="0" pos="34" show="0"/>
    <field name="tcp.len" showname="TCP Segment Len: 0" hide="yes" size="1" pos="46" show="0" value="80"/>
    <field name="tcp.seq" showname="Sequence number: 0    (relative sequence number)" size="4" pos="38" show="0" value="a0d8be69"/>
    <field name="tcp.ack" showname="Acknowledgment number: 1    (relative ack number)" size="4" pos="42" show="1" value="11b6896b"/>
    <field name="tcp.hdr_len" showname="Header length: 32 bytes" size="1" pos="46" show="32" value="80"/>
    <field name="tcp.flags" showname="Flags: 0x012 (SYN, ACK)" size="2" pos="46" show="18" value="12" unmaskedvalue="8012">
      <field name="tcp.flags.res" showname="000. .... .... = Reserved: Not set" size="1" pos="46" show="0" value="0" unmaskedvalue="80"/>
      <field name="tcp.flags.ns" showname="...0 .... .... = Nonce: Not set" size="1" pos="46" show="0" value="0" unmaskedvalue="80"/>
      <field name="tcp.flags.cwr" showname=".... 0... .... = Congestion Window Reduced (CWR): Not set" size="1" pos="47" show="0" value="0" unmaskedvalue="12"/>
      <field name="tcp.flags.ecn" showname=".... .0.. .... = ECN-Echo: Not set" size="1" pos="47" show="0" value="0" unmaskedvalue="12"/>
      <field name="tcp.flags.urg" showname=".... ..0. .... = Urgent: Not set" size="1" pos="47" show="0" value="0" unmaskedvalue="12"/>
      <field name="tcp.flags.ack" showname=".... ...1 .... = Acknowledgment: Set" size="1" pos="47" show="1" value="1" unmaskedvalue="12"/>
      <field name="tcp.flags.push" showname=".... .... 0... = Push: Not set" size="1" pos="47" show="0" value="0" unmaskedvalue="12"/>
      <field name="tcp.flags.reset" showname=".... .... .0.. = Reset: Not set" size="1" pos="47" show="0" value="0" unmaskedvalue="12"/>
      <field name="tcp.flags.syn" showname=".... .... ..1. = Syn: Set" size="1" pos="47" show="1" value="1" unmaskedvalue="12">
        <field name="expert" showname="Expert Info (Chat/Sequence): Connection establish acknowledge (SYN+ACK): server port 853" size="0" pos="47">
          <field name="expert.message" showname="Message: Connection establish acknowledge (SYN+ACK): server port 853" size="0" pos="0" show="Connection establish acknowledge (SYN+ACK): server port 853"/>
          <field name="expert.severity" showname="Severity level: Chat" size="0" pos="0" show="2097152"/>
          <field name="expert.group" showname="Group: Sequence" size="0" pos="0" show="33554432"/>
        </field>
      </field>
      <field name="tcp.flags.fin" showname=".... .... ...0 = Fin: Not set" size="1" pos="47" show="0" value="0" unmaskedvalue="12"/>
    </field>
    <field name="tcp.window_size_value" showname="Window size value: 29200" size="2" pos="48" show="29200" value="7210"/>
    <field name="tcp.window_size" showname="Calculated window size: 29200" size="2" pos="48" show="29200" value="7210"/>
    <field name="tcp.checksum" showname="Checksum: 0x67fd [validation disabled]" size="2" pos="50" show="26621" value="67fd">
      <field name="tcp.checksum_good" showname="Good Checksum: False" size="2" pos="50" show="0" value="67fd"/>
      <field name="tcp.checksum_bad" showname="Bad Checksum: False" size="2" pos="50" show="0" value="67fd"/>
    </field>
    <field name="tcp.options" showname="Options: (12 bytes), Maximum segment size, No-Operation (NOP), No-Operation (NOP), SACK permitted, No-Operation (NOP), Window scale" size="12" pos="54" show="02:04:05:b4:01:01:04:02:01:03:03:0a" value="020405b4010104020103030a">
      <field name="tcp.options.mss" showname="Maximum segment size: 1460 bytes" size="4" pos="54" show="" value="">
        <field name="tcp.option_kind" showname="Kind: MSS size (2)" size="1" pos="54" show="2" value="02"/>
        <field name="tcp.option_len" showname="Length: 4" size="1" pos="55" show="4" value="04"/>
        <field name="tcp.options.mss_val" showname="MSS Value: 1460" size="2" pos="56" show="1460" value="05b4"/>
      </field>
      <field name="" show="No-Operation (NOP)" size="1" pos="58" value="01">
        <field name="tcp.options.type" showname="Type: 1" size="1" pos="58" show="1" value="01">
          <field name="tcp.options.type.copy" showname="0... .... = Copy on fragmentation: No" size="1" pos="58" show="0" value="0" unmaskedvalue="01"/>
          <field name="tcp.options.type.class" showname=".00. .... = Class: Control (0)" size="1" pos="58" show="0" value="0" unmaskedvalue="01"/>
          <field name="tcp.options.type.number" showname="...0 0001 = Number: No-Operation (NOP) (1)" size="1" pos="58" show="1" value="1" unmaskedvalue="01"/>
        </field>
      </field>
      <field name="" show="No-Operation (NOP)" size="1" pos="59" value="01">
        <field name="tcp.options.type" showname="Type: 1" size="1" pos="59" show="1" value="01">
          <field name="tcp.options.type.copy" showname="0... .... = Copy on fragmentation: No" size="1" pos="59" show="0" value="0" unmaskedvalue="01"/>
          <field name="tcp.options.type.class" showname=".00. .... = Class: Control (0)" size="1" pos="59" show="0" value="0" unmaskedvalue="01"/>
          <field name="tcp.options.type.number" showname="...0 0001 = Number: No-Operation (NOP) (1)" size="1" pos="59" show="1" value="1" unmaskedvalue="01"/>
        </field>
      </field>
      <field name="tcp.options.sack_perm" showname="TCP SACK Permitted Option: True" size="2" pos="60" show="1" value="0402">
        <field name="tcp.option_kind" showname="Kind: SACK Permission (4)" size="1" pos="60" show="4" value="04"/>
        <field name="tcp.option_len" showname="Length: 2" size="1" pos="61" show="2" value="02"/>
      </field>
      <field name="" show="No-Operation (NOP)" size="1" pos="62" value="01">
        <field name="tcp.options.type" showname="Type: 1" size="1" pos="62" show="1" value="01">
          <field name="tcp.options.type.copy" showname="0... .... = Copy on fragmentation: No" size="1" pos="62" show="0" value="0" unmaskedvalue="01"/>
          <field name="tcp.options.type.class" showname=".00. .... = Class: Control (0)" size="1" pos="62" show="0" value="0" unmaskedvalue="01"/>
          <field name="tcp.options.type.number" showname="...0 0001 = Number: No-Operation (NOP) (1)" size="1" pos="62" show="1" value="1" unmaskedvalue="01"/>
        </field>
      </field>
      <field name="" show="Window scale: 10 (multiply by 1024)" size="3" pos="63" value="03030a">
        <field name="tcp.option_kind" showname="Kind: Window Scale (3)" size="1" pos="63" show="3" value="03"/>
        <field name="tcp.option_len" showname="Length: 3" size="1" pos="64" show="3" value="03"/>
        <field name="tcp.options.wscale.shift" showname="Shift count: 10" size="1" pos="65" show="10" value="0a"/>
        <field name="tcp.options.wscale.multiplier" showname="Multiplier: 1024" size="1" pos="65" show="1024" value="0a"/>
      </field>
    </field>
    <field name="tcp.analysis" showname="SEQ/ACK analysis" size="0" pos="34" show="" value="">
      <field name="tcp.analysis.acks_frame" showname="This is an ACK to the segment in frame: 1" size="0" pos="34" show="1"/>
      <field name="tcp.analysis.ack_rtt" showname="The RTT to ACK the segment was: 0.003694000 seconds" size="0" pos="34" show="0.003694000"/>
    </field>
  </proto>
</packet>


<packet>
  <proto name="geninfo" pos="0" showname="General information" size="54">
    <field name="num" pos="0" show="3" showname="Number" value="3" size="54"/>
    <field name="len" pos="0" show="54" showname="Frame Length" value="36" size="54"/>
    <field name="caplen" pos="0" show="54" showname="Captured Length" value="36" size="54"/>
    <field name="timestamp" pos="0" show="Jun 27, 2019 12:20:58.493084000 CEST" showname="Captured Time" value="1561630858.493084000" size="54"/>
  </proto>
  <proto name="frame" showname="Frame 3: 54 bytes on wire (432 bits), 54 bytes captured (432 bits) on interface 0" size="54" pos="0">
    <field name="frame.interface_id" showname="Interface id: 0" size="0" pos="0" show="0"/>
    <field name="frame.encap_type" showname="Encapsulation type: Ethernet (1)" size="0" pos="0" show="1"/>
    <field name="frame.time" showname="Arrival Time: Jun 27, 2019 12:20:58.493084000 CEST" size="0" pos="0" show="&quot;Jun 27, 2019 12:20:58.493084000 CEST&quot;"/>
    <field name="frame.offset_shift" showname="Time shift for this packet: 0.000000000 seconds" size="0" pos="0" show="0.000000000"/>
    <field name="frame.time_epoch" showname="Epoch Time: 1561630858.493084000 seconds" size="0" pos="0" show="1561630858.493084000"/>
    <field name="frame.time_delta" showname="Time delta from previous captured frame: 0.000040000 seconds" size="0" pos="0" show="0.000040000"/>
    <field name="frame.time_delta_displayed" showname="Time delta from previous displayed frame: 0.000040000 seconds" size="0" pos="0" show="0.000040000"/>
    <field name="frame.time_relative" showname="Time since reference or first frame: 0.003734000 seconds" size="0" pos="0" show="0.003734000"/>
    <field name="frame.number" showname="Frame Number: 3" size="0" pos="0" show="3"/>
    <field name="frame.len" showname="Frame Length: 54 bytes (432 bits)" size="0" pos="0" show="54"/>
    <field name="frame.cap_len" showname="Capture Length: 54 bytes (432 bits)" size="0" pos="0" show="54"/>
    <field name="frame.marked" showname="Frame is marked: False" size="0" pos="0" show="0"/>
    <field name="frame.ignored" showname="Frame is ignored: False" size="0" pos="0" show="0"/>
    <field name="frame.protocols" showname="Protocols in frame: eth:ip:tcp" size="0" pos="0" show="eth:ip:tcp"/>
  </proto>
  <proto name="eth" showname="Ethernet II, Src: 02:42:ac:11:00:02 (02:42:ac:11:00:02), Dst: 02:42:71:12:56:af (02:42:71:12:56:af)" size="14" pos="0">
    <field name="eth.dst" showname="Destination: 02:42:71:12:56:af (02:42:71:12:56:af)" size="6" pos="0" show="02:42:71:12:56:af" value="0242711256af">
      <field name="eth.addr" showname="Address: 02:42:71:12:56:af (02:42:71:12:56:af)" size="6" pos="0" show="02:42:71:12:56:af" value="0242711256af"/>
      <field name="eth.lg" showname=".... ..1. .... .... .... .... = LG bit: Locally administered address (this is NOT the factory default)" size="3" pos="0" show="1" value="1" unmaskedvalue="024271"/>
      <field name="eth.ig" showname=".... ...0 .... .... .... .... = IG bit: Individual address (unicast)" size="3" pos="0" show="0" value="0" unmaskedvalue="024271"/>
    </field>
    <field name="eth.src" showname="Source: 02:42:ac:11:00:02 (02:42:ac:11:00:02)" size="6" pos="6" show="02:42:ac:11:00:02" value="0242ac110002">
      <field name="eth.addr" showname="Address: 02:42:ac:11:00:02 (02:42:ac:11:00:02)" size="6" pos="6" show="02:42:ac:11:00:02" value="0242ac110002"/>
      <field name="eth.lg" showname=".... ..1. .... .... .... .... = LG bit: Locally administered address (this is NOT the factory default)" size="3" pos="6" show="1" value="1" unmaskedvalue="0242ac"/>
      <field name="eth.ig" showname=".... ...0 .... .... .... .... = IG bit: Individual address (unicast)" size="3" pos="6" show="0" value="0" unmaskedvalue="0242ac"/>
    </field>
    <field name="eth.type" showname="Type: IP (0x0800)" size="2" pos="12" show="2048" value="0800"/>
  </proto>
  <proto name="ip" showname="Internet Protocol Version 4, Src: 172.17.0.2 (172.17.0.2), Dst: 1.1.1.1 (1.1.1.1)" size="20" pos="14">
    <field name="ip.version" showname="Version: 4" size="1" pos="14" show="4" value="45"/>
    <field name="ip.hdr_len" showname="Header length: 20 bytes" size="1" pos="14" show="20" value="45"/>
    <field name="ip.dsfield" showname="Differentiated Services Field: 0x00 (DSCP 0x00: Default; ECN: 0x00: Not-ECT (Not ECN-Capable Transport))" size="1" pos="15" show="0" value="00">
      <field name="ip.dsfield.dscp" showname="0000 00.. = Differentiated Services Codepoint: Default (0x00)" size="1" pos="15" show="0" value="0" unmaskedvalue="00"/>
      <field name="ip.dsfield.ecn" showname=".... ..00 = Explicit Congestion Notification: Not-ECT (Not ECN-Capable Transport) (0x00)" size="1" pos="15" show="0" value="0" unmaskedvalue="00"/>
    </field>
    <field name="ip.len" showname="Total Length: 40" size="2" pos="16" show="40" value="0028"/>
    <field name="ip.id" showname="Identification: 0xe77b (59259)" size="2" pos="18" show="59259" value="e77b"/>
    <field name="ip.flags" showname="Flags: 0x02 (Don&apos;t Fragment)" size="1" pos="20" show="2" value="40">
      <field name="ip.flags.rb" showname="0... .... = Reserved bit: Not set" size="1" pos="20" show="0" value="40"/>
      <field name="ip.flags.df" showname=".1.. .... = Don&apos;t fragment: Set" size="1" pos="20" show="1" value="40"/>
      <field name="ip.flags.mf" showname="..0. .... = More fragments: Not set" size="1" pos="20" show="0" value="40"/>
    </field>
    <field name="ip.frag_offset" showname="Fragment offset: 0" size="2" pos="20" show="0" value="4000"/>
    <field name="ip.ttl" showname="Time to live: 64" size="1" pos="22" show="64" value="40"/>
    <field name="ip.proto" showname="Protocol: TCP (6)" size="1" pos="23" show="6" value="06"/>
    <field name="ip.checksum" showname="Header checksum: 0xa53f [validation disabled]" size="2" pos="24" show="42303" value="a53f">
      <field name="ip.checksum_good" showname="Good: False" size="2" pos="24" show="0" value="a53f"/>
      <field name="ip.checksum_bad" showname="Bad: False" size="2" pos="24" show="0" value="a53f"/>
    </field>
    <field name="ip.src" showname="Source: 172.17.0.2 (172.17.0.2)" size="4" pos="26" show="172.17.0.2" value="ac110002"/>
    <field name="ip.addr" showname="Source or Destination Address: 172.17.0.2 (172.17.0.2)" hide="yes" size="4" pos="26" show="172.17.0.2" value="ac110002"/>
    <field name="ip.src_host" showname="Source Host: 172.17.0.2" hide="yes" size="4" pos="26" show="172.17.0.2" value="ac110002"/>
    <field name="ip.host" showname="Source or Destination Host: 172.17.0.2" hide="yes" size="4" pos="26" show="172.17.0.2" value="ac110002"/>
    <field name="ip.dst" showname="Destination: 1.1.1.1 (1.1.1.1)" size="4" pos="30" show="1.1.1.1" value="01010101"/>
    <field name="ip.addr" showname="Source or Destination Address: 1.1.1.1 (1.1.1.1)" hide="yes" size="4" pos="30" show="1.1.1.1" value="01010101"/>
    <field name="ip.dst_host" showname="Destination Host: 1.1.1.1" hide="yes" size="4" pos="30" show="1.1.1.1" value="01010101"/>
    <field name="ip.host" showname="Source or Destination Host: 1.1.1.1" hide="yes" size="4" pos="30" show="1.1.1.1" value="01010101"/>
  </proto>
  <proto name="tcp" showname="Transmission Control Protocol, Src Port: 59682 (59682), Dst Port: 853 (853), Seq: 1, Ack: 1, Len: 0" size="20" pos="34">
    <field name="tcp.srcport" showname="Source port: 59682 (59682)" size="2" pos="34" show="59682" value="e922"/>
    <field name="tcp.dstport" showname="Destination port: 853 (853)" size="2" pos="36" show="853" value="0355"/>
    <field name="tcp.port" showname="Source or Destination Port: 59682" hide="yes" size="2" pos="34" show="59682" value="e922"/>
    <field name="tcp.port" showname="Source or Destination Port: 853" hide="yes" size="2" pos="36" show="853" value="0355"/>
    <field name="tcp.stream" showname="Stream index: 0" size="0" pos="34" show="0"/>
    <field name="tcp.len" showname="TCP Segment Len: 0" hide="yes" size="1" pos="46" show="0" value="50"/>
    <field name="tcp.seq" showname="Sequence number: 1    (relative sequence number)" size="4" pos="38" show="1" value="11b6896b"/>
    <field name="tcp.ack" showname="Acknowledgment number: 1    (relative ack number)" size="4" pos="42" show="1" value="a0d8be6a"/>
    <field name="tcp.hdr_len" showname="Header length: 20 bytes" size="1" pos="46" show="20" value="50"/>
    <field name="tcp.flags" showname="Flags: 0x010 (ACK)" size="2" pos="46" show="16" value="10" unmaskedvalue="5010">
      <field name="tcp.flags.res" showname="000. .... .... = Reserved: Not set" size="1" pos="46" show="0" value="0" unmaskedvalue="50"/>
      <field name="tcp.flags.ns" showname="...0 .... .... = Nonce: Not set" size="1" pos="46" show="0" value="0" unmaskedvalue="50"/>
      <field name="tcp.flags.cwr" showname=".... 0... .... = Congestion Window Reduced (CWR): Not set" size="1" pos="47" show="0" value="0" unmaskedvalue="10"/>
      <field name="tcp.flags.ecn" showname=".... .0.. .... = ECN-Echo: Not set" size="1" pos="47" show="0" value="0" unmaskedvalue="10"/>
      <field name="tcp.flags.urg" showname=".... ..0. .... = Urgent: Not set" size="1" pos="47" show="0" value="0" unmaskedvalue="10"/>
      <field name="tcp.flags.ack" showname=".... ...1 .... = Acknowledgment: Set" size="1" pos="47" show="1" value="1" unmaskedvalue="10"/>
      <field name="tcp.flags.push" showname=".... .... 0... = Push: Not set" size="1" pos="47" show="0" value="0" unmaskedvalue="10"/>
      <field name="tcp.flags.reset" showname=".... .... .0.. = Reset: Not set" size="1" pos="47" show="0" value="0" unmaskedvalue="10"/>
      <field name="tcp.flags.syn" showname=".... .... ..0. = Syn: Not set" size="1" pos="47" show="0" value="0" unmaskedvalue="10"/>
      <field name="tcp.flags.fin" showname=".... .... ...0 = Fin: Not set" size="1" pos="47" show="0" value="0" unmaskedvalue="10"/>
    </field>
    <field name="tcp.window_size_value" showname="Window size value: 229" size="2" pos="48" show="229" value="00e5"/>
    <field name="tcp.window_size" showname="Calculated window size: 29312" size="2" pos="48" show="29312" value="00e5"/>
    <field name="tcp.window_size_scalefactor" showname="Window size scaling factor: 128" size="2" pos="48" show="128" value="00e5"/>
    <field name="tcp.checksum" showname="Checksum: 0xae2f [validation disabled]" size="2" pos="50" show="44591" value="ae2f">
      <field name="tcp.checksum_good" showname="Good Checksum: False" size="2" pos="50" show="0" value="ae2f"/>
      <field name="tcp.checksum_bad" showname="Bad Checksum: False" size="2" pos="50" show="0" value="ae2f"/>
    </field>
    <field name="tcp.analysis" showname="SEQ/ACK analysis" size="0" pos="34" show="" value="">
      <field name="tcp.analysis.acks_frame" showname="This is an ACK to the segment in frame: 2" size="0" pos="34" show="2"/>
      <field name="tcp.analysis.ack_rtt" showname="The RTT to ACK the segment was: 0.000040000 seconds" size="0" pos="34" show="0.000040000"/>
    </field>
  </proto>
</packet>


<packet>
  <proto name="geninfo" pos="0" showname="General information" size="391">
    <field name="num" pos="0" show="4" showname="Number" value="4" size="391"/>
    <field name="len" pos="0" show="391" showname="Frame Length" value="187" size="391"/>
    <field name="caplen" pos="0" show="391" showname="Captured Length" value="187" size="391"/>
    <field name="timestamp" pos="0" show="Jun 27, 2019 12:20:58.493935000 CEST" showname="Captured Time" value="1561630858.493935000" size="391"/>
  </proto>
  <proto name="frame" showname="Frame 4: 391 bytes on wire (3128 bits), 391 bytes captured (3128 bits) on interface 0" size="391" pos="0">
    <field name="frame.interface_id" showname="Interface id: 0" size="0" pos="0" show="0"/>
    <field name="frame.encap_type" showname="Encapsulation type: Ethernet (1)" size="0" pos="0" show="1"/>
    <field name="frame.time" showname="Arrival Time: Jun 27, 2019 12:20:58.493935000 CEST" size="0" pos="0" show="&quot;Jun 27, 2019 12:20:58.493935000 CEST&quot;"/>
    <field name="frame.offset_shift" showname="Time shift for this packet: 0.000000000 seconds" size="0" pos="0" show="0.000000000"/>
    <field name="frame.time_epoch" showname="Epoch Time: 1561630858.493935000 seconds" size="0" pos="0" show="1561630858.493935000"/>
    <field name="frame.time_delta" showname="Time delta from previous captured frame: 0.000851000 seconds" size="0" pos="0" show="0.000851000"/>
    <field name="frame.time_delta_displayed" showname="Time delta from previous displayed frame: 0.000851000 seconds" size="0" pos="0" show="0.000851000"/>
    <field name="frame.time_relative" showname="Time since reference or first frame: 0.004585000 seconds" size="0" pos="0" show="0.004585000"/>
    <field name="frame.number" showname="Frame Number: 4" size="0" pos="0" show="4"/>
    <field name="frame.len" showname="Frame Length: 391 bytes (3128 bits)" size="0" pos="0" show="391"/>
    <field name="frame.cap_len" showname="Capture Length: 391 bytes (3128 bits)" size="0" pos="0" show="391"/>
    <field name="frame.marked" showname="Frame is marked: False" size="0" pos="0" show="0"/>
    <field name="frame.ignored" showname="Frame is ignored: False" size="0" pos="0" show="0"/>
    <field name="frame.protocols" showname="Protocols in frame: eth:ip:tcp:data" size="0" pos="0" show="eth:ip:tcp:data"/>
  </proto>
  <proto name="eth" showname="Ethernet II, Src: 02:42:ac:11:00:02 (02:42:ac:11:00:02), Dst: 02:42:71:12:56:af (02:42:71:12:56:af)" size="14" pos="0">
    <field name="eth.dst" showname="Destination: 02:42:71:12:56:af (02:42:71:12:56:af)" size="6" pos="0" show="02:42:71:12:56:af" value="0242711256af">
      <field name="eth.addr" showname="Address: 02:42:71:12:56:af (02:42:71:12:56:af)" size="6" pos="0" show="02:42:71:12:56:af" value="0242711256af"/>
      <field name="eth.lg" showname=".... ..1. .... .... .... .... = LG bit: Locally administered address (this is NOT the factory default)" size="3" pos="0" show="1" value="1" unmaskedvalue="024271"/>
      <field name="eth.ig" showname=".... ...0 .... .... .... .... = IG bit: Individual address (unicast)" size="3" pos="0" show="0" value="0" unmaskedvalue="024271"/>
    </field>
    <field name="eth.src" showname="Source: 02:42:ac:11:00:02 (02:42:ac:11:00:02)" size="6" pos="6" show="02:42:ac:11:00:02" value="0242ac110002">
      <field name="eth.addr" showname="Address: 02:42:ac:11:00:02 (02:42:ac:11:00:02)" size="6" pos="6" show="02:42:ac:11:00:02" value="0242ac110002"/>
      <field name="eth.lg" showname=".... ..1. .... .... .... .... = LG bit: Locally administered address (this is NOT the factory default)" size="3" pos="6" show="1" value="1" unmaskedvalue="0242ac"/>
      <field name="eth.ig" showname=".... ...0 .... .... .... .... = IG bit: Individual address (unicast)" size="3" pos="6" show="0" value="0" unmaskedvalue="0242ac"/>
    </field>
    <field name="eth.type" showname="Type: IP (0x0800)" size="2" pos="12" show="2048" value="0800"/>
  </proto>
  <proto name="ip" showname="Internet Protocol Version 4, Src: 172.17.0.2 (172.17.0.2), Dst: 1.1.1.1 (1.1.1.1)" size="20" pos="14">
    <field name="ip.version" showname="Version: 4" size="1" pos="14" show="4" value="45"/>
    <field name="ip.hdr_len" showname="Header length: 20 bytes" size="1" pos="14" show="20" value="45"/>
    <field name="ip.dsfield" showname="Differentiated Services Field: 0x00 (DSCP 0x00: Default; ECN: 0x00: Not-ECT (Not ECN-Capable Transport))" size="1" pos="15" show="0" value="00">
      <field name="ip.dsfield.dscp" showname="0000 00.. = Differentiated Services Codepoint: Default (0x00)" size="1" pos="15" show="0" value="0" unmaskedvalue="00"/>
      <field name="ip.dsfield.ecn" showname=".... ..00 = Explicit Congestion Notification: Not-ECT (Not ECN-Capable Transport) (0x00)" size="1" pos="15" show="0" value="0" unmaskedvalue="00"/>
    </field>
    <field name="ip.len" showname="Total Length: 377" size="2" pos="16" show="377" value="0179"/>
    <field name="ip.id" showname="Identification: 0xe77c (59260)" size="2" pos="18" show="59260" value="e77c"/>
    <field name="ip.flags" showname="Flags: 0x02 (Don&apos;t Fragment)" size="1" pos="20" show="2" value="40">
      <field name="ip.flags.rb" showname="0... .... = Reserved bit: Not set" size="1" pos="20" show="0" value="40"/>
      <field name="ip.flags.df" showname=".1.. .... = Don&apos;t fragment: Set" size="1" pos="20" show="1" value="40"/>
      <field name="ip.flags.mf" showname="..0. .... = More fragments: Not set" size="1" pos="20" show="0" value="40"/>
    </field>
    <field name="ip.frag_offset" showname="Fragment offset: 0" size="2" pos="20" show="0" value="4000"/>
    <field name="ip.ttl" showname="Time to live: 64" size="1" pos="22" show="64" value="40"/>
    <field name="ip.proto" showname="Protocol: TCP (6)" size="1" pos="23" show="6" value="06"/>
    <field name="ip.checksum" showname="Header checksum: 0xa3ed [validation disabled]" size="2" pos="24" show="41965" value="a3ed">
      <field name="ip.checksum_good" showname="Good: False" size="2" pos="24" show="0" value="a3ed"/>
      <field name="ip.checksum_bad" showname="Bad: False" size="2" pos="24" show="0" value="a3ed"/>
    </field>
    <field name="ip.src" showname="Source: 172.17.0.2 (172.17.0.2)" size="4" pos="26" show="172.17.0.2" value="ac110002"/>
    <field name="ip.addr" showname="Source or Destination Address: 172.17.0.2 (172.17.0.2)" hide="yes" size="4" pos="26" show="172.17.0.2" value="ac110002"/>
    <field name="ip.src_host" showname="Source Host: 172.17.0.2" hide="yes" size="4" pos="26" show="172.17.0.2" value="ac110002"/>
    <field name="ip.host" showname="Source or Destination Host: 172.17.0.2" hide="yes" size="4" pos="26" show="172.17.0.2" value="ac110002"/>
    <field name="ip.dst" showname="Destination: 1.1.1.1 (1.1.1.1)" size="4" pos="30" show="1.1.1.1" value="01010101"/>
    <field name="ip.addr" showname="Source or Destination Address: 1.1.1.1 (1.1.1.1)" hide="yes" size="4" pos="30" show="1.1.1.1" value="01010101"/>
    <field name="ip.dst_host" showname="Destination Host: 1.1.1.1" hide="yes" size="4" pos="30" show="1.1.1.1" value="01010101"/>
    <field name="ip.host" showname="Source or Destination Host: 1.1.1.1" hide="yes" size="4" pos="30" show="1.1.1.1" value="01010101"/>
  </proto>
  <proto name="tcp" showname="Transmission Control Protocol, Src Port: 59682 (59682), Dst Port: 853 (853), Seq: 1, Ack: 1, Len: 337" size="20" pos="34">
    <field name="tcp.srcport" showname="Source port: 59682 (59682)" size="2" pos="34" show="59682" value="e922"/>
    <field name="tcp.dstport" showname="Destination port: 853 (853)" size="2" pos="36" show="853" value="0355"/>
    <field name="tcp.port" showname="Source or Destination Port: 59682" hide="yes" size="2" pos="34" show="59682" value="e922"/>
    <field name="tcp.port" showname="Source or Destination Port: 853" hide="yes" size="2" pos="36" show="853" value="0355"/>
    <field name="tcp.stream" showname="Stream index: 0" size="0" pos="34" show="0"/>
    <field name="tcp.len" showname="TCP Segment Len: 337" hide="yes" size="1" pos="46" show="337" value="50"/>
    <field name="tcp.seq" showname="Sequence number: 1    (relative sequence number)" size="4" pos="38" show="1" value="11b6896b"/>
    <field name="tcp.nxtseq" showname="Next sequence number: 338    (relative sequence number)" size="0" pos="34" show="338"/>
    <field name="tcp.ack" showname="Acknowledgment number: 1    (relative ack number)" size="4" pos="42" show="1" value="a0d8be6a"/>
    <field name="tcp.hdr_len" showname="Header length: 20 bytes" size="1" pos="46" show="20" value="50"/>
    <field name="tcp.flags" showname="Flags: 0x018 (PSH, ACK)" size="2" pos="46" show="24" value="18" unmaskedvalue="5018">
      <field name="tcp.flags.res" showname="000. .... .... = Reserved: Not set" size="1" pos="46" show="0" value="0" unmaskedvalue="50"/>
      <field name="tcp.flags.ns" showname="...0 .... .... = Nonce: Not set" size="1" pos="46" show="0" value="0" unmaskedvalue="50"/>
      <field name="tcp.flags.cwr" showname=".... 0... .... = Congestion Window Reduced (CWR): Not set" size="1" pos="47" show="0" value="0" unmaskedvalue="18"/>
      <field name="tcp.flags.ecn" showname=".... .0.. .... = ECN-Echo: Not set" size="1" pos="47" show="0" value="0" unmaskedvalue="18"/>
      <field name="tcp.flags.urg" showname=".... ..0. .... = Urgent: Not set" size="1" pos="47" show="0" value="0" unmaskedvalue="18"/>
      <field name="tcp.flags.ack" showname=".... ...1 .... = Acknowledgment: Set" size="1" pos="47" show="1" value="1" unmaskedvalue="18"/>
      <field name="tcp.flags.push" showname=".... .... 1... = Push: Set" size="1" pos="47" show="1" value="1" unmaskedvalue="18"/>
      <field name="tcp.flags.reset" showname=".... .... .0.. = Reset: Not set" size="1" pos="47" show="0" value="0" unmaskedvalue="18"/>
      <field name="tcp.flags.syn" showname=".... .... ..0. = Syn: Not set" size="1" pos="47" show="0" value="0" unmaskedvalue="18"/>
      <field name="tcp.flags.fin" showname=".... .... ...0 = Fin: Not set" size="1" pos="47" show="0" value="0" unmaskedvalue="18"/>
    </field>
    <field name="tcp.window_size_value" showname="Window size value: 229" size="2" pos="48" show="229" value="00e5"/>
    <field name="tcp.window_size" showname="Calculated window size: 29312" size="2" pos="48" show="29312" value="00e5"/>
    <field name="tcp.window_size_scalefactor" showname="Window size scaling factor: 128" size="2" pos="48" show="128" value="00e5"/>
    <field name="tcp.checksum" showname="Checksum: 0xaf80 [validation disabled]" size="2" pos="50" show="44928" value="af80">
      <field name="tcp.checksum_good" showname="Good Checksum: False" size="2" pos="50" show="0" value="af80"/>
      <field name="tcp.checksum_bad" showname="Bad Checksum: False" size="2" pos="50" show="0" value="af80"/>
    </field>
    <field name="tcp.analysis" showname="SEQ/ACK analysis" size="0" pos="34" show="" value="">
      <field name="tcp.analysis.bytes_in_flight" showname="Bytes in flight: 337" size="0" pos="34" show="337"/>
    </field>
  </proto>
  <proto name="fake-field-wrapper">
    <field name="data" value="160301014c010001480303c59ec3272ae72caf60727969a87399348ad93b7a8d9c2e237b28e487779c353900003a1302130313011304c02ccca9c0adc00ac02bc0acc009c030cca8c014c02fc013009dc09d0035009cc09c002f009fccaac09f0039009ec09e0033010000e5000500050100000000000a00140012001700180019001d01000101010201030104000b00020100000d0020001e040108090804040308070501080a080505030601080b08060603020102030016000000170000002300000033006b00690017004104b0d52af388e135755d1a45abb387e8c916402d2c12da84df3cde7e78b43e25564ca3091766a43e4c789054fa791f944b19e84b570142052db5098819e57d910c001d00209b7f6149fa45ac540ef8be94c60aad9f91306600051b5cfabe02437558360900002b0009080304030303020301ff01000100002d0003020100001c00024001">
      <field name="data.data" showname="Data: 160301014c010001480303c59ec3272ae72caf60727969a8..." size="337" pos="54" show="16:03:01:01:4c:01:00:01:48:03:03:c5:9e:c3:27:2a:e7:2c:af:60:72:79:69:a8:73:99:34:8a:d9:3b:7a:8d:9c:2e:23:7b:28:e4:87:77:9c:35:39:00:00:3a:13:02:13:03:13:01:13:04:c0:2c:cc:a9:c0:ad:c0:0a:c0:2b:c0:ac:c0:09:c0:30:cc:a8:c0:14:c0:2f:c0:13:00:9d:c0:9d:00:35:00:9c:c0:9c:00:2f:00:9f:cc:aa:c0:9f:00:39:00:9e:c0:9e:00:33:01:00:00:e5:00:05:00:05:01:00:00:00:00:00:0a:00:14:00:12:00:17:00:18:00:19:00:1d:01:00:01:01:01:02:01:03:01:04:00:0b:00:02:01:00:00:0d:00:20:00:1e:04:01:08:09:08:04:04:03:08:07:05:01:08:0a:08:05:05:03:06:01:08:0b:08:06:06:03:02:01:02:03:00:16:00:00:00:17:00:00:00:23:00:00:00:33:00:6b:00:69:00:17:00:41:04:b0:d5:2a:f3:88:e1:35:75:5d:1a:45:ab:b3:87:e8:c9:16:40:2d:2c:12:da:84:df:3c:de:7e:78:b4:3e:25:56:4c:a3:09:17:66:a4:3e:4c:78:90:54:fa:79:1f:94:4b:19:e8:4b:57:01:42:05:2d:b5:09:88:19:e5:7d:91:0c:00:1d:00:20:9b:7f:61:49:fa:45:ac:54:0e:f8:be:94:c6:0a:ad:9f:91:30:66:00:05:1b:5c:fa:be:02:43:75:58:36:09:00:00:2b:00:09:08:03:04:03:03:03:02:03:01:ff:01:00:01:00:00:2d:00:03:02:01:00:00:1c:00:02:40:01" value="160301014c010001480303c59ec3272ae72caf60727969a87399348ad93b7a8d9c2e237b28e487779c353900003a1302130313011304c02ccca9c0adc00ac02bc0acc009c030cca8c014c02fc013009dc09d0035009cc09c002f009fccaac09f0039009ec09e0033010000e5000500050100000000000a00140012001700180019001d01000101010201030104000b00020100000d0020001e040108090804040308070501080a080505030601080b08060603020102030016000000170000002300000033006b00690017004104b0d52af388e135755d1a45abb387e8c916402d2c12da84df3cde7e78b43e25564ca3091766a43e4c789054fa791f944b19e84b570142052db5098819e57d910c001d00209b7f6149fa45ac540ef8be94c60aad9f91306600051b5cfabe02437558360900002b0009080304030303020301ff01000100002d0003020100001c00024001"/>
      <field name="data.len" showname="Length: 337" size="0" pos="54" show="337"/>
  </field>
</proto>
</packet>


<packet>
  <proto name="geninfo" pos="0" showname="General information" size="54">
    <field name="num" pos="0" show="5" showname="Number" value="5" size="54"/>
    <field name="len" pos="0" show="54" showname="Frame Length" value="36" size="54"/>
    <field name="caplen" pos="0" show="54" showname="Captured Length" value="36" size="54"/>
    <field name="timestamp" pos="0" show="Jun 27, 2019 12:20:58.497525000 CEST" showname="Captured Time" value="1561630858.497525000" size="54"/>
  </proto>
  <proto name="frame" showname="Frame 5: 54 bytes on wire (432 bits), 54 bytes captured (432 bits) on interface 0" size="54" pos="0">
    <field name="frame.interface_id" showname="Interface id: 0" size="0" pos="0" show="0"/>
    <field name="frame.encap_type" showname="Encapsulation type: Ethernet (1)" size="0" pos="0" show="1"/>
    <field name="frame.time" showname="Arrival Time: Jun 27, 2019 12:20:58.497525000 CEST" size="0" pos="0" show="&quot;Jun 27, 2019 12:20:58.497525000 CEST&quot;"/>
    <field name="frame.offset_shift" showname="Time shift for this packet: 0.000000000 seconds" size="0" pos="0" show="0.000000000"/>
    <field name="frame.time_epoch" showname="Epoch Time: 1561630858.497525000 seconds" size="0" pos="0" show="1561630858.497525000"/>
    <field name="frame.time_delta" showname="Time delta from previous captured frame: 0.003590000 seconds" size="0" pos="0" show="0.003590000"/>
    <field name="frame.time_delta_displayed" showname="Time delta from previous displayed frame: 0.003590000 seconds" size="0" pos="0" show="0.003590000"/>
    <field name="frame.time_relative" showname="Time since reference or first frame: 0.008175000 seconds" size="0" pos="0" show="0.008175000"/>
    <field name="frame.number" showname="Frame Number: 5" size="0" pos="0" show="5"/>
    <field name="frame.len" showname="Frame Length: 54 bytes (432 bits)" size="0" pos="0" show="54"/>
    <field name="frame.cap_len" showname="Capture Length: 54 bytes (432 bits)" size="0" pos="0" show="54"/>
    <field name="frame.marked" showname="Frame is marked: False" size="0" pos="0" show="0"/>
    <field name="frame.ignored" showname="Frame is ignored: False" size="0" pos="0" show="0"/>
    <field name="frame.protocols" showname="Protocols in frame: eth:ip:tcp" size="0" pos="0" show="eth:ip:tcp"/>
  </proto>
  <proto name="eth" showname="Ethernet II, Src: 02:42:71:12:56:af (02:42:71:12:56:af), Dst: 02:42:ac:11:00:02 (02:42:ac:11:00:02)" size="14" pos="0">
    <field name="eth.dst" showname="Destination: 02:42:ac:11:00:02 (02:42:ac:11:00:02)" size="6" pos="0" show="02:42:ac:11:00:02" value="0242ac110002">
      <field name="eth.addr" showname="Address: 02:42:ac:11:00:02 (02:42:ac:11:00:02)" size="6" pos="0" show="02:42:ac:11:00:02" value="0242ac110002"/>
      <field name="eth.lg" showname=".... ..1. .... .... .... .... = LG bit: Locally administered address (this is NOT the factory default)" size="3" pos="0" show="1" value="1" unmaskedvalue="0242ac"/>
      <field name="eth.ig" showname=".... ...0 .... .... .... .... = IG bit: Individual address (unicast)" size="3" pos="0" show="0" value="0" unmaskedvalue="0242ac"/>
    </field>
    <field name="eth.src" showname="Source: 02:42:71:12:56:af (02:42:71:12:56:af)" size="6" pos="6" show="02:42:71:12:56:af" value="0242711256af">
      <field name="eth.addr" showname="Address: 02:42:71:12:56:af (02:42:71:12:56:af)" size="6" pos="6" show="02:42:71:12:56:af" value="0242711256af"/>
      <field name="eth.lg" showname=".... ..1. .... .... .... .... = LG bit: Locally administered address (this is NOT the factory default)" size="3" pos="6" show="1" value="1" unmaskedvalue="024271"/>
      <field name="eth.ig" showname=".... ...0 .... .... .... .... = IG bit: Individual address (unicast)" size="3" pos="6" show="0" value="0" unmaskedvalue="024271"/>
    </field>
    <field name="eth.type" showname="Type: IP (0x0800)" size="2" pos="12" show="2048" value="0800"/>
  </proto>
  <proto name="ip" showname="Internet Protocol Version 4, Src: 1.1.1.1 (1.1.1.1), Dst: 172.17.0.2 (172.17.0.2)" size="20" pos="14">
    <field name="ip.version" showname="Version: 4" size="1" pos="14" show="4" value="45"/>
    <field name="ip.hdr_len" showname="Header length: 20 bytes" size="1" pos="14" show="20" value="45"/>
    <field name="ip.dsfield" showname="Differentiated Services Field: 0x00 (DSCP 0x00: Default; ECN: 0x00: Not-ECT (Not ECN-Capable Transport))" size="1" pos="15" show="0" value="00">
      <field name="ip.dsfield.dscp" showname="0000 00.. = Differentiated Services Codepoint: Default (0x00)" size="1" pos="15" show="0" value="0" unmaskedvalue="00"/>
      <field name="ip.dsfield.ecn" showname=".... ..00 = Explicit Congestion Notification: Not-ECT (Not ECN-Capable Transport) (0x00)" size="1" pos="15" show="0" value="0" unmaskedvalue="00"/>
    </field>
    <field name="ip.len" showname="Total Length: 40" size="2" pos="16" show="40" value="0028"/>
    <field name="ip.id" showname="Identification: 0x6db8 (28088)" size="2" pos="18" show="28088" value="6db8"/>
    <field name="ip.flags" showname="Flags: 0x02 (Don&apos;t Fragment)" size="1" pos="20" show="2" value="40">
      <field name="ip.flags.rb" showname="0... .... = Reserved bit: Not set" size="1" pos="20" show="0" value="40"/>
      <field name="ip.flags.df" showname=".1.. .... = Don&apos;t fragment: Set" size="1" pos="20" show="1" value="40"/>
      <field name="ip.flags.mf" showname="..0. .... = More fragments: Not set" size="1" pos="20" show="0" value="40"/>
    </field>
    <field name="ip.frag_offset" showname="Fragment offset: 0" size="2" pos="20" show="0" value="4000"/>
    <field name="ip.ttl" showname="Time to live: 57" size="1" pos="22" show="57" value="39"/>
    <field name="ip.proto" showname="Protocol: TCP (6)" size="1" pos="23" show="6" value="06"/>
    <field name="ip.checksum" showname="Header checksum: 0x2603 [validation disabled]" size="2" pos="24" show="9731" value="2603">
      <field name="ip.checksum_good" showname="Good: False" size="2" pos="24" show="0" value="2603"/>
      <field name="ip.checksum_bad" showname="Bad: False" size="2" pos="24" show="0" value="2603"/>
    </field>
    <field name="ip.src" showname="Source: 1.1.1.1 (1.1.1.1)" size="4" pos="26" show="1.1.1.1" value="01010101"/>
    <field name="ip.addr" showname="Source or Destination Address: 1.1.1.1 (1.1.1.1)" hide="yes" size="4" pos="26" show="1.1.1.1" value="01010101"/>
    <field name="ip.src_host" showname="Source Host: 1.1.1.1" hide="yes" size="4" pos="26" show="1.1.1.1" value="01010101"/>
    <field name="ip.host" showname="Source or Destination Host: 1.1.1.1" hide="yes" size="4" pos="26" show="1.1.1.1" value="01010101"/>
    <field name="ip.dst" showname="Destination: 172.17.0.2 (172.17.0.2)" size="4" pos="30" show="172.17.0.2" value="ac110002"/>
    <field name="ip.addr" showname="Source or Destination Address: 172.17.0.2 (172.17.0.2)" hide="yes" size="4" pos="30" show="172.17.0.2" value="ac110002"/>
    <field name="ip.dst_host" showname="Destination Host: 172.17.0.2" hide="yes" size="4" pos="30" show="172.17.0.2" value="ac110002"/>
    <field name="ip.host" showname="Source or Destination Host: 172.17.0.2" hide="yes" size="4" pos="30" show="172.17.0.2" value="ac110002"/>
  </proto>
  <proto name="tcp" showname="Transmission Control Protocol, Src Port: 853 (853), Dst Port: 59682 (59682), Seq: 1, Ack: 338, Len: 0" size="20" pos="34">
    <field name="tcp.srcport" showname="Source port: 853 (853)" size="2" pos="34" show="853" value="0355"/>
    <field name="tcp.dstport" showname="Destination port: 59682 (59682)" size="2" pos="36" show="59682" value="e922"/>
    <field name="tcp.port" showname="Source or Destination Port: 853" hide="yes" size="2" pos="34" show="853" value="0355"/>
    <field name="tcp.port" showname="Source or Destination Port: 59682" hide="yes" size="2" pos="36" show="59682" value="e922"/>
    <field name="tcp.stream" showname="Stream index: 0" size="0" pos="34" show="0"/>
    <field name="tcp.len" showname="TCP Segment Len: 0" hide="yes" size="1" pos="46" show="0" value="50"/>
    <field name="tcp.seq" showname="Sequence number: 1    (relative sequence number)" size="4" pos="38" show="1" value="a0d8be6a"/>
    <field name="tcp.ack" showname="Acknowledgment number: 338    (relative ack number)" size="4" pos="42" show="338" value="11b68abc"/>
    <field name="tcp.hdr_len" showname="Header length: 20 bytes" size="1" pos="46" show="20" value="50"/>
    <field name="tcp.flags" showname="Flags: 0x010 (ACK)" size="2" pos="46" show="16" value="10" unmaskedvalue="5010">
      <field name="tcp.flags.res" showname="000. .... .... = Reserved: Not set" size="1" pos="46" show="0" value="0" unmaskedvalue="50"/>
      <field name="tcp.flags.ns" showname="...0 .... .... = Nonce: Not set" size="1" pos="46" show="0" value="0" unmaskedvalue="50"/>
      <field name="tcp.flags.cwr" showname=".... 0... .... = Congestion Window Reduced (CWR): Not set" size="1" pos="47" show="0" value="0" unmaskedvalue="10"/>
      <field name="tcp.flags.ecn" showname=".... .0.. .... = ECN-Echo: Not set" size="1" pos="47" show="0" value="0" unmaskedvalue="10"/>
      <field name="tcp.flags.urg" showname=".... ..0. .... = Urgent: Not set" size="1" pos="47" show="0" value="0" unmaskedvalue="10"/>
      <field name="tcp.flags.ack" showname=".... ...1 .... = Acknowledgment: Set" size="1" pos="47" show="1" value="1" unmaskedvalue="10"/>
      <field name="tcp.flags.push" showname=".... .... 0... = Push: Not set" size="1" pos="47" show="0" value="0" unmaskedvalue="10"/>
      <field name="tcp.flags.reset" showname=".... .... .0.. = Reset: Not set" size="1" pos="47" show="0" value="0" unmaskedvalue="10"/>
      <field name="tcp.flags.syn" showname=".... .... ..0. = Syn: Not set" size="1" pos="47" show="0" value="0" unmaskedvalue="10"/>
      <field name="tcp.flags.fin" showname=".... .... ...0 = Fin: Not set" size="1" pos="47" show="0" value="0" unmaskedvalue="10"/>
    </field>
    <field name="tcp.window_size_value" showname="Window size value: 30" size="2" pos="48" show="30" value="001e"/>
    <field name="tcp.window_size" showname="Calculated window size: 30720" size="2" pos="48" show="30720" value="001e"/>
    <field name="tcp.window_size_scalefactor" showname="Window size scaling factor: 1024" size="2" pos="48" show="1024" value="001e"/>
    <field name="tcp.checksum" showname="Checksum: 0x1974 [validation disabled]" size="2" pos="50" show="6516" value="1974">
      <field name="tcp.checksum_good" showname="Good Checksum: False" size="2" pos="50" show="0" value="1974"/>
      <field name="tcp.checksum_bad" showname="Bad Checksum: False" size="2" pos="50" show="0" value="1974"/>
    </field>
    <field name="tcp.analysis" showname="SEQ/ACK analysis" size="0" pos="34" show="" value="">
      <field name="tcp.analysis.acks_frame" showname="This is an ACK to the segment in frame: 4" size="0" pos="34" show="4"/>
      <field name="tcp.analysis.ack_rtt" showname="The RTT to ACK the segment was: 0.003590000 seconds" size="0" pos="34" show="0.003590000"/>
    </field>
  </proto>
</packet>


<packet>
  <proto name="geninfo" pos="0" showname="General information" size="188">
    <field name="num" pos="0" show="6" showname="Number" value="6" size="188"/>
    <field name="len" pos="0" show="188" showname="Frame Length" value="bc" size="188"/>
    <field name="caplen" pos="0" show="188" showname="Captured Length" value="bc" size="188"/>
    <field name="timestamp" pos="0" show="Jun 27, 2019 12:20:58.498685000 CEST" showname="Captured Time" value="1561630858.498685000" size="188"/>
  </proto>
  <proto name="frame" showname="Frame 6: 188 bytes on wire (1504 bits), 188 bytes captured (1504 bits) on interface 0" size="188" pos="0">
    <field name="frame.interface_id" showname="Interface id: 0" size="0" pos="0" show="0"/>
    <field name="frame.encap_type" showname="Encapsulation type: Ethernet (1)" size="0" pos="0" show="1"/>
    <field name="frame.time" showname="Arrival Time: Jun 27, 2019 12:20:58.498685000 CEST" size="0" pos="0" show="&quot;Jun 27, 2019 12:20:58.498685000 CEST&quot;"/>
    <field name="frame.offset_shift" showname="Time shift for this packet: 0.000000000 seconds" size="0" pos="0" show="0.000000000"/>
    <field name="frame.time_epoch" showname="Epoch Time: 1561630858.498685000 seconds" size="0" pos="0" show="1561630858.498685000"/>
    <field name="frame.time_delta" showname="Time delta from previous captured frame: 0.001160000 seconds" size="0" pos="0" show="0.001160000"/>
    <field name="frame.time_delta_displayed" showname="Time delta from previous displayed frame: 0.001160000 seconds" size="0" pos="0" show="0.001160000"/>
    <field name="frame.time_relative" showname="Time since reference or first frame: 0.009335000 seconds" size="0" pos="0" show="0.009335000"/>
    <field name="frame.number" showname="Frame Number: 6" size="0" pos="0" show="6"/>
    <field name="frame.len" showname="Frame Length: 188 bytes (1504 bits)" size="0" pos="0" show="188"/>
    <field name="frame.cap_len" showname="Capture Length: 188 bytes (1504 bits)" size="0" pos="0" show="188"/>
    <field name="frame.marked" showname="Frame is marked: False" size="0" pos="0" show="0"/>
    <field name="frame.ignored" showname="Frame is ignored: False" size="0" pos="0" show="0"/>
    <field name="frame.protocols" showname="Protocols in frame: eth:ip:tcp:data" size="0" pos="0" show="eth:ip:tcp:data"/>
  </proto>
  <proto name="eth" showname="Ethernet II, Src: 02:42:71:12:56:af (02:42:71:12:56:af), Dst: 02:42:ac:11:00:02 (02:42:ac:11:00:02)" size="14" pos="0">
    <field name="eth.dst" showname="Destination: 02:42:ac:11:00:02 (02:42:ac:11:00:02)" size="6" pos="0" show="02:42:ac:11:00:02" value="0242ac110002">
      <field name="eth.addr" showname="Address: 02:42:ac:11:00:02 (02:42:ac:11:00:02)" size="6" pos="0" show="02:42:ac:11:00:02" value="0242ac110002"/>
      <field name="eth.lg" showname=".... ..1. .... .... .... .... = LG bit: Locally administered address (this is NOT the factory default)" size="3" pos="0" show="1" value="1" unmaskedvalue="0242ac"/>
      <field name="eth.ig" showname=".... ...0 .... .... .... .... = IG bit: Individual address (unicast)" size="3" pos="0" show="0" value="0" unmaskedvalue="0242ac"/>
    </field>
    <field name="eth.src" showname="Source: 02:42:71:12:56:af (02:42:71:12:56:af)" size="6" pos="6" show="02:42:71:12:56:af" value="0242711256af">
      <field name="eth.addr" showname="Address: 02:42:71:12:56:af (02:42:71:12:56:af)" size="6" pos="6" show="02:42:71:12:56:af" value="0242711256af"/>
      <field name="eth.lg" showname=".... ..1. .... .... .... .... = LG bit: Locally administered address (this is NOT the factory default)" size="3" pos="6" show="1" value="1" unmaskedvalue="024271"/>
      <field name="eth.ig" showname=".... ...0 .... .... .... .... = IG bit: Individual address (unicast)" size="3" pos="6" show="0" value="0" unmaskedvalue="024271"/>
    </field>
    <field name="eth.type" showname="Type: IP (0x0800)" size="2" pos="12" show="2048" value="0800"/>
  </proto>
  <proto name="ip" showname="Internet Protocol Version 4, Src: 1.1.1.1 (1.1.1.1), Dst: 172.17.0.2 (172.17.0.2)" size="20" pos="14">
    <field name="ip.version" showname="Version: 4" size="1" pos="14" show="4" value="45"/>
    <field name="ip.hdr_len" showname="Header length: 20 bytes" size="1" pos="14" show="20" value="45"/>
    <field name="ip.dsfield" showname="Differentiated Services Field: 0x00 (DSCP 0x00: Default; ECN: 0x00: Not-ECT (Not ECN-Capable Transport))" size="1" pos="15" show="0" value="00">
      <field name="ip.dsfield.dscp" showname="0000 00.. = Differentiated Services Codepoint: Default (0x00)" size="1" pos="15" show="0" value="0" unmaskedvalue="00"/>
      <field name="ip.dsfield.ecn" showname=".... ..00 = Explicit Congestion Notification: Not-ECT (Not ECN-Capable Transport) (0x00)" size="1" pos="15" show="0" value="0" unmaskedvalue="00"/>
    </field>
    <field name="ip.len" showname="Total Length: 174" size="2" pos="16" show="174" value="00ae"/>
    <field name="ip.id" showname="Identification: 0x6db9 (28089)" size="2" pos="18" show="28089" value="6db9"/>
    <field name="ip.flags" showname="Flags: 0x02 (Don&apos;t Fragment)" size="1" pos="20" show="2" value="40">
      <field name="ip.flags.rb" showname="0... .... = Reserved bit: Not set" size="1" pos="20" show="0" value="40"/>
      <field name="ip.flags.df" showname=".1.. .... = Don&apos;t fragment: Set" size="1" pos="20" show="1" value="40"/>
      <field name="ip.flags.mf" showname="..0. .... = More fragments: Not set" size="1" pos="20" show="0" value="40"/>
    </field>
    <field name="ip.frag_offset" showname="Fragment offset: 0" size="2" pos="20" show="0" value="4000"/>
    <field name="ip.ttl" showname="Time to live: 57" size="1" pos="22" show="57" value="39"/>
    <field name="ip.proto" showname="Protocol: TCP (6)" size="1" pos="23" show="6" value="06"/>
    <field name="ip.checksum" showname="Header checksum: 0x257c [validation disabled]" size="2" pos="24" show="9596" value="257c">
      <field name="ip.checksum_good" showname="Good: False" size="2" pos="24" show="0" value="257c"/>
      <field name="ip.checksum_bad" showname="Bad: False" size="2" pos="24" show="0" value="257c"/>
    </field>
    <field name="ip.src" showname="Source: 1.1.1.1 (1.1.1.1)" size="4" pos="26" show="1.1.1.1" value="01010101"/>
    <field name="ip.addr" showname="Source or Destination Address: 1.1.1.1 (1.1.1.1)" hide="yes" size="4" pos="26" show="1.1.1.1" value="01010101"/>
    <field name="ip.src_host" showname="Source Host: 1.1.1.1" hide="yes" size="4" pos="26" show="1.1.1.1" value="01010101"/>
    <field name="ip.host" showname="Source or Destination Host: 1.1.1.1" hide="yes" size="4" pos="26" show="1.1.1.1" value="01010101"/>
    <field name="ip.dst" showname="Destination: 172.17.0.2 (172.17.0.2)" size="4" pos="30" show="172.17.0.2" value="ac110002"/>
    <field name="ip.addr" showname="Source or Destination Address: 172.17.0.2 (172.17.0.2)" hide="yes" size="4" pos="30" show="172.17.0.2" value="ac110002"/>
    <field name="ip.dst_host" showname="Destination Host: 172.17.0.2" hide="yes" size="4" pos="30" show="172.17.0.2" value="ac110002"/>
    <field name="ip.host" showname="Source or Destination Host: 172.17.0.2" hide="yes" size="4" pos="30" show="172.17.0.2" value="ac110002"/>
  </proto>
  <proto name="tcp" showname="Transmission Control Protocol, Src Port: 853 (853), Dst Port: 59682 (59682), Seq: 1, Ack: 338, Len: 134" size="20" pos="34">
    <field name="tcp.srcport" showname="Source port: 853 (853)" size="2" pos="34" show="853" value="0355"/>
    <field name="tcp.dstport" showname="Destination port: 59682 (59682)" size="2" pos="36" show="59682" value="e922"/>
    <field name="tcp.port" showname="Source or Destination Port: 853" hide="yes" size="2" pos="34" show="853" value="0355"/>
    <field name="tcp.port" showname="Source or Destination Port: 59682" hide="yes" size="2" pos="36" show="59682" value="e922"/>
    <field name="tcp.stream" showname="Stream index: 0" size="0" pos="34" show="0"/>
    <field name="tcp.len" showname="TCP Segment Len: 134" hide="yes" size="1" pos="46" show="134" value="50"/>
    <field name="tcp.seq" showname="Sequence number: 1    (relative sequence number)" size="4" pos="38" show="1" value="a0d8be6a"/>
    <field name="tcp.nxtseq" showname="Next sequence number: 135    (relative sequence number)" size="0" pos="34" show="135"/>
    <field name="tcp.ack" showname="Acknowledgment number: 338    (relative ack number)" size="4" pos="42" show="338" value="11b68abc"/>
    <field name="tcp.hdr_len" showname="Header length: 20 bytes" size="1" pos="46" show="20" value="50"/>
    <field name="tcp.flags" showname="Flags: 0x018 (PSH, ACK)" size="2" pos="46" show="24" value="18" unmaskedvalue="5018">
      <field name="tcp.flags.res" showname="000. .... .... = Reserved: Not set" size="1" pos="46" show="0" value="0" unmaskedvalue="50"/>
      <field name="tcp.flags.ns" showname="...0 .... .... = Nonce: Not set" size="1" pos="46" show="0" value="0" unmaskedvalue="50"/>
      <field name="tcp.flags.cwr" showname=".... 0... .... = Congestion Window Reduced (CWR): Not set" size="1" pos="47" show="0" value="0" unmaskedvalue="18"/>
      <field name="tcp.flags.ecn" showname=".... .0.. .... = ECN-Echo: Not set" size="1" pos="47" show="0" value="0" unmaskedvalue="18"/>
      <field name="tcp.flags.urg" showname=".... ..0. .... = Urgent: Not set" size="1" pos="47" show="0" value="0" unmaskedvalue="18"/>
      <field name="tcp.flags.ack" showname=".... ...1 .... = Acknowledgment: Set" size="1" pos="47" show="1" value="1" unmaskedvalue="18"/>
      <field name="tcp.flags.push" showname=".... .... 1... = Push: Set" size="1" pos="47" show="1" value="1" unmaskedvalue="18"/>
      <field name="tcp.flags.reset" showname=".... .... .0.. = Reset: Not set" size="1" pos="47" show="0" value="0" unmaskedvalue="18"/>
      <field name="tcp.flags.syn" showname=".... .... ..0. = Syn: Not set" size="1" pos="47" show="0" value="0" unmaskedvalue="18"/>
      <field name="tcp.flags.fin" showname=".... .... ...0 = Fin: Not set" size="1" pos="47" show="0" value="0" unmaskedvalue="18"/>
    </field>
    <field name="tcp.window_size_value" showname="Window size value: 30" size="2" pos="48" show="30" value="001e"/>
    <field name="tcp.window_size" showname="Calculated window size: 30720" size="2" pos="48" show="30720" value="001e"/>
    <field name="tcp.window_size_scalefactor" showname="Window size scaling factor: 1024" size="2" pos="48" show="1024" value="001e"/>
    <field name="tcp.checksum" showname="Checksum: 0x8d8c [validation disabled]" size="2" pos="50" show="36236" value="8d8c">
      <field name="tcp.checksum_good" showname="Good Checksum: False" size="2" pos="50" show="0" value="8d8c"/>
      <field name="tcp.checksum_bad" showname="Bad Checksum: False" size="2" pos="50" show="0" value="8d8c"/>
    </field>
    <field name="tcp.analysis" showname="SEQ/ACK analysis" size="0" pos="34" show="" value="">
      <field name="tcp.analysis.bytes_in_flight" showname="Bytes in flight: 134" size="0" pos="34" show="134"/>
    </field>
  </proto>
  <proto name="fake-field-wrapper">
    <field name="data" value="160303007b02000077030323b215f19a58f362126de6701bea0066138e37c3d6f29bd6444f574e4752440100130200004f0033004500170041042d16558a196c9a718fd99cad05f2dfb2408ea79c6ba6bd7af8e9c5ca2c8603d97f569839795a6bc2efc1d50fd95aa93149a138d532b4706547413ef4e3427b34002b00020304140303000101">
      <field name="data.data" showname="Data: 160303007b02000077030323b215f19a58f362126de6701b..." size="134" pos="54" show="16:03:03:00:7b:02:00:00:77:03:03:23:b2:15:f1:9a:58:f3:62:12:6d:e6:70:1b:ea:00:66:13:8e:37:c3:d6:f2:9b:d6:44:4f:57:4e:47:52:44:01:00:13:02:00:00:4f:00:33:00:45:00:17:00:41:04:2d:16:55:8a:19:6c:9a:71:8f:d9:9c:ad:05:f2:df:b2:40:8e:a7:9c:6b:a6:bd:7a:f8:e9:c5:ca:2c:86:03:d9:7f:56:98:39:79:5a:6b:c2:ef:c1:d5:0f:d9:5a:a9:31:49:a1:38:d5:32:b4:70:65:47:41:3e:f4:e3:42:7b:34:00:2b:00:02:03:04:14:03:03:00:01:01" value="160303007b02000077030323b215f19a58f362126de6701bea0066138e37c3d6f29bd6444f574e4752440100130200004f0033004500170041042d16558a196c9a718fd99cad05f2dfb2408ea79c6ba6bd7af8e9c5ca2c8603d97f569839795a6bc2efc1d50fd95aa93149a138d532b4706547413ef4e3427b34002b00020304140303000101"/>
      <field name="data.len" showname="Length: 134" size="0" pos="54" show="134"/>
  </field>
</proto>
</packet>


<packet>
  <proto name="geninfo" pos="0" showname="General information" size="54">
    <field name="num" pos="0" show="7" showname="Number" value="7" size="54"/>
    <field name="len" pos="0" show="54" showname="Frame Length" value="36" size="54"/>
    <field name="caplen" pos="0" show="54" showname="Captured Length" value="36" size="54"/>
    <field name="timestamp" pos="0" show="Jun 27, 2019 12:20:58.498709000 CEST" showname="Captured Time" value="1561630858.498709000" size="54"/>
  </proto>
  <proto name="frame" showname="Frame 7: 54 bytes on wire (432 bits), 54 bytes captured (432 bits) on interface 0" size="54" pos="0">
    <field name="frame.interface_id" showname="Interface id: 0" size="0" pos="0" show="0"/>
    <field name="frame.encap_type" showname="Encapsulation type: Ethernet (1)" size="0" pos="0" show="1"/>
    <field name="frame.time" showname="Arrival Time: Jun 27, 2019 12:20:58.498709000 CEST" size="0" pos="0" show="&quot;Jun 27, 2019 12:20:58.498709000 CEST&quot;"/>
    <field name="frame.offset_shift" showname="Time shift for this packet: 0.000000000 seconds" size="0" pos="0" show="0.000000000"/>
    <field name="frame.time_epoch" showname="Epoch Time: 1561630858.498709000 seconds" size="0" pos="0" show="1561630858.498709000"/>
    <field name="frame.time_delta" showname="Time delta from previous captured frame: 0.000024000 seconds" size="0" pos="0" show="0.000024000"/>
    <field name="frame.time_delta_displayed" showname="Time delta from previous displayed frame: 0.000024000 seconds" size="0" pos="0" show="0.000024000"/>
    <field name="frame.time_relative" showname="Time since reference or first frame: 0.009359000 seconds" size="0" pos="0" show="0.009359000"/>
    <field name="frame.number" showname="Frame Number: 7" size="0" pos="0" show="7"/>
    <field name="frame.len" showname="Frame Length: 54 bytes (432 bits)" size="0" pos="0" show="54"/>
    <field name="frame.cap_len" showname="Capture Length: 54 bytes (432 bits)" size="0" pos="0" show="54"/>
    <field name="frame.marked" showname="Frame is marked: False" size="0" pos="0" show="0"/>
    <field name="frame.ignored" showname="Frame is ignored: False" size="0" pos="0" show="0"/>
    <field name="frame.protocols" showname="Protocols in frame: eth:ip:tcp" size="0" pos="0" show="eth:ip:tcp"/>
  </proto>
  <proto name="eth" showname="Ethernet II, Src: 02:42:ac:11:00:02 (02:42:ac:11:00:02), Dst: 02:42:71:12:56:af (02:42:71:12:56:af)" size="14" pos="0">
    <field name="eth.dst" showname="Destination: 02:42:71:12:56:af (02:42:71:12:56:af)" size="6" pos="0" show="02:42:71:12:56:af" value="0242711256af">
      <field name="eth.addr" showname="Address: 02:42:71:12:56:af (02:42:71:12:56:af)" size="6" pos="0" show="02:42:71:12:56:af" value="0242711256af"/>
      <field name="eth.lg" showname=".... ..1. .... .... .... .... = LG bit: Locally administered address (this is NOT the factory default)" size="3" pos="0" show="1" value="1" unmaskedvalue="024271"/>
      <field name="eth.ig" showname=".... ...0 .... .... .... .... = IG bit: Individual address (unicast)" size="3" pos="0" show="0" value="0" unmaskedvalue="024271"/>
    </field>
    <field name="eth.src" showname="Source: 02:42:ac:11:00:02 (02:42:ac:11:00:02)" size="6" pos="6" show="02:42:ac:11:00:02" value="0242ac110002">
      <field name="eth.addr" showname="Address: 02:42:ac:11:00:02 (02:42:ac:11:00:02)" size="6" pos="6" show="02:42:ac:11:00:02" value="0242ac110002"/>
      <field name="eth.lg" showname=".... ..1. .... .... .... .... = LG bit: Locally administered address (this is NOT the factory default)" size="3" pos="6" show="1" value="1" unmaskedvalue="0242ac"/>
      <field name="eth.ig" showname=".... ...0 .... .... .... .... = IG bit: Individual address (unicast)" size="3" pos="6" show="0" value="0" unmaskedvalue="0242ac"/>
    </field>
    <field name="eth.type" showname="Type: IP (0x0800)" size="2" pos="12" show="2048" value="0800"/>
  </proto>
  <proto name="ip" showname="Internet Protocol Version 4, Src: 172.17.0.2 (172.17.0.2), Dst: 1.1.1.1 (1.1.1.1)" size="20" pos="14">
    <field name="ip.version" showname="Version: 4" size="1" pos="14" show="4" value="45"/>
    <field name="ip.hdr_len" showname="Header length: 20 bytes" size="1" pos="14" show="20" value="45"/>
    <field name="ip.dsfield" showname="Differentiated Services Field: 0x00 (DSCP 0x00: Default; ECN: 0x00: Not-ECT (Not ECN-Capable Transport))" size="1" pos="15" show="0" value="00">
      <field name="ip.dsfield.dscp" showname="0000 00.. = Differentiated Services Codepoint: Default (0x00)" size="1" pos="15" show="0" value="0" unmaskedvalue="00"/>
      <field name="ip.dsfield.ecn" showname=".... ..00 = Explicit Congestion Notification: Not-ECT (Not ECN-Capable Transport) (0x00)" size="1" pos="15" show="0" value="0" unmaskedvalue="00"/>
    </field>
    <field name="ip.len" showname="Total Length: 40" size="2" pos="16" show="40" value="0028"/>
    <field name="ip.id" showname="Identification: 0xe77d (59261)" size="2" pos="18" show="59261" value="e77d"/>
    <field name="ip.flags" showname="Flags: 0x02 (Don&apos;t Fragment)" size="1" pos="20" show="2" value="40">
      <field name="ip.flags.rb" showname="0... .... = Reserved bit: Not set" size="1" pos="20" show="0" value="40"/>
      <field name="ip.flags.df" showname=".1.. .... = Don&apos;t fragment: Set" size="1" pos="20" show="1" value="40"/>
      <field name="ip.flags.mf" showname="..0. .... = More fragments: Not set" size="1" pos="20" show="0" value="40"/>
    </field>
    <field name="ip.frag_offset" showname="Fragment offset: 0" size="2" pos="20" show="0" value="4000"/>
    <field name="ip.ttl" showname="Time to live: 64" size="1" pos="22" show="64" value="40"/>
    <field name="ip.proto" showname="Protocol: TCP (6)" size="1" pos="23" show="6" value="06"/>
    <field name="ip.checksum" showname="Header checksum: 0xa53d [validation disabled]" size="2" pos="24" show="42301" value="a53d">
      <field name="ip.checksum_good" showname="Good: False" size="2" pos="24" show="0" value="a53d"/>
      <field name="ip.checksum_bad" showname="Bad: False" size="2" pos="24" show="0" value="a53d"/>
    </field>
    <field name="ip.src" showname="Source: 172.17.0.2 (172.17.0.2)" size="4" pos="26" show="172.17.0.2" value="ac110002"/>
    <field name="ip.addr" showname="Source or Destination Address: 172.17.0.2 (172.17.0.2)" hide="yes" size="4" pos="26" show="172.17.0.2" value="ac110002"/>
    <field name="ip.src_host" showname="Source Host: 172.17.0.2" hide="yes" size="4" pos="26" show="172.17.0.2" value="ac110002"/>
    <field name="ip.host" showname="Source or Destination Host: 172.17.0.2" hide="yes" size="4" pos="26" show="172.17.0.2" value="ac110002"/>
    <field name="ip.dst" showname="Destination: 1.1.1.1 (1.1.1.1)" size="4" pos="30" show="1.1.1.1" value="01010101"/>
    <field name="ip.addr" showname="Source or Destination Address: 1.1.1.1 (1.1.1.1)" hide="yes" size="4" pos="30" show="1.1.1.1" value="01010101"/>
    <field name="ip.dst_host" showname="Destination Host: 1.1.1.1" hide="yes" size="4" pos="30" show="1.1.1.1" value="01010101"/>
    <field name="ip.host" showname="Source or Destination Host: 1.1.1.1" hide="yes" size="4" pos="30" show="1.1.1.1" value="01010101"/>
  </proto>
  <proto name="tcp" showname="Transmission Control Protocol, Src Port: 59682 (59682), Dst Port: 853 (853), Seq: 338, Ack: 135, Len: 0" size="20" pos="34">
    <field name="tcp.srcport" showname="Source port: 59682 (59682)" size="2" pos="34" show="59682" value="e922"/>
    <field name="tcp.dstport" showname="Destination port: 853 (853)" size="2" pos="36" show="853" value="0355"/>
    <field name="tcp.port" showname="Source or Destination Port: 59682" hide="yes" size="2" pos="34" show="59682" value="e922"/>
    <field name="tcp.port" showname="Source or Destination Port: 853" hide="yes" size="2" pos="36" show="853" value="0355"/>
    <field name="tcp.stream" showname="Stream index: 0" size="0" pos="34" show="0"/>
    <field name="tcp.len" showname="TCP Segment Len: 0" hide="yes" size="1" pos="46" show="0" value="50"/>
    <field name="tcp.seq" showname="Sequence number: 338    (relative sequence number)" size="4" pos="38" show="338" value="11b68abc"/>
    <field name="tcp.ack" showname="Acknowledgment number: 135    (relative ack number)" size="4" pos="42" show="135" value="a0d8bef0"/>
    <field name="tcp.hdr_len" showname="Header length: 20 bytes" size="1" pos="46" show="20" value="50"/>
    <field name="tcp.flags" showname="Flags: 0x010 (ACK)" size="2" pos="46" show="16" value="10" unmaskedvalue="5010">
      <field name="tcp.flags.res" showname="000. .... .... = Reserved: Not set" size="1" pos="46" show="0" value="0" unmaskedvalue="50"/>
      <field name="tcp.flags.ns" showname="...0 .... .... = Nonce: Not set" size="1" pos="46" show="0" value="0" unmaskedvalue="50"/>
      <field name="tcp.flags.cwr" showname=".... 0... .... = Congestion Window Reduced (CWR): Not set" size="1" pos="47" show="0" value="0" unmaskedvalue="10"/>
      <field name="tcp.flags.ecn" showname=".... .0.. .... = ECN-Echo: Not set" size="1" pos="47" show="0" value="0" unmaskedvalue="10"/>
      <field name="tcp.flags.urg" showname=".... ..0. .... = Urgent: Not set" size="1" pos="47" show="0" value="0" unmaskedvalue="10"/>
      <field name="tcp.flags.ack" showname=".... ...1 .... = Acknowledgment: Set" size="1" pos="47" show="1" value="1" unmaskedvalue="10"/>
      <field name="tcp.flags.push" showname=".... .... 0... = Push: Not set" size="1" pos="47" show="0" value="0" unmaskedvalue="10"/>
      <field name="tcp.flags.reset" showname=".... .... .0.. = Reset: Not set" size="1" pos="47" show="0" value="0" unmaskedvalue="10"/>
      <field name="tcp.flags.syn" showname=".... .... ..0. = Syn: Not set" size="1" pos="47" show="0" value="0" unmaskedvalue="10"/>
      <field name="tcp.flags.fin" showname=".... .... ...0 = Fin: Not set" size="1" pos="47" show="0" value="0" unmaskedvalue="10"/>
    </field>
    <field name="tcp.window_size_value" showname="Window size value: 237" size="2" pos="48" show="237" value="00ed"/>
    <field name="tcp.window_size" showname="Calculated window size: 30336" size="2" pos="48" show="30336" value="00ed"/>
    <field name="tcp.window_size_scalefactor" showname="Window size scaling factor: 128" size="2" pos="48" show="128" value="00ed"/>
    <field name="tcp.checksum" showname="Checksum: 0xae2f [validation disabled]" size="2" pos="50" show="44591" value="ae2f">
      <field name="tcp.checksum_good" showname="Good Checksum: False" size="2" pos="50" show="0" value="ae2f"/>
      <field name="tcp.checksum_bad" showname="Bad Checksum: False" size="2" pos="50" show="0" value="ae2f"/>
    </field>
    <field name="tcp.analysis" showname="SEQ/ACK analysis" size="0" pos="34" show="" value="">
      <field name="tcp.analysis.acks_frame" showname="This is an ACK to the segment in frame: 6" size="0" pos="34" show="6"/>
      <field name="tcp.analysis.ack_rtt" showname="The RTT to ACK the segment was: 0.000024000 seconds" size="0" pos="34" show="0.000024000"/>
    </field>
  </proto>
</packet>


<packet>
  <proto name="geninfo" pos="0" showname="General information" size="2729">
    <field name="num" pos="0" show="8" showname="Number" value="8" size="2729"/>
    <field name="len" pos="0" show="2729" showname="Frame Length" value="aa9" size="2729"/>
    <field name="caplen" pos="0" show="2729" showname="Captured Length" value="aa9" size="2729"/>
    <field name="timestamp" pos="0" show="Jun 27, 2019 12:20:58.499156000 CEST" showname="Captured Time" value="1561630858.499156000" size="2729"/>
  </proto>
  <proto name="frame" showname="Frame 8: 2729 bytes on wire (21832 bits), 2729 bytes captured (21832 bits) on interface 0" size="2729" pos="0">
    <field name="frame.interface_id" showname="Interface id: 0" size="0" pos="0" show="0"/>
    <field name="frame.encap_type" showname="Encapsulation type: Ethernet (1)" size="0" pos="0" show="1"/>
    <field name="frame.time" showname="Arrival Time: Jun 27, 2019 12:20:58.499156000 CEST" size="0" pos="0" show="&quot;Jun 27, 2019 12:20:58.499156000 CEST&quot;"/>
    <field name="frame.offset_shift" showname="Time shift for this packet: 0.000000000 seconds" size="0" pos="0" show="0.000000000"/>
    <field name="frame.time_epoch" showname="Epoch Time: 1561630858.499156000 seconds" size="0" pos="0" show="1561630858.499156000"/>
    <field name="frame.time_delta" showname="Time delta from previous captured frame: 0.000447000 seconds" size="0" pos="0" show="0.000447000"/>
    <field name="frame.time_delta_displayed" showname="Time delta from previous displayed frame: 0.000447000 seconds" size="0" pos="0" show="0.000447000"/>
    <field name="frame.time_relative" showname="Time since reference or first frame: 0.009806000 seconds" size="0" pos="0" show="0.009806000"/>
    <field name="frame.number" showname="Frame Number: 8" size="0" pos="0" show="8"/>
    <field name="frame.len" showname="Frame Length: 2729 bytes (21832 bits)" size="0" pos="0" show="2729"/>
    <field name="frame.cap_len" showname="Capture Length: 2729 bytes (21832 bits)" size="0" pos="0" show="2729"/>
    <field name="frame.marked" showname="Frame is marked: False" size="0" pos="0" show="0"/>
    <field name="frame.ignored" showname="Frame is ignored: False" size="0" pos="0" show="0"/>
    <field name="frame.protocols" showname="Protocols in frame: eth:ip:tcp:data" size="0" pos="0" show="eth:ip:tcp:data"/>
  </proto>
  <proto name="eth" showname="Ethernet II, Src: 02:42:71:12:56:af (02:42:71:12:56:af), Dst: 02:42:ac:11:00:02 (02:42:ac:11:00:02)" size="14" pos="0">
    <field name="eth.dst" showname="Destination: 02:42:ac:11:00:02 (02:42:ac:11:00:02)" size="6" pos="0" show="02:42:ac:11:00:02" value="0242ac110002">
      <field name="eth.addr" showname="Address: 02:42:ac:11:00:02 (02:42:ac:11:00:02)" size="6" pos="0" show="02:42:ac:11:00:02" value="0242ac110002"/>
      <field name="eth.lg" showname=".... ..1. .... .... .... .... = LG bit: Locally administered address (this is NOT the factory default)" size="3" pos="0" show="1" value="1" unmaskedvalue="0242ac"/>
      <field name="eth.ig" showname=".... ...0 .... .... .... .... = IG bit: Individual address (unicast)" size="3" pos="0" show="0" value="0" unmaskedvalue="0242ac"/>
    </field>
    <field name="eth.src" showname="Source: 02:42:71:12:56:af (02:42:71:12:56:af)" size="6" pos="6" show="02:42:71:12:56:af" value="0242711256af">
      <field name="eth.addr" showname="Address: 02:42:71:12:56:af (02:42:71:12:56:af)" size="6" pos="6" show="02:42:71:12:56:af" value="0242711256af"/>
      <field name="eth.lg" showname=".... ..1. .... .... .... .... = LG bit: Locally administered address (this is NOT the factory default)" size="3" pos="6" show="1" value="1" unmaskedvalue="024271"/>
      <field name="eth.ig" showname=".... ...0 .... .... .... .... = IG bit: Individual address (unicast)" size="3" pos="6" show="0" value="0" unmaskedvalue="024271"/>
    </field>
    <field name="eth.type" showname="Type: IP (0x0800)" size="2" pos="12" show="2048" value="0800"/>
  </proto>
  <proto name="ip" showname="Internet Protocol Version 4, Src: 1.1.1.1 (1.1.1.1), Dst: 172.17.0.2 (172.17.0.2)" size="20" pos="14">
    <field name="ip.version" showname="Version: 4" size="1" pos="14" show="4" value="45"/>
    <field name="ip.hdr_len" showname="Header length: 20 bytes" size="1" pos="14" show="20" value="45"/>
    <field name="ip.dsfield" showname="Differentiated Services Field: 0x00 (DSCP 0x00: Default; ECN: 0x00: Not-ECT (Not ECN-Capable Transport))" size="1" pos="15" show="0" value="00">
      <field name="ip.dsfield.dscp" showname="0000 00.. = Differentiated Services Codepoint: Default (0x00)" size="1" pos="15" show="0" value="0" unmaskedvalue="00"/>
      <field name="ip.dsfield.ecn" showname=".... ..00 = Explicit Congestion Notification: Not-ECT (Not ECN-Capable Transport) (0x00)" size="1" pos="15" show="0" value="0" unmaskedvalue="00"/>
    </field>
    <field name="ip.len" showname="Total Length: 2715" size="2" pos="16" show="2715" value="0a9b"/>
    <field name="ip.id" showname="Identification: 0x6dba (28090)" size="2" pos="18" show="28090" value="6dba"/>
    <field name="ip.flags" showname="Flags: 0x02 (Don&apos;t Fragment)" size="1" pos="20" show="2" value="40">
      <field name="ip.flags.rb" showname="0... .... = Reserved bit: Not set" size="1" pos="20" show="0" value="40"/>
      <field name="ip.flags.df" showname=".1.. .... = Don&apos;t fragment: Set" size="1" pos="20" show="1" value="40"/>
      <field name="ip.flags.mf" showname="..0. .... = More fragments: Not set" size="1" pos="20" show="0" value="40"/>
    </field>
    <field name="ip.frag_offset" showname="Fragment offset: 0" size="2" pos="20" show="0" value="4000"/>
    <field name="ip.ttl" showname="Time to live: 57" size="1" pos="22" show="57" value="39"/>
    <field name="ip.proto" showname="Protocol: TCP (6)" size="1" pos="23" show="6" value="06"/>
    <field name="ip.checksum" showname="Header checksum: 0x1b8e [validation disabled]" size="2" pos="24" show="7054" value="1b8e">
      <field name="ip.checksum_good" showname="Good: False" size="2" pos="24" show="0" value="1b8e"/>
      <field name="ip.checksum_bad" showname="Bad: False" size="2" pos="24" show="0" value="1b8e"/>
    </field>
    <field name="ip.src" showname="Source: 1.1.1.1 (1.1.1.1)" size="4" pos="26" show="1.1.1.1" value="01010101"/>
    <field name="ip.addr" showname="Source or Destination Address: 1.1.1.1 (1.1.1.1)" hide="yes" size="4" pos="26" show="1.1.1.1" value="01010101"/>
    <field name="ip.src_host" showname="Source Host: 1.1.1.1" hide="yes" size="4" pos="26" show="1.1.1.1" value="01010101"/>
    <field name="ip.host" showname="Source or Destination Host: 1.1.1.1" hide="yes" size="4" pos="26" show="1.1.1.1" value="01010101"/>
    <field name="ip.dst" showname="Destination: 172.17.0.2 (172.17.0.2)" size="4" pos="30" show="172.17.0.2" value="ac110002"/>
    <field name="ip.addr" showname="Source or Destination Address: 172.17.0.2 (172.17.0.2)" hide="yes" size="4" pos="30" show="172.17.0.2" value="ac110002"/>
    <field name="ip.dst_host" showname="Destination Host: 172.17.0.2" hide="yes" size="4" pos="30" show="172.17.0.2" value="ac110002"/>
    <field name="ip.host" showname="Source or Destination Host: 172.17.0.2" hide="yes" size="4" pos="30" show="172.17.0.2" value="ac110002"/>
  </proto>
  <proto name="tcp" showname="Transmission Control Protocol, Src Port: 853 (853), Dst Port: 59682 (59682), Seq: 135, Ack: 338, Len: 2675" size="20" pos="34">
    <field name="tcp.srcport" showname="Source port: 853 (853)" size="2" pos="34" show="853" value="0355"/>
    <field name="tcp.dstport" showname="Destination port: 59682 (59682)" size="2" pos="36" show="59682" value="e922"/>
    <field name="tcp.port" showname="Source or Destination Port: 853" hide="yes" size="2" pos="34" show="853" value="0355"/>
    <field name="tcp.port" showname="Source or Destination Port: 59682" hide="yes" size="2" pos="36" show="59682" value="e922"/>
    <field name="tcp.stream" showname="Stream index: 0" size="0" pos="34" show="0"/>
    <field name="tcp.len" showname="TCP Segment Len: 2675" hide="yes" size="1" pos="46" show="2675" value="50"/>
    <field name="tcp.seq" showname="Sequence number: 135    (relative sequence number)" size="4" pos="38" show="135" value="a0d8bef0"/>
    <field name="tcp.nxtseq" showname="Next sequence number: 2810    (relative sequence number)" size="0" pos="34" show="2810"/>
    <field name="tcp.ack" showname="Acknowledgment number: 338    (relative ack number)" size="4" pos="42" show="338" value="11b68abc"/>
    <field name="tcp.hdr_len" showname="Header length: 20 bytes" size="1" pos="46" show="20" value="50"/>
    <field name="tcp.flags" showname="Flags: 0x018 (PSH, ACK)" size="2" pos="46" show="24" value="18" unmaskedvalue="5018">
      <field name="tcp.flags.res" showname="000. .... .... = Reserved: Not set" size="1" pos="46" show="0" value="0" unmaskedvalue="50"/>
      <field name="tcp.flags.ns" showname="...0 .... .... = Nonce: Not set" size="1" pos="46" show="0" value="0" unmaskedvalue="50"/>
      <field name="tcp.flags.cwr" showname=".... 0... .... = Congestion Window Reduced (CWR): Not set" size="1" pos="47" show="0" value="0" unmaskedvalue="18"/>
      <field name="tcp.flags.ecn" showname=".... .0.. .... = ECN-Echo: Not set" size="1" pos="47" show="0" value="0" unmaskedvalue="18"/>
      <field name="tcp.flags.urg" showname=".... ..0. .... = Urgent: Not set" size="1" pos="47" show="0" value="0" unmaskedvalue="18"/>
      <field name="tcp.flags.ack" showname=".... ...1 .... = Acknowledgment: Set" size="1" pos="47" show="1" value="1" unmaskedvalue="18"/>
      <field name="tcp.flags.push" showname=".... .... 1... = Push: Set" size="1" pos="47" show="1" value="1" unmaskedvalue="18"/>
      <field name="tcp.flags.reset" showname=".... .... .0.. = Reset: Not set" size="1" pos="47" show="0" value="0" unmaskedvalue="18"/>
      <field name="tcp.flags.syn" showname=".... .... ..0. = Syn: Not set" size="1" pos="47" show="0" value="0" unmaskedvalue="18"/>
      <field name="tcp.flags.fin" showname=".... .... ...0 = Fin: Not set" size="1" pos="47" show="0" value="0" unmaskedvalue="18"/>
    </field>
    <field name="tcp.window_size_value" showname="Window size value: 30" size="2" pos="48" show="30" value="001e"/>
    <field name="tcp.window_size" showname="Calculated window size: 30720" size="2" pos="48" show="30720" value="001e"/>
    <field name="tcp.window_size_scalefactor" showname="Window size scaling factor: 1024" size="2" pos="48" show="1024" value="001e"/>
    <field name="tcp.checksum" showname="Checksum: 0xb8a2 [validation disabled]" size="2" pos="50" show="47266" value="b8a2">
      <field name="tcp.checksum_good" showname="Good Checksum: False" size="2" pos="50" show="0" value="b8a2"/>
      <field name="tcp.checksum_bad" showname="Bad Checksum: False" size="2" pos="50" show="0" value="b8a2"/>
    </field>
    <field name="tcp.analysis" showname="SEQ/ACK analysis" size="0" pos="34" show="" value="">
      <field name="tcp.analysis.bytes_in_flight" showname="Bytes in flight: 2675" size="0" pos="34" show="2675"/>
    </field>
  </proto>
  <proto name="fake-field-wrapper">
    <field name="data" value="170303001d2488b2c8a5098e6720b8e7e1064322041820cac479bfa8628575536903170303099d744f80ebf93df160faca48ec9ad0897a5a8f572ebe0c9dd97ea00f64d4120e44bdeb29599d49eee131b9d114d875c42ee44862577ef1c30162e174c8ba8d7ff203e9038642a84f53d175ac5e8f151770ce6911f2a1b9fef613849ac5ef13aa858c5c370f0c95d9e36fc5e79555d799bb3fcf766a2bb0efe19d1a8a2493769056243e5d5d7141213ab4b9e5081b5b9244cbc80a73020c70ce8355478a4cb3b73e184575bb340515f7b9826210f71316b7a97e276af668a6351a8a33d38cafa389648cfbe376ef88e38df00255b59dfe2b42511280cb16b13c14375a6d29960ddd60739000a93e69230e0efeafa8a4fd0f45ccefea0110a44eef227ce51d76a877cc817daee6c6bf458f2a89c4e6dcb19ab47c734dc86177a1cf2a8dda2b0c2e7952249e345fb1b33a9d612eca7aa6a8bd22c2f59f08c1b2607a3d42516d869a6a08382916165d4a744706748875b116bcf282d1aa934667100eecb46c2ab893f1b967f37dab95c6c9e2f49ef0e8ef505ff9aff68e2b27556195d6c327fe3589bf79f7cdd89a18a9fb71f1ac502bbd99474c4e30963412c0f520291f28c7aa235c759f98e893d747a02b18b0305b0768f96559692af50c59d9007c8345798d9fa876b67474d93cdbc1024e9b01e2e248ff22c1bf9c76e0ac80fecd6350f6910e985b36bdd8a0a70cffdcc6ad5c04b0fe17d9e585649d1890c18a86dfdf812a0a9a41f637a0624ac0d8d21d27fc786d9264bdf4ba36627667333d54bbe05d99b6d51d5aba9851b82e4bfc5310adf3d82eb8c0459e8dc578dbd23a01b242a01aa22b353c949c28d50ec4262b8968528e90a81b1dafe2574fc25ac2c0c042be12c014d998481ead277f2115dd93c42a2b7088f6340480ed3c8b8256d51dace8322ff545a64c631d93f13e76cd58a7e576adccf88fe59009a2ddb8cd5231b9b6fb02aa97a9508520b2315891cd42c01dce8cb23f1c070c047260844485710beb5eaf4676f00ab11c75b604a5a5c16579a001aaa92f0b90890bb759a2d373cd8060e7159f9ee58a7591375ffa48eee550771dbe13f71affd729f99c66b1cf64e4b10e7cddf9a39a886c4a5f1d8635cae657f8420ea8a7d19d7cb84d032ec68590ac66cb360f93b46ce322786d92a892b242e3a082d6dd96439180a451f5b26ef299e6314e84455300d2b7013f423b05ed7b80da703e3c43446ce71c28f514d1340af69b515ebba22be0df32fb638e980bdc963f05de81a8074d397669212251446d0e7eb305e7be995c216fc60a5faac85cb623055c96240b912be999fccd367ff3b5906da2ae0c5152273f8a4aed0815b33a93c26dd449aa641eac17e5129c4628e5daf856479598ce9959888c292214596d4d8681928b6e489f3ef8f8854df27f104b10ac82bb845418eb3ac3197806127815c0c1a1edd17fab9a84323e4cbefec0e2f8383ba498683f8dfe74a1a2cb52c77d10ca744b778235aa63a2e30a0d610e2a4469a4d76c6e4c2c6f82d812a701e35592a1ccd22d7db51a09e24d48c779c2969192df6f5353d81f4719338a749b63f2e0e445de7baad4da5108ea2b569b678308b0be87c8f426c4a512b3fc35ef6c5ca6fcc0816d57cf52b1b93348f5bc0a3a8073baaa46486634a977d83a108cf4137c9dfad08dd4488249212ea51ce89bc0eefcaa3558deab9975cc82fdf789557403376b4992d57004ab0aa8e8cc07214a6e1ba70f8de0aa6a3b47939fcbd92f606416146675f9e069a2051b591ff294b7945e4cf3400a0b121f45e31ae5ec2fc8904ccc66e3ff60b1f5f598f5599bb8af4645ab1cff86d3fdaf2ba6ef07d65b8de14da2cd259ef0d7a7c2db3e73d6088043c346cabc79a9b95e5f42031406d09edd1eac470c0cb61114ff85b7d3c411bd0fbbdcba7f19989a5b390e8798a84a8d722a2001cde91e339ff7e852ce4810cbd61b8ea128c092cfa2f3cc5f45b2e1e93b0dda5b6a9e144ed37a16a291ae55ce130dba9847a0715a72ff7f35c0c6d264dac8ac2f0182f4739110971727c8088387f69b2d1834b0dda8d58059aa50d7fe84813115935e75c4f2c1ea2032f55bef69a37f6311adbf933d55547ced10dee07958eac83f1275f3c6b1fb8dd2e87c06a42b23902b268dc5ff2152adc188c242c3564fe60f21d55d52e38649ae3e2bc3dbadc516521aea02c7e93d8553850f46b7bd48f3e27074657a3db2d05300705db984eea031d92cd635999caf49097d6e8825740bad4eaeabdea10f18688e1bbf56b9d90c1c27949485fe4cd5afb16c5cda1680a88e0000283eb6f09460432e0c6946432f29dee75a361fa5115af1bc6be2a6694f652259183b5fc1c8c97bc606066f649076dd5211da086e4f6d6d376d0d6719d926a9b74ff4c7c6db1ad89c64bf6e3e708310094e542d5ac854712ef6faa5ee549ec09462ef9743f7f1d6cbb67605924bbc1e1aab480df9c466930cefe4e4d88568bede4e90b20ed3aebbe3a0cc27813f8aa0be4ea0ef54ac46cb2a45163543bd43919e51856883f1ed9e5455dc77a4cd15a9e99e1c5030b8fa548c6ba5cf93608641da022fb27727f27c758e1ea43cc0746ca37c09275254d442df55e06b9af33025d3d9885fe91b887565e54c035309e58d4d929af8416c4b231817bbceb24573f402e646b61cc02e17e9a01933d73a35dfdfe804886a098a8f89c9a7cf2ea4c0a62fb911936fc1453d31dee97d4bf8c64eaabec9bb6c3866ca0ada907139b823378e35593a9649a30d0663d4a5886d93019cc798a20d0680ebff5b5b142a38e9c3c97cca1243aed6d513e7fac1a1aead470deacbee41179ed4ddbdffb3451697f518de29e3ec3150983fb92071fd29fdcd76c6a4f3a1d53713c5f0e8bee07ce946196ed3e5055f4af5893e480f399e4bff83d53ad96de075092630b5ad7178d336b3d93c0c589b6bf151e29e5e8a188495f3c02c73b25a39a7d3cc0f94d2be45e8dc2cf375135b1b381302c6610dd0f3ff9f10ef4b48f5f41fe477e9ab257011f717b7ac4bcd655ec8cf25253a8a54ec2e835ab94743781d1b7839b44a40e6302f478c6d9c177824a17cfaa1ad9344fb26fc818aff953e834e72d7c72a12e4041e5016eef2e5ca38703c79971e1addb24a47ed963d79b83c9341550be46bec75c077b0d48f4413ef35dcac78e1a3d328efe9a9d5ac4efd5389263e62c3cae4677e7edb16483cadaadaeb75bf572b1463c79f0b4ada4ef96ad730e9a7dbf69bb18ab565d5197b40775e061ed7adb5e3c32b8772ffeb9a779cac8c85e4d791c871c3e4f14dfd98804b34ca5d8d5da86d635626ceb29a86f6d4ff071c1c365276415e942de7ce7ab8c27dba1694d6da914c5b9eaf6ccf42fcf08e08d8d86ad6f4a520d5e292c78d14e80ef7354d27fffe967c64cba0f0e97daba7e5fec7832f15b7884f754647791412437f0b0ae113acd2b58d349e34fc34f528adfdaf69a55ffaa10229c753ded8e117030300605f9de6060cd60fc8fc877da58346fbc78b4a5c6cea6c4311635c0ffa10dd9b5f489712eeafb1a6b6719133811974072002df98f97923129d59feda2bbb0f6a6312658684080ed27d5141e5ecfbb1378b73a3da76981f678071ece69d42847346170303004531f940fbe7c627b5e8d9206174ebe36cc6a2f0b5a4d42701a518cf01e320731d74d9e8d933bba4fe90cd40dba6071c58112e55f71a00d5f881f596a4c86a17394a07bf141d">
      <field name="data.data" showname="Data: 170303001d2488b2c8a5098e6720b8e7e1064322041820ca..." size="2675" pos="54" show="17:03:03:00:1d:24:88:b2:c8:a5:09:8e:67:20:b8:e7:e1:06:43:22:04:18:20:ca:c4:79:bf:a8:62:85:75:53:69:03:17:03:03:09:9d:74:4f:80:eb:f9:3d:f1:60:fa:ca:48:ec:9a:d0:89:7a:5a:8f:57:2e:be:0c:9d:d9:7e:a0:0f:64:d4:12:0e:44:bd:eb:29:59:9d:49:ee:e1:31:b9:d1:14:d8:75:c4:2e:e4:48:62:57:7e:f1:c3:01:62:e1:74:c8:ba:8d:7f:f2:03:e9:03:86:42:a8:4f:53:d1:75:ac:5e:8f:15:17:70:ce:69:11:f2:a1:b9:fe:f6:13:84:9a:c5:ef:13:aa:85:8c:5c:37:0f:0c:95:d9:e3:6f:c5:e7:95:55:d7:99:bb:3f:cf:76:6a:2b:b0:ef:e1:9d:1a:8a:24:93:76:90:56:24:3e:5d:5d:71:41:21:3a:b4:b9:e5:08:1b:5b:92:44:cb:c8:0a:73:02:0c:70:ce:83:55:47:8a:4c:b3:b7:3e:18:45:75:bb:34:05:15:f7:b9:82:62:10:f7:13:16:b7:a9:7e:27:6a:f6:68:a6:35:1a:8a:33:d3:8c:af:a3:89:64:8c:fb:e3:76:ef:88:e3:8d:f0:02:55:b5:9d:fe:2b:42:51:12:80:cb:16:b1:3c:14:37:5a:6d:29:96:0d:dd:60:73:90:00:a9:3e:69:23:0e:0e:fe:af:a8:a4:fd:0f:45:cc:ef:ea:01:10:a4:4e:ef:22:7c:e5:1d:76:a8:77:cc:81:7d:ae:e6:c6:bf:45:8f:2a:89:c4:e6:dc:b1:9a:b4:7c:73:4d:c8:61:77:a1:cf:2a:8d:da:2b:0c:2e:79:52:24:9e:34:5f:b1:b3:3a:9d:61:2e:ca:7a:a6:a8:bd:22:c2:f5:9f:08:c1:b2:60:7a:3d:42:51:6d:86:9a:6a:08:38:29:16:16:5d:4a:74:47:06:74:88:75:b1:16:bc:f2:82:d1:aa:93:46:67:10:0e:ec:b4:6c:2a:b8:93:f1:b9:67:f3:7d:ab:95:c6:c9:e2:f4:9e:f0:e8:ef:50:5f:f9:af:f6:8e:2b:27:55:61:95:d6:c3:27:fe:35:89:bf:79:f7:cd:d8:9a:18:a9:fb:71:f1:ac:50:2b:bd:99:47:4c:4e:30:96:34:12:c0:f5:20:29:1f:28:c7:aa:23:5c:75:9f:98:e8:93:d7:47:a0:2b:18:b0:30:5b:07:68:f9:65:59:69:2a:f5:0c:59:d9:00:7c:83:45:79:8d:9f:a8:76:b6:74:74:d9:3c:db:c1:02:4e:9b:01:e2:e2:48:ff:22:c1:bf:9c:76:e0:ac:80:fe:cd:63:50:f6:91:0e:98:5b:36:bd:d8:a0:a7:0c:ff:dc:c6:ad:5c:04:b0:fe:17:d9:e5:85:64:9d:18:90:c1:8a:86:df:df:81:2a:0a:9a:41:f6:37:a0:62:4a:c0:d8:d2:1d:27:fc:78:6d:92:64:bd:f4:ba:36:62:76:67:33:3d:54:bb:e0:5d:99:b6:d5:1d:5a:ba:98:51:b8:2e:4b:fc:53:10:ad:f3:d8:2e:b8:c0:45:9e:8d:c5:78:db:d2:3a:01:b2:42:a0:1a:a2:2b:35:3c:94:9c:28:d5:0e:c4:26:2b:89:68:52:8e:90:a8:1b:1d:af:e2:57:4f:c2:5a:c2:c0:c0:42:be:12:c0:14:d9:98:48:1e:ad:27:7f:21:15:dd:93:c4:2a:2b:70:88:f6:34:04:80:ed:3c:8b:82:56:d5:1d:ac:e8:32:2f:f5:45:a6:4c:63:1d:93:f1:3e:76:cd:58:a7:e5:76:ad:cc:f8:8f:e5:90:09:a2:dd:b8:cd:52:31:b9:b6:fb:02:aa:97:a9:50:85:20:b2:31:58:91:cd:42:c0:1d:ce:8c:b2:3f:1c:07:0c:04:72:60:84:44:85:71:0b:eb:5e:af:46:76:f0:0a:b1:1c:75:b6:04:a5:a5:c1:65:79:a0:01:aa:a9:2f:0b:90:89:0b:b7:59:a2:d3:73:cd:80:60:e7:15:9f:9e:e5:8a:75:91:37:5f:fa:48:ee:e5:50:77:1d:be:13:f7:1a:ff:d7:29:f9:9c:66:b1:cf:64:e4:b1:0e:7c:dd:f9:a3:9a:88:6c:4a:5f:1d:86:35:ca:e6:57:f8:42:0e:a8:a7:d1:9d:7c:b8:4d:03:2e:c6:85:90:ac:66:cb:36:0f:93:b4:6c:e3:22:78:6d:92:a8:92:b2:42:e3:a0:82:d6:dd:96:43:91:80:a4:51:f5:b2:6e:f2:99:e6:31:4e:84:45:53:00:d2:b7:01:3f:42:3b:05:ed:7b:80:da:70:3e:3c:43:44:6c:e7:1c:28:f5:14:d1:34:0a:f6:9b:51:5e:bb:a2:2b:e0:df:32:fb:63:8e:98:0b:dc:96:3f:05:de:81:a8:07:4d:39:76:69:21:22:51:44:6d:0e:7e:b3:05:e7:be:99:5c:21:6f:c6:0a:5f:aa:c8:5c:b6:23:05:5c:96:24:0b:91:2b:e9:99:fc:cd:36:7f:f3:b5:90:6d:a2:ae:0c:51:52:27:3f:8a:4a:ed:08:15:b3:3a:93:c2:6d:d4:49:aa:64:1e:ac:17:e5:12:9c:46:28:e5:da:f8:56:47:95:98:ce:99:59:88:8c:29:22:14:59:6d:4d:86:81:92:8b:6e:48:9f:3e:f8:f8:85:4d:f2:7f:10:4b:10:ac:82:bb:84:54:18:eb:3a:c3:19:78:06:12:78:15:c0:c1:a1:ed:d1:7f:ab:9a:84:32:3e:4c:be:fe:c0:e2:f8:38:3b:a4:98:68:3f:8d:fe:74:a1:a2:cb:52:c7:7d:10:ca:74:4b:77:82:35:aa:63:a2:e3:0a:0d:61:0e:2a:44:69:a4:d7:6c:6e:4c:2c:6f:82:d8:12:a7:01:e3:55:92:a1:cc:d2:2d:7d:b5:1a:09:e2:4d:48:c7:79:c2:96:91:92:df:6f:53:53:d8:1f:47:19:33:8a:74:9b:63:f2:e0:e4:45:de:7b:aa:d4:da:51:08:ea:2b:56:9b:67:83:08:b0:be:87:c8:f4:26:c4:a5:12:b3:fc:35:ef:6c:5c:a6:fc:c0:81:6d:57:cf:52:b1:b9:33:48:f5:bc:0a:3a:80:73:ba:aa:46:48:66:34:a9:77:d8:3a:10:8c:f4:13:7c:9d:fa:d0:8d:d4:48:82:49:21:2e:a5:1c:e8:9b:c0:ee:fc:aa:35:58:de:ab:99:75:cc:82:fd:f7:89:55:74:03:37:6b:49:92:d5:70:04:ab:0a:a8:e8:cc:07:21:4a:6e:1b:a7:0f:8d:e0:aa:6a:3b:47:93:9f:cb:d9:2f:60:64:16:14:66:75:f9:e0:69:a2:05:1b:59:1f:f2:94:b7:94:5e:4c:f3:40:0a:0b:12:1f:45:e3:1a:e5:ec:2f:c8:90:4c:cc:66:e3:ff:60:b1:f5:f5:98:f5:59:9b:b8:af:46:45:ab:1c:ff:86:d3:fd:af:2b:a6:ef:07:d6:5b:8d:e1:4d:a2:cd:25:9e:f0:d7:a7:c2:db:3e:73:d6:08:80:43:c3:46:ca:bc:79:a9:b9:5e:5f:42:03:14:06:d0:9e:dd:1e:ac:47:0c:0c:b6:11:14:ff:85:b7:d3:c4:11:bd:0f:bb:dc:ba:7f:19:98:9a:5b:39:0e:87:98:a8:4a:8d:72:2a:20:01:cd:e9:1e:33:9f:f7:e8:52:ce:48:10:cb:d6:1b:8e:a1:28:c0:92:cf:a2:f3:cc:5f:45:b2:e1:e9:3b:0d:da:5b:6a:9e:14:4e:d3:7a:16:a2:91:ae:55:ce:13:0d:ba:98:47:a0:71:5a:72:ff:7f:35:c0:c6:d2:64:da:c8:ac:2f:01:82:f4:73:91:10:97:17:27:c8:08:83:87:f6:9b:2d:18:34:b0:dd:a8:d5:80:59:aa:50:d7:fe:84:81:31:15:93:5e:75:c4:f2:c1:ea:20:32:f5:5b:ef:69:a3:7f:63:11:ad:bf:93:3d:55:54:7c:ed:10:de:e0:79:58:ea:c8:3f:12:75:f3:c6:b1:fb:8d:d2:e8:7c:06:a4:2b:23:90:2b:26:8d:c5:ff:21:52:ad:c1:88:c2:42:c3:56:4f:e6:0f:21:d5:5d:52:e3:86:49:ae:3e:2b:c3:db:ad:c5:16:52:1a:ea:02:c7:e9:3d:85:53:85:0f:46:b7:bd:48:f3:e2:70:74:65:7a:3d:b2:d0:53:00:70:5d:b9:84:ee:a0:31:d9:2c:d6:35:99:9c:af:49:09:7d:6e:88:25:74:0b:ad:4e:ae:ab:de:a1:0f:18:68:8e:1b:bf:56:b9:d9:0c:1c:27:94:94:85:fe:4c:d5:af:b1:6c:5c:da:16:80:a8:8e:00:00:28:3e:b6:f0:94:60:43:2e:0c:69:46:43:2f:29:de:e7:5a:36:1f:a5:11:5a:f1:bc:6b:e2:a6:69:4f:65:22:59:18:3b:5f:c1:c8:c9:7b:c6:06:06:6f:64:90:76:dd:52:11:da:08:6e:4f:6d:6d:37:6d:0d:67:19:d9:26:a9:b7:4f:f4:c7:c6:db:1a:d8:9c:64:bf:6e:3e:70:83:10:09:4e:54:2d:5a:c8:54:71:2e:f6:fa:a5:ee:54:9e:c0:94:62:ef:97:43:f7:f1:d6:cb:b6:76:05:92:4b:bc:1e:1a:ab:48:0d:f9:c4:66:93:0c:ef:e4:e4:d8:85:68:be:de:4e:90:b2:0e:d3:ae:bb:e3:a0:cc:27:81:3f:8a:a0:be:4e:a0:ef:54:ac:46:cb:2a:45:16:35:43:bd:43:91:9e:51:85:68:83:f1:ed:9e:54:55:dc:77:a4:cd:15:a9:e9:9e:1c:50:30:b8:fa:54:8c:6b:a5:cf:93:60:86:41:da:02:2f:b2:77:27:f2:7c:75:8e:1e:a4:3c:c0:74:6c:a3:7c:09:27:52:54:d4:42:df:55:e0:6b:9a:f3:30:25:d3:d9:88:5f:e9:1b:88:75:65:e5:4c:03:53:09:e5:8d:4d:92:9a:f8:41:6c:4b:23:18:17:bb:ce:b2:45:73:f4:02:e6:46:b6:1c:c0:2e:17:e9:a0:19:33:d7:3a:35:df:df:e8:04:88:6a:09:8a:8f:89:c9:a7:cf:2e:a4:c0:a6:2f:b9:11:93:6f:c1:45:3d:31:de:e9:7d:4b:f8:c6:4e:aa:be:c9:bb:6c:38:66:ca:0a:da:90:71:39:b8:23:37:8e:35:59:3a:96:49:a3:0d:06:63:d4:a5:88:6d:93:01:9c:c7:98:a2:0d:06:80:eb:ff:5b:5b:14:2a:38:e9:c3:c9:7c:ca:12:43:ae:d6:d5:13:e7:fa:c1:a1:ae:ad:47:0d:ea:cb:ee:41:17:9e:d4:dd:bd:ff:b3:45:16:97:f5:18:de:29:e3:ec:31:50:98:3f:b9:20:71:fd:29:fd:cd:76:c6:a4:f3:a1:d5:37:13:c5:f0:e8:be:e0:7c:e9:46:19:6e:d3:e5:05:5f:4a:f5:89:3e:48:0f:39:9e:4b:ff:83:d5:3a:d9:6d:e0:75:09:26:30:b5:ad:71:78:d3:36:b3:d9:3c:0c:58:9b:6b:f1:51:e2:9e:5e:8a:18:84:95:f3:c0:2c:73:b2:5a:39:a7:d3:cc:0f:94:d2:be:45:e8:dc:2c:f3:75:13:5b:1b:38:13:02:c6:61:0d:d0:f3:ff:9f:10:ef:4b:48:f5:f4:1f:e4:77:e9:ab:25:70:11:f7:17:b7:ac:4b:cd:65:5e:c8:cf:25:25:3a:8a:54:ec:2e:83:5a:b9:47:43:78:1d:1b:78:39:b4:4a:40:e6:30:2f:47:8c:6d:9c:17:78:24:a1:7c:fa:a1:ad:93:44:fb:26:fc:81:8a:ff:95:3e:83:4e:72:d7:c7:2a:12:e4:04:1e:50:16:ee:f2:e5:ca:38:70:3c:79:97:1e:1a:dd:b2:4a:47:ed:96:3d:79:b8:3c:93:41:55:0b:e4:6b:ec:75:c0:77:b0:d4:8f:44:13:ef:35:dc:ac:78:e1:a3:d3:28:ef:e9:a9:d5:ac:4e:fd:53:89:26:3e:62:c3:ca:e4:67:7e:7e:db:16:48:3c:ad:aa:da:eb:75:bf:57:2b:14:63:c7:9f:0b:4a:da:4e:f9:6a:d7:30:e9:a7:db:f6:9b:b1:8a:b5:65:d5:19:7b:40:77:5e:06:1e:d7:ad:b5:e3:c3:2b:87:72:ff:eb:9a:77:9c:ac:8c:85:e4:d7:91:c8:71:c3:e4:f1:4d:fd:98:80:4b:34:ca:5d:8d:5d:a8:6d:63:56:26:ce:b2:9a:86:f6:d4:ff:07:1c:1c:36:52:76:41:5e:94:2d:e7:ce:7a:b8:c2:7d:ba:16:94:d6:da:91:4c:5b:9e:af:6c:cf:42:fc:f0:8e:08:d8:d8:6a:d6:f4:a5:20:d5:e2:92:c7:8d:14:e8:0e:f7:35:4d:27:ff:fe:96:7c:64:cb:a0:f0:e9:7d:ab:a7:e5:fe:c7:83:2f:15:b7:88:4f:75:46:47:79:14:12:43:7f:0b:0a:e1:13:ac:d2:b5:8d:34:9e:34:fc:34:f5:28:ad:fd:af:69:a5:5f:fa:a1:02:29:c7:53:de:d8:e1:17:03:03:00:60:5f:9d:e6:06:0c:d6:0f:c8:fc:87:7d:a5:83:46:fb:c7:8b:4a:5c:6c:ea:6c:43:11:63:5c:0f:fa:10:dd:9b:5f:48:97:12:ee:af:b1:a6:b6:71:91:33:81:19:74:07:20:02:df:98:f9:79:23:12:9d:59:fe:da:2b:bb:0f:6a:63:12:65:86:84:08:0e:d2:7d:51:41:e5:ec:fb:b1:37:8b:73:a3:da:76:98:1f:67:80:71:ec:e6:9d:42:84:73:46:17:03:03:00:45:31:f9:40:fb:e7:c6:27:b5:e8:d9:20:61:74:eb:e3:6c:c6:a2:f0:b5:a4:d4:27:01:a5:18:cf:01:e3:20:73:1d:74:d9:e8:d9:33:bb:a4:fe:90:cd:40:db:a6:07:1c:58:11:2e:55:f7:1a:00:d5:f8:81:f5:96:a4:c8:6a:17:39:4a:07:bf:14:1d" value="170303001d2488b2c8a5098e6720b8e7e1064322041820cac479bfa8628575536903170303099d744f80ebf93df160faca48ec9ad0897a5a8f572ebe0c9dd97ea00f64d4120e44bdeb29599d49eee131b9d114d875c42ee44862577ef1c30162e174c8ba8d7ff203e9038642a84f53d175ac5e8f151770ce6911f2a1b9fef613849ac5ef13aa858c5c370f0c95d9e36fc5e79555d799bb3fcf766a2bb0efe19d1a8a2493769056243e5d5d7141213ab4b9e5081b5b9244cbc80a73020c70ce8355478a4cb3b73e184575bb340515f7b9826210f71316b7a97e276af668a6351a8a33d38cafa389648cfbe376ef88e38df00255b59dfe2b42511280cb16b13c14375a6d29960ddd60739000a93e69230e0efeafa8a4fd0f45ccefea0110a44eef227ce51d76a877cc817daee6c6bf458f2a89c4e6dcb19ab47c734dc86177a1cf2a8dda2b0c2e7952249e345fb1b33a9d612eca7aa6a8bd22c2f59f08c1b2607a3d42516d869a6a08382916165d4a744706748875b116bcf282d1aa934667100eecb46c2ab893f1b967f37dab95c6c9e2f49ef0e8ef505ff9aff68e2b27556195d6c327fe3589bf79f7cdd89a18a9fb71f1ac502bbd99474c4e30963412c0f520291f28c7aa235c759f98e893d747a02b18b0305b0768f96559692af50c59d9007c8345798d9fa876b67474d93cdbc1024e9b01e2e248ff22c1bf9c76e0ac80fecd6350f6910e985b36bdd8a0a70cffdcc6ad5c04b0fe17d9e585649d1890c18a86dfdf812a0a9a41f637a0624ac0d8d21d27fc786d9264bdf4ba36627667333d54bbe05d99b6d51d5aba9851b82e4bfc5310adf3d82eb8c0459e8dc578dbd23a01b242a01aa22b353c949c28d50ec4262b8968528e90a81b1dafe2574fc25ac2c0c042be12c014d998481ead277f2115dd93c42a2b7088f6340480ed3c8b8256d51dace8322ff545a64c631d93f13e76cd58a7e576adccf88fe59009a2ddb8cd5231b9b6fb02aa97a9508520b2315891cd42c01dce8cb23f1c070c047260844485710beb5eaf4676f00ab11c75b604a5a5c16579a001aaa92f0b90890bb759a2d373cd8060e7159f9ee58a7591375ffa48eee550771dbe13f71affd729f99c66b1cf64e4b10e7cddf9a39a886c4a5f1d8635cae657f8420ea8a7d19d7cb84d032ec68590ac66cb360f93b46ce322786d92a892b242e3a082d6dd96439180a451f5b26ef299e6314e84455300d2b7013f423b05ed7b80da703e3c43446ce71c28f514d1340af69b515ebba22be0df32fb638e980bdc963f05de81a8074d397669212251446d0e7eb305e7be995c216fc60a5faac85cb623055c96240b912be999fccd367ff3b5906da2ae0c5152273f8a4aed0815b33a93c26dd449aa641eac17e5129c4628e5daf856479598ce9959888c292214596d4d8681928b6e489f3ef8f8854df27f104b10ac82bb845418eb3ac3197806127815c0c1a1edd17fab9a84323e4cbefec0e2f8383ba498683f8dfe74a1a2cb52c77d10ca744b778235aa63a2e30a0d610e2a4469a4d76c6e4c2c6f82d812a701e35592a1ccd22d7db51a09e24d48c779c2969192df6f5353d81f4719338a749b63f2e0e445de7baad4da5108ea2b569b678308b0be87c8f426c4a512b3fc35ef6c5ca6fcc0816d57cf52b1b93348f5bc0a3a8073baaa46486634a977d83a108cf4137c9dfad08dd4488249212ea51ce89bc0eefcaa3558deab9975cc82fdf789557403376b4992d57004ab0aa8e8cc07214a6e1ba70f8de0aa6a3b47939fcbd92f606416146675f9e069a2051b591ff294b7945e4cf3400a0b121f45e31ae5ec2fc8904ccc66e3ff60b1f5f598f5599bb8af4645ab1cff86d3fdaf2ba6ef07d65b8de14da2cd259ef0d7a7c2db3e73d6088043c346cabc79a9b95e5f42031406d09edd1eac470c0cb61114ff85b7d3c411bd0fbbdcba7f19989a5b390e8798a84a8d722a2001cde91e339ff7e852ce4810cbd61b8ea128c092cfa2f3cc5f45b2e1e93b0dda5b6a9e144ed37a16a291ae55ce130dba9847a0715a72ff7f35c0c6d264dac8ac2f0182f4739110971727c8088387f69b2d1834b0dda8d58059aa50d7fe84813115935e75c4f2c1ea2032f55bef69a37f6311adbf933d55547ced10dee07958eac83f1275f3c6b1fb8dd2e87c06a42b23902b268dc5ff2152adc188c242c3564fe60f21d55d52e38649ae3e2bc3dbadc516521aea02c7e93d8553850f46b7bd48f3e27074657a3db2d05300705db984eea031d92cd635999caf49097d6e8825740bad4eaeabdea10f18688e1bbf56b9d90c1c27949485fe4cd5afb16c5cda1680a88e0000283eb6f09460432e0c6946432f29dee75a361fa5115af1bc6be2a6694f652259183b5fc1c8c97bc606066f649076dd5211da086e4f6d6d376d0d6719d926a9b74ff4c7c6db1ad89c64bf6e3e708310094e542d5ac854712ef6faa5ee549ec09462ef9743f7f1d6cbb67605924bbc1e1aab480df9c466930cefe4e4d88568bede4e90b20ed3aebbe3a0cc27813f8aa0be4ea0ef54ac46cb2a45163543bd43919e51856883f1ed9e5455dc77a4cd15a9e99e1c5030b8fa548c6ba5cf93608641da022fb27727f27c758e1ea43cc0746ca37c09275254d442df55e06b9af33025d3d9885fe91b887565e54c035309e58d4d929af8416c4b231817bbceb24573f402e646b61cc02e17e9a01933d73a35dfdfe804886a098a8f89c9a7cf2ea4c0a62fb911936fc1453d31dee97d4bf8c64eaabec9bb6c3866ca0ada907139b823378e35593a9649a30d0663d4a5886d93019cc798a20d0680ebff5b5b142a38e9c3c97cca1243aed6d513e7fac1a1aead470deacbee41179ed4ddbdffb3451697f518de29e3ec3150983fb92071fd29fdcd76c6a4f3a1d53713c5f0e8bee07ce946196ed3e5055f4af5893e480f399e4bff83d53ad96de075092630b5ad7178d336b3d93c0c589b6bf151e29e5e8a188495f3c02c73b25a39a7d3cc0f94d2be45e8dc2cf375135b1b381302c6610dd0f3ff9f10ef4b48f5f41fe477e9ab257011f717b7ac4bcd655ec8cf25253a8a54ec2e835ab94743781d1b7839b44a40e6302f478c6d9c177824a17cfaa1ad9344fb26fc818aff953e834e72d7c72a12e4041e5016eef2e5ca38703c79971e1addb24a47ed963d79b83c9341550be46bec75c077b0d48f4413ef35dcac78e1a3d328efe9a9d5ac4efd5389263e62c3cae4677e7edb16483cadaadaeb75bf572b1463c79f0b4ada4ef96ad730e9a7dbf69bb18ab565d5197b40775e061ed7adb5e3c32b8772ffeb9a779cac8c85e4d791c871c3e4f14dfd98804b34ca5d8d5da86d635626ceb29a86f6d4ff071c1c365276415e942de7ce7ab8c27dba1694d6da914c5b9eaf6ccf42fcf08e08d8d86ad6f4a520d5e292c78d14e80ef7354d27fffe967c64cba0f0e97daba7e5fec7832f15b7884f754647791412437f0b0ae113acd2b58d349e34fc34f528adfdaf69a55ffaa10229c753ded8e117030300605f9de6060cd60fc8fc877da58346fbc78b4a5c6cea6c4311635c0ffa10dd9b5f489712eeafb1a6b6719133811974072002df98f97923129d59feda2bbb0f6a6312658684080ed27d5141e5ecfbb1378b73a3da76981f678071ece69d42847346170303004531f940fbe7c627b5e8d9206174ebe36cc6a2f0b5a4d42701a518cf01e320731d74d9e8d933bba4fe90cd40dba6071c58112e55f71a00d5f881f596a4c86a17394a07bf141d"/>
      <field name="data.len" showname="Length: 2675" size="0" pos="54" show="2675"/>
  </field>
</proto>
</packet>


<packet>
  <proto name="geninfo" pos="0" showname="General information" size="54">
    <field name="num" pos="0" show="9" showname="Number" value="9" size="54"/>
    <field name="len" pos="0" show="54" showname="Frame Length" value="36" size="54"/>
    <field name="caplen" pos="0" show="54" showname="Captured Length" value="36" size="54"/>
    <field name="timestamp" pos="0" show="Jun 27, 2019 12:20:58.499179000 CEST" showname="Captured Time" value="1561630858.499179000" size="54"/>
  </proto>
  <proto name="frame" showname="Frame 9: 54 bytes on wire (432 bits), 54 bytes captured (432 bits) on interface 0" size="54" pos="0">
    <field name="frame.interface_id" showname="Interface id: 0" size="0" pos="0" show="0"/>
    <field name="frame.encap_type" showname="Encapsulation type: Ethernet (1)" size="0" pos="0" show="1"/>
    <field name="frame.time" showname="Arrival Time: Jun 27, 2019 12:20:58.499179000 CEST" size="0" pos="0" show="&quot;Jun 27, 2019 12:20:58.499179000 CEST&quot;"/>
    <field name="frame.offset_shift" showname="Time shift for this packet: 0.000000000 seconds" size="0" pos="0" show="0.000000000"/>
    <field name="frame.time_epoch" showname="Epoch Time: 1561630858.499179000 seconds" size="0" pos="0" show="1561630858.499179000"/>
    <field name="frame.time_delta" showname="Time delta from previous captured frame: 0.000023000 seconds" size="0" pos="0" show="0.000023000"/>
    <field name="frame.time_delta_displayed" showname="Time delta from previous displayed frame: 0.000023000 seconds" size="0" pos="0" show="0.000023000"/>
    <field name="frame.time_relative" showname="Time since reference or first frame: 0.009829000 seconds" size="0" pos="0" show="0.009829000"/>
    <field name="frame.number" showname="Frame Number: 9" size="0" pos="0" show="9"/>
    <field name="frame.len" showname="Frame Length: 54 bytes (432 bits)" size="0" pos="0" show="54"/>
    <field name="frame.cap_len" showname="Capture Length: 54 bytes (432 bits)" size="0" pos="0" show="54"/>
    <field name="frame.marked" showname="Frame is marked: False" size="0" pos="0" show="0"/>
    <field name="frame.ignored" showname="Frame is ignored: False" size="0" pos="0" show="0"/>
    <field name="frame.protocols" showname="Protocols in frame: eth:ip:tcp" size="0" pos="0" show="eth:ip:tcp"/>
  </proto>
  <proto name="eth" showname="Ethernet II, Src: 02:42:ac:11:00:02 (02:42:ac:11:00:02), Dst: 02:42:71:12:56:af (02:42:71:12:56:af)" size="14" pos="0">
    <field name="eth.dst" showname="Destination: 02:42:71:12:56:af (02:42:71:12:56:af)" size="6" pos="0" show="02:42:71:12:56:af" value="0242711256af">
      <field name="eth.addr" showname="Address: 02:42:71:12:56:af (02:42:71:12:56:af)" size="6" pos="0" show="02:42:71:12:56:af" value="0242711256af"/>
      <field name="eth.lg" showname=".... ..1. .... .... .... .... = LG bit: Locally administered address (this is NOT the factory default)" size="3" pos="0" show="1" value="1" unmaskedvalue="024271"/>
      <field name="eth.ig" showname=".... ...0 .... .... .... .... = IG bit: Individual address (unicast)" size="3" pos="0" show="0" value="0" unmaskedvalue="024271"/>
    </field>
    <field name="eth.src" showname="Source: 02:42:ac:11:00:02 (02:42:ac:11:00:02)" size="6" pos="6" show="02:42:ac:11:00:02" value="0242ac110002">
      <field name="eth.addr" showname="Address: 02:42:ac:11:00:02 (02:42:ac:11:00:02)" size="6" pos="6" show="02:42:ac:11:00:02" value="0242ac110002"/>
      <field name="eth.lg" showname=".... ..1. .... .... .... .... = LG bit: Locally administered address (this is NOT the factory default)" size="3" pos="6" show="1" value="1" unmaskedvalue="0242ac"/>
      <field name="eth.ig" showname=".... ...0 .... .... .... .... = IG bit: Individual address (unicast)" size="3" pos="6" show="0" value="0" unmaskedvalue="0242ac"/>
    </field>
    <field name="eth.type" showname="Type: IP (0x0800)" size="2" pos="12" show="2048" value="0800"/>
  </proto>
  <proto name="ip" showname="Internet Protocol Version 4, Src: 172.17.0.2 (172.17.0.2), Dst: 1.1.1.1 (1.1.1.1)" size="20" pos="14">
    <field name="ip.version" showname="Version: 4" size="1" pos="14" show="4" value="45"/>
    <field name="ip.hdr_len" showname="Header length: 20 bytes" size="1" pos="14" show="20" value="45"/>
    <field name="ip.dsfield" showname="Differentiated Services Field: 0x00 (DSCP 0x00: Default; ECN: 0x00: Not-ECT (Not ECN-Capable Transport))" size="1" pos="15" show="0" value="00">
      <field name="ip.dsfield.dscp" showname="0000 00.. = Differentiated Services Codepoint: Default (0x00)" size="1" pos="15" show="0" value="0" unmaskedvalue="00"/>
      <field name="ip.dsfield.ecn" showname=".... ..00 = Explicit Congestion Notification: Not-ECT (Not ECN-Capable Transport) (0x00)" size="1" pos="15" show="0" value="0" unmaskedvalue="00"/>
    </field>
    <field name="ip.len" showname="Total Length: 40" size="2" pos="16" show="40" value="0028"/>
    <field name="ip.id" showname="Identification: 0xe77e (59262)" size="2" pos="18" show="59262" value="e77e"/>
    <field name="ip.flags" showname="Flags: 0x02 (Don&apos;t Fragment)" size="1" pos="20" show="2" value="40">
      <field name="ip.flags.rb" showname="0... .... = Reserved bit: Not set" size="1" pos="20" show="0" value="40"/>
      <field name="ip.flags.df" showname=".1.. .... = Don&apos;t fragment: Set" size="1" pos="20" show="1" value="40"/>
      <field name="ip.flags.mf" showname="..0. .... = More fragments: Not set" size="1" pos="20" show="0" value="40"/>
    </field>
    <field name="ip.frag_offset" showname="Fragment offset: 0" size="2" pos="20" show="0" value="4000"/>
    <field name="ip.ttl" showname="Time to live: 64" size="1" pos="22" show="64" value="40"/>
    <field name="ip.proto" showname="Protocol: TCP (6)" size="1" pos="23" show="6" value="06"/>
    <field name="ip.checksum" showname="Header checksum: 0xa53c [validation disabled]" size="2" pos="24" show="42300" value="a53c">
      <field name="ip.checksum_good" showname="Good: False" size="2" pos="24" show="0" value="a53c"/>
      <field name="ip.checksum_bad" showname="Bad: False" size="2" pos="24" show="0" value="a53c"/>
    </field>
    <field name="ip.src" showname="Source: 172.17.0.2 (172.17.0.2)" size="4" pos="26" show="172.17.0.2" value="ac110002"/>
    <field name="ip.addr" showname="Source or Destination Address: 172.17.0.2 (172.17.0.2)" hide="yes" size="4" pos="26" show="172.17.0.2" value="ac110002"/>
    <field name="ip.src_host" showname="Source Host: 172.17.0.2" hide="yes" size="4" pos="26" show="172.17.0.2" value="ac110002"/>
    <field name="ip.host" showname="Source or Destination Host: 172.17.0.2" hide="yes" size="4" pos="26" show="172.17.0.2" value="ac110002"/>
    <field name="ip.dst" showname="Destination: 1.1.1.1 (1.1.1.1)" size="4" pos="30" show="1.1.1.1" value="01010101"/>
    <field name="ip.addr" showname="Source or Destination Address: 1.1.1.1 (1.1.1.1)" hide="yes" size="4" pos="30" show="1.1.1.1" value="01010101"/>
    <field name="ip.dst_host" showname="Destination Host: 1.1.1.1" hide="yes" size="4" pos="30" show="1.1.1.1" value="01010101"/>
    <field name="ip.host" showname="Source or Destination Host: 1.1.1.1" hide="yes" size="4" pos="30" show="1.1.1.1" value="01010101"/>
  </proto>
  <proto name="tcp" showname="Transmission Control Protocol, Src Port: 59682 (59682), Dst Port: 853 (853), Seq: 338, Ack: 2810, Len: 0" size="20" pos="34">
    <field name="tcp.srcport" showname="Source port: 59682 (59682)" size="2" pos="34" show="59682" value="e922"/>
    <field name="tcp.dstport" showname="Destination port: 853 (853)" size="2" pos="36" show="853" value="0355"/>
    <field name="tcp.port" showname="Source or Destination Port: 59682" hide="yes" size="2" pos="34" show="59682" value="e922"/>
    <field name="tcp.port" showname="Source or Destination Port: 853" hide="yes" size="2" pos="36" show="853" value="0355"/>
    <field name="tcp.stream" showname="Stream index: 0" size="0" pos="34" show="0"/>
    <field name="tcp.len" showname="TCP Segment Len: 0" hide="yes" size="1" pos="46" show="0" value="50"/>
    <field name="tcp.seq" showname="Sequence number: 338    (relative sequence number)" size="4" pos="38" show="338" value="11b68abc"/>
    <field name="tcp.ack" showname="Acknowledgment number: 2810    (relative ack number)" size="4" pos="42" show="2810" value="a0d8c963"/>
    <field name="tcp.hdr_len" showname="Header length: 20 bytes" size="1" pos="46" show="20" value="50"/>
    <field name="tcp.flags" showname="Flags: 0x010 (ACK)" size="2" pos="46" show="16" value="10" unmaskedvalue="5010">
      <field name="tcp.flags.res" showname="000. .... .... = Reserved: Not set" size="1" pos="46" show="0" value="0" unmaskedvalue="50"/>
      <field name="tcp.flags.ns" showname="...0 .... .... = Nonce: Not set" size="1" pos="46" show="0" value="0" unmaskedvalue="50"/>
      <field name="tcp.flags.cwr" showname=".... 0... .... = Congestion Window Reduced (CWR): Not set" size="1" pos="47" show="0" value="0" unmaskedvalue="10"/>
      <field name="tcp.flags.ecn" showname=".... .0.. .... = ECN-Echo: Not set" size="1" pos="47" show="0" value="0" unmaskedvalue="10"/>
      <field name="tcp.flags.urg" showname=".... ..0. .... = Urgent: Not set" size="1" pos="47" show="0" value="0" unmaskedvalue="10"/>
      <field name="tcp.flags.ack" showname=".... ...1 .... = Acknowledgment: Set" size="1" pos="47" show="1" value="1" unmaskedvalue="10"/>
      <field name="tcp.flags.push" showname=".... .... 0... = Push: Not set" size="1" pos="47" show="0" value="0" unmaskedvalue="10"/>
      <field name="tcp.flags.reset" showname=".... .... .0.. = Reset: Not set" size="1" pos="47" show="0" value="0" unmaskedvalue="10"/>
      <field name="tcp.flags.syn" showname=".... .... ..0. = Syn: Not set" size="1" pos="47" show="0" value="0" unmaskedvalue="10"/>
      <field name="tcp.flags.fin" showname=".... .... ...0 = Fin: Not set" size="1" pos="47" show="0" value="0" unmaskedvalue="10"/>
    </field>
    <field name="tcp.window_size_value" showname="Window size value: 279" size="2" pos="48" show="279" value="0117"/>
    <field name="tcp.window_size" showname="Calculated window size: 35712" size="2" pos="48" show="35712" value="0117"/>
    <field name="tcp.window_size_scalefactor" showname="Window size scaling factor: 128" size="2" pos="48" show="128" value="0117"/>
    <field name="tcp.checksum" showname="Checksum: 0xae2f [validation disabled]" size="2" pos="50" show="44591" value="ae2f">
      <field name="tcp.checksum_good" showname="Good Checksum: False" size="2" pos="50" show="0" value="ae2f"/>
      <field name="tcp.checksum_bad" showname="Bad Checksum: False" size="2" pos="50" show="0" value="ae2f"/>
    </field>
    <field name="tcp.analysis" showname="SEQ/ACK analysis" size="0" pos="34" show="" value="">
      <field name="tcp.analysis.acks_frame" showname="This is an ACK to the segment in frame: 8" size="0" pos="34" show="8"/>
      <field name="tcp.analysis.ack_rtt" showname="The RTT to ACK the segment was: 0.000023000 seconds" size="0" pos="34" show="0.000023000"/>
    </field>
  </proto>
</packet>


<packet>
  <proto name="geninfo" pos="0" showname="General information" size="295">
    <field name="num" pos="0" show="10" showname="Number" value="a" size="295"/>
    <field name="len" pos="0" show="295" showname="Frame Length" value="127" size="295"/>
    <field name="caplen" pos="0" show="295" showname="Captured Length" value="127" size="295"/>
    <field name="timestamp" pos="0" show="Jun 27, 2019 12:20:58.499267000 CEST" showname="Captured Time" value="1561630858.499267000" size="295"/>
  </proto>
  <proto name="frame" showname="Frame 10: 295 bytes on wire (2360 bits), 295 bytes captured (2360 bits) on interface 0" size="295" pos="0">
    <field name="frame.interface_id" showname="Interface id: 0" size="0" pos="0" show="0"/>
    <field name="frame.encap_type" showname="Encapsulation type: Ethernet (1)" size="0" pos="0" show="1"/>
    <field name="frame.time" showname="Arrival Time: Jun 27, 2019 12:20:58.499267000 CEST" size="0" pos="0" show="&quot;Jun 27, 2019 12:20:58.499267000 CEST&quot;"/>
    <field name="frame.offset_shift" showname="Time shift for this packet: 0.000000000 seconds" size="0" pos="0" show="0.000000000"/>
    <field name="frame.time_epoch" showname="Epoch Time: 1561630858.499267000 seconds" size="0" pos="0" show="1561630858.499267000"/>
    <field name="frame.time_delta" showname="Time delta from previous captured frame: 0.000088000 seconds" size="0" pos="0" show="0.000088000"/>
    <field name="frame.time_delta_displayed" showname="Time delta from previous displayed frame: 0.000088000 seconds" size="0" pos="0" show="0.000088000"/>
    <field name="frame.time_relative" showname="Time since reference or first frame: 0.009917000 seconds" size="0" pos="0" show="0.009917000"/>
    <field name="frame.number" showname="Frame Number: 10" size="0" pos="0" show="10"/>
    <field name="frame.len" showname="Frame Length: 295 bytes (2360 bits)" size="0" pos="0" show="295"/>
    <field name="frame.cap_len" showname="Capture Length: 295 bytes (2360 bits)" size="0" pos="0" show="295"/>
    <field name="frame.marked" showname="Frame is marked: False" size="0" pos="0" show="0"/>
    <field name="frame.ignored" showname="Frame is ignored: False" size="0" pos="0" show="0"/>
    <field name="frame.protocols" showname="Protocols in frame: eth:ip:tcp:data" size="0" pos="0" show="eth:ip:tcp:data"/>
  </proto>
  <proto name="eth" showname="Ethernet II, Src: 02:42:71:12:56:af (02:42:71:12:56:af), Dst: 02:42:ac:11:00:02 (02:42:ac:11:00:02)" size="14" pos="0">
    <field name="eth.dst" showname="Destination: 02:42:ac:11:00:02 (02:42:ac:11:00:02)" size="6" pos="0" show="02:42:ac:11:00:02" value="0242ac110002">
      <field name="eth.addr" showname="Address: 02:42:ac:11:00:02 (02:42:ac:11:00:02)" size="6" pos="0" show="02:42:ac:11:00:02" value="0242ac110002"/>
      <field name="eth.lg" showname=".... ..1. .... .... .... .... = LG bit: Locally administered address (this is NOT the factory default)" size="3" pos="0" show="1" value="1" unmaskedvalue="0242ac"/>
      <field name="eth.ig" showname=".... ...0 .... .... .... .... = IG bit: Individual address (unicast)" size="3" pos="0" show="0" value="0" unmaskedvalue="0242ac"/>
    </field>
    <field name="eth.src" showname="Source: 02:42:71:12:56:af (02:42:71:12:56:af)" size="6" pos="6" show="02:42:71:12:56:af" value="0242711256af">
      <field name="eth.addr" showname="Address: 02:42:71:12:56:af (02:42:71:12:56:af)" size="6" pos="6" show="02:42:71:12:56:af" value="0242711256af"/>
      <field name="eth.lg" showname=".... ..1. .... .... .... .... = LG bit: Locally administered address (this is NOT the factory default)" size="3" pos="6" show="1" value="1" unmaskedvalue="024271"/>
      <field name="eth.ig" showname=".... ...0 .... .... .... .... = IG bit: Individual address (unicast)" size="3" pos="6" show="0" value="0" unmaskedvalue="024271"/>
    </field>
    <field name="eth.type" showname="Type: IP (0x0800)" size="2" pos="12" show="2048" value="0800"/>
  </proto>
  <proto name="ip" showname="Internet Protocol Version 4, Src: 1.1.1.1 (1.1.1.1), Dst: 172.17.0.2 (172.17.0.2)" size="20" pos="14">
    <field name="ip.version" showname="Version: 4" size="1" pos="14" show="4" value="45"/>
    <field name="ip.hdr_len" showname="Header length: 20 bytes" size="1" pos="14" show="20" value="45"/>
    <field name="ip.dsfield" showname="Differentiated Services Field: 0x00 (DSCP 0x00: Default; ECN: 0x00: Not-ECT (Not ECN-Capable Transport))" size="1" pos="15" show="0" value="00">
      <field name="ip.dsfield.dscp" showname="0000 00.. = Differentiated Services Codepoint: Default (0x00)" size="1" pos="15" show="0" value="0" unmaskedvalue="00"/>
      <field name="ip.dsfield.ecn" showname=".... ..00 = Explicit Congestion Notification: Not-ECT (Not ECN-Capable Transport) (0x00)" size="1" pos="15" show="0" value="0" unmaskedvalue="00"/>
    </field>
    <field name="ip.len" showname="Total Length: 281" size="2" pos="16" show="281" value="0119"/>
    <field name="ip.id" showname="Identification: 0x6dbc (28092)" size="2" pos="18" show="28092" value="6dbc"/>
    <field name="ip.flags" showname="Flags: 0x02 (Don&apos;t Fragment)" size="1" pos="20" show="2" value="40">
      <field name="ip.flags.rb" showname="0... .... = Reserved bit: Not set" size="1" pos="20" show="0" value="40"/>
      <field name="ip.flags.df" showname=".1.. .... = Don&apos;t fragment: Set" size="1" pos="20" show="1" value="40"/>
      <field name="ip.flags.mf" showname="..0. .... = More fragments: Not set" size="1" pos="20" show="0" value="40"/>
    </field>
    <field name="ip.frag_offset" showname="Fragment offset: 0" size="2" pos="20" show="0" value="4000"/>
    <field name="ip.ttl" showname="Time to live: 57" size="1" pos="22" show="57" value="39"/>
    <field name="ip.proto" showname="Protocol: TCP (6)" size="1" pos="23" show="6" value="06"/>
    <field name="ip.checksum" showname="Header checksum: 0x250e [validation disabled]" size="2" pos="24" show="9486" value="250e">
      <field name="ip.checksum_good" showname="Good: False" size="2" pos="24" show="0" value="250e"/>
      <field name="ip.checksum_bad" showname="Bad: False" size="2" pos="24" show="0" value="250e"/>
    </field>
    <field name="ip.src" showname="Source: 1.1.1.1 (1.1.1.1)" size="4" pos="26" show="1.1.1.1" value="01010101"/>
    <field name="ip.addr" showname="Source or Destination Address: 1.1.1.1 (1.1.1.1)" hide="yes" size="4" pos="26" show="1.1.1.1" value="01010101"/>
    <field name="ip.src_host" showname="Source Host: 1.1.1.1" hide="yes" size="4" pos="26" show="1.1.1.1" value="01010101"/>
    <field name="ip.host" showname="Source or Destination Host: 1.1.1.1" hide="yes" size="4" pos="26" show="1.1.1.1" value="01010101"/>
    <field name="ip.dst" showname="Destination: 172.17.0.2 (172.17.0.2)" size="4" pos="30" show="172.17.0.2" value="ac110002"/>
    <field name="ip.addr" showname="Source or Destination Address: 172.17.0.2 (172.17.0.2)" hide="yes" size="4" pos="30" show="172.17.0.2" value="ac110002"/>
    <field name="ip.dst_host" showname="Destination Host: 172.17.0.2" hide="yes" size="4" pos="30" show="172.17.0.2" value="ac110002"/>
    <field name="ip.host" showname="Source or Destination Host: 172.17.0.2" hide="yes" size="4" pos="30" show="172.17.0.2" value="ac110002"/>
  </proto>
  <proto name="tcp" showname="Transmission Control Protocol, Src Port: 853 (853), Dst Port: 59682 (59682), Seq: 2810, Ack: 338, Len: 241" size="20" pos="34">
    <field name="tcp.srcport" showname="Source port: 853 (853)" size="2" pos="34" show="853" value="0355"/>
    <field name="tcp.dstport" showname="Destination port: 59682 (59682)" size="2" pos="36" show="59682" value="e922"/>
    <field name="tcp.port" showname="Source or Destination Port: 853" hide="yes" size="2" pos="34" show="853" value="0355"/>
    <field name="tcp.port" showname="Source or Destination Port: 59682" hide="yes" size="2" pos="36" show="59682" value="e922"/>
    <field name="tcp.stream" showname="Stream index: 0" size="0" pos="34" show="0"/>
    <field name="tcp.len" showname="TCP Segment Len: 241" hide="yes" size="1" pos="46" show="241" value="50"/>
    <field name="tcp.seq" showname="Sequence number: 2810    (relative sequence number)" size="4" pos="38" show="2810" value="a0d8c963"/>
    <field name="tcp.nxtseq" showname="Next sequence number: 3051    (relative sequence number)" size="0" pos="34" show="3051"/>
    <field name="tcp.ack" showname="Acknowledgment number: 338    (relative ack number)" size="4" pos="42" show="338" value="11b68abc"/>
    <field name="tcp.hdr_len" showname="Header length: 20 bytes" size="1" pos="46" show="20" value="50"/>
    <field name="tcp.flags" showname="Flags: 0x018 (PSH, ACK)" size="2" pos="46" show="24" value="18" unmaskedvalue="5018">
      <field name="tcp.flags.res" showname="000. .... .... = Reserved: Not set" size="1" pos="46" show="0" value="0" unmaskedvalue="50"/>
      <field name="tcp.flags.ns" showname="...0 .... .... = Nonce: Not set" size="1" pos="46" show="0" value="0" unmaskedvalue="50"/>
      <field name="tcp.flags.cwr" showname=".... 0... .... = Congestion Window Reduced (CWR): Not set" size="1" pos="47" show="0" value="0" unmaskedvalue="18"/>
      <field name="tcp.flags.ecn" showname=".... .0.. .... = ECN-Echo: Not set" size="1" pos="47" show="0" value="0" unmaskedvalue="18"/>
      <field name="tcp.flags.urg" showname=".... ..0. .... = Urgent: Not set" size="1" pos="47" show="0" value="0" unmaskedvalue="18"/>
      <field name="tcp.flags.ack" showname=".... ...1 .... = Acknowledgment: Set" size="1" pos="47" show="1" value="1" unmaskedvalue="18"/>
      <field name="tcp.flags.push" showname=".... .... 1... = Push: Set" size="1" pos="47" show="1" value="1" unmaskedvalue="18"/>
      <field name="tcp.flags.reset" showname=".... .... .0.. = Reset: Not set" size="1" pos="47" show="0" value="0" unmaskedvalue="18"/>
      <field name="tcp.flags.syn" showname=".... .... ..0. = Syn: Not set" size="1" pos="47" show="0" value="0" unmaskedvalue="18"/>
      <field name="tcp.flags.fin" showname=".... .... ...0 = Fin: Not set" size="1" pos="47" show="0" value="0" unmaskedvalue="18"/>
    </field>
    <field name="tcp.window_size_value" showname="Window size value: 30" size="2" pos="48" show="30" value="001e"/>
    <field name="tcp.window_size" showname="Calculated window size: 30720" size="2" pos="48" show="30720" value="001e"/>
    <field name="tcp.window_size_scalefactor" showname="Window size scaling factor: 1024" size="2" pos="48" show="1024" value="001e"/>
    <field name="tcp.checksum" showname="Checksum: 0xc768 [validation disabled]" size="2" pos="50" show="51048" value="c768">
      <field name="tcp.checksum_good" showname="Good Checksum: False" size="2" pos="50" show="0" value="c768"/>
      <field name="tcp.checksum_bad" showname="Bad Checksum: False" size="2" pos="50" show="0" value="c768"/>
    </field>
    <field name="tcp.analysis" showname="SEQ/ACK analysis" size="0" pos="34" show="" value="">
      <field name="tcp.analysis.bytes_in_flight" showname="Bytes in flight: 241" size="0" pos="34" show="241"/>
    </field>
  </proto>
  <proto name="fake-field-wrapper">
    <field name="data" value="17030300ec094bfad505f0916698e88846767b82b495f5966903eed9c63eddb74dda3185c89730c79d91adc278a0ee370586417839b8636a01b5f87f1357fbfd3d6926459dcf4e10f00d27e71417b8069029d633b743fa827bf66b7126a5c083942cf2f5f42199641e6915cab3ce8c672f1ff6efa8d61a494f37ba00fa32d813f53513321c469586cbf52b0aea6781cc0ac3da7b1baff00d25c0c46570bf157b39a3bf961de22ee04118a14eda960b77ca0ddd3c089822aa9789d0479666088cac8aed29b71aaf7277d5420ab6e5a8953492ae558ec150f5ef8b09768afa67bd87165092db0a7ff4032166aae303c2bd86">
      <field name="data.data" showname="Data: 17030300ec094bfad505f0916698e88846767b82b495f596..." size="241" pos="54" show="17:03:03:00:ec:09:4b:fa:d5:05:f0:91:66:98:e8:88:46:76:7b:82:b4:95:f5:96:69:03:ee:d9:c6:3e:dd:b7:4d:da:31:85:c8:97:30:c7:9d:91:ad:c2:78:a0:ee:37:05:86:41:78:39:b8:63:6a:01:b5:f8:7f:13:57:fb:fd:3d:69:26:45:9d:cf:4e:10:f0:0d:27:e7:14:17:b8:06:90:29:d6:33:b7:43:fa:82:7b:f6:6b:71:26:a5:c0:83:94:2c:f2:f5:f4:21:99:64:1e:69:15:ca:b3:ce:8c:67:2f:1f:f6:ef:a8:d6:1a:49:4f:37:ba:00:fa:32:d8:13:f5:35:13:32:1c:46:95:86:cb:f5:2b:0a:ea:67:81:cc:0a:c3:da:7b:1b:af:f0:0d:25:c0:c4:65:70:bf:15:7b:39:a3:bf:96:1d:e2:2e:e0:41:18:a1:4e:da:96:0b:77:ca:0d:dd:3c:08:98:22:aa:97:89:d0:47:96:66:08:8c:ac:8a:ed:29:b7:1a:af:72:77:d5:42:0a:b6:e5:a8:95:34:92:ae:55:8e:c1:50:f5:ef:8b:09:76:8a:fa:67:bd:87:16:50:92:db:0a:7f:f4:03:21:66:aa:e3:03:c2:bd:86" value="17030300ec094bfad505f0916698e88846767b82b495f5966903eed9c63eddb74dda3185c89730c79d91adc278a0ee370586417839b8636a01b5f87f1357fbfd3d6926459dcf4e10f00d27e71417b8069029d633b743fa827bf66b7126a5c083942cf2f5f42199641e6915cab3ce8c672f1ff6efa8d61a494f37ba00fa32d813f53513321c469586cbf52b0aea6781cc0ac3da7b1baff00d25c0c46570bf157b39a3bf961de22ee04118a14eda960b77ca0ddd3c089822aa9789d0479666088cac8aed29b71aaf7277d5420ab6e5a8953492ae558ec150f5ef8b09768afa67bd87165092db0a7ff4032166aae303c2bd86"/>
      <field name="data.len" showname="Length: 241" size="0" pos="54" show="241"/>
  </field>
</proto>
</packet>


<packet>
  <proto name="geninfo" pos="0" showname="General information" size="54">
    <field name="num" pos="0" show="11" showname="Number" value="b" size="54"/>
    <field name="len" pos="0" show="54" showname="Frame Length" value="36" size="54"/>
    <field name="caplen" pos="0" show="54" showname="Captured Length" value="36" size="54"/>
    <field name="timestamp" pos="0" show="Jun 27, 2019 12:20:58.499280000 CEST" showname="Captured Time" value="1561630858.499280000" size="54"/>
  </proto>
  <proto name="frame" showname="Frame 11: 54 bytes on wire (432 bits), 54 bytes captured (432 bits) on interface 0" size="54" pos="0">
    <field name="frame.interface_id" showname="Interface id: 0" size="0" pos="0" show="0"/>
    <field name="frame.encap_type" showname="Encapsulation type: Ethernet (1)" size="0" pos="0" show="1"/>
    <field name="frame.time" showname="Arrival Time: Jun 27, 2019 12:20:58.499280000 CEST" size="0" pos="0" show="&quot;Jun 27, 2019 12:20:58.499280000 CEST&quot;"/>
    <field name="frame.offset_shift" showname="Time shift for this packet: 0.000000000 seconds" size="0" pos="0" show="0.000000000"/>
    <field name="frame.time_epoch" showname="Epoch Time: 1561630858.499280000 seconds" size="0" pos="0" show="1561630858.499280000"/>
    <field name="frame.time_delta" showname="Time delta from previous captured frame: 0.000013000 seconds" size="0" pos="0" show="0.000013000"/>
    <field name="frame.time_delta_displayed" showname="Time delta from previous displayed frame: 0.000013000 seconds" size="0" pos="0" show="0.000013000"/>
    <field name="frame.time_relative" showname="Time since reference or first frame: 0.009930000 seconds" size="0" pos="0" show="0.009930000"/>
    <field name="frame.number" showname="Frame Number: 11" size="0" pos="0" show="11"/>
    <field name="frame.len" showname="Frame Length: 54 bytes (432 bits)" size="0" pos="0" show="54"/>
    <field name="frame.cap_len" showname="Capture Length: 54 bytes (432 bits)" size="0" pos="0" show="54"/>
    <field name="frame.marked" showname="Frame is marked: False" size="0" pos="0" show="0"/>
    <field name="frame.ignored" showname="Frame is ignored: False" size="0" pos="0" show="0"/>
    <field name="frame.protocols" showname="Protocols in frame: eth:ip:tcp" size="0" pos="0" show="eth:ip:tcp"/>
  </proto>
  <proto name="eth" showname="Ethernet II, Src: 02:42:ac:11:00:02 (02:42:ac:11:00:02), Dst: 02:42:71:12:56:af (02:42:71:12:56:af)" size="14" pos="0">
    <field name="eth.dst" showname="Destination: 02:42:71:12:56:af (02:42:71:12:56:af)" size="6" pos="0" show="02:42:71:12:56:af" value="0242711256af">
      <field name="eth.addr" showname="Address: 02:42:71:12:56:af (02:42:71:12:56:af)" size="6" pos="0" show="02:42:71:12:56:af" value="0242711256af"/>
      <field name="eth.lg" showname=".... ..1. .... .... .... .... = LG bit: Locally administered address (this is NOT the factory default)" size="3" pos="0" show="1" value="1" unmaskedvalue="024271"/>
      <field name="eth.ig" showname=".... ...0 .... .... .... .... = IG bit: Individual address (unicast)" size="3" pos="0" show="0" value="0" unmaskedvalue="024271"/>
    </field>
    <field name="eth.src" showname="Source: 02:42:ac:11:00:02 (02:42:ac:11:00:02)" size="6" pos="6" show="02:42:ac:11:00:02" value="0242ac110002">
      <field name="eth.addr" showname="Address: 02:42:ac:11:00:02 (02:42:ac:11:00:02)" size="6" pos="6" show="02:42:ac:11:00:02" value="0242ac110002"/>
      <field name="eth.lg" showname=".... ..1. .... .... .... .... = LG bit: Locally administered address (this is NOT the factory default)" size="3" pos="6" show="1" value="1" unmaskedvalue="0242ac"/>
      <field name="eth.ig" showname=".... ...0 .... .... .... .... = IG bit: Individual address (unicast)" size="3" pos="6" show="0" value="0" unmaskedvalue="0242ac"/>
    </field>
    <field name="eth.type" showname="Type: IP (0x0800)" size="2" pos="12" show="2048" value="0800"/>
  </proto>
  <proto name="ip" showname="Internet Protocol Version 4, Src: 172.17.0.2 (172.17.0.2), Dst: 1.1.1.1 (1.1.1.1)" size="20" pos="14">
    <field name="ip.version" showname="Version: 4" size="1" pos="14" show="4" value="45"/>
    <field name="ip.hdr_len" showname="Header length: 20 bytes" size="1" pos="14" show="20" value="45"/>
    <field name="ip.dsfield" showname="Differentiated Services Field: 0x00 (DSCP 0x00: Default; ECN: 0x00: Not-ECT (Not ECN-Capable Transport))" size="1" pos="15" show="0" value="00">
      <field name="ip.dsfield.dscp" showname="0000 00.. = Differentiated Services Codepoint: Default (0x00)" size="1" pos="15" show="0" value="0" unmaskedvalue="00"/>
      <field name="ip.dsfield.ecn" showname=".... ..00 = Explicit Congestion Notification: Not-ECT (Not ECN-Capable Transport) (0x00)" size="1" pos="15" show="0" value="0" unmaskedvalue="00"/>
    </field>
    <field name="ip.len" showname="Total Length: 40" size="2" pos="16" show="40" value="0028"/>
    <field name="ip.id" showname="Identification: 0xe77f (59263)" size="2" pos="18" show="59263" value="e77f"/>
    <field name="ip.flags" showname="Flags: 0x02 (Don&apos;t Fragment)" size="1" pos="20" show="2" value="40">
      <field name="ip.flags.rb" showname="0... .... = Reserved bit: Not set" size="1" pos="20" show="0" value="40"/>
      <field name="ip.flags.df" showname=".1.. .... = Don&apos;t fragment: Set" size="1" pos="20" show="1" value="40"/>
      <field name="ip.flags.mf" showname="..0. .... = More fragments: Not set" size="1" pos="20" show="0" value="40"/>
    </field>
    <field name="ip.frag_offset" showname="Fragment offset: 0" size="2" pos="20" show="0" value="4000"/>
    <field name="ip.ttl" showname="Time to live: 64" size="1" pos="22" show="64" value="40"/>
    <field name="ip.proto" showname="Protocol: TCP (6)" size="1" pos="23" show="6" value="06"/>
    <field name="ip.checksum" showname="Header checksum: 0xa53b [validation disabled]" size="2" pos="24" show="42299" value="a53b">
      <field name="ip.checksum_good" showname="Good: False" size="2" pos="24" show="0" value="a53b"/>
      <field name="ip.checksum_bad" showname="Bad: False" size="2" pos="24" show="0" value="a53b"/>
    </field>
    <field name="ip.src" showname="Source: 172.17.0.2 (172.17.0.2)" size="4" pos="26" show="172.17.0.2" value="ac110002"/>
    <field name="ip.addr" showname="Source or Destination Address: 172.17.0.2 (172.17.0.2)" hide="yes" size="4" pos="26" show="172.17.0.2" value="ac110002"/>
    <field name="ip.src_host" showname="Source Host: 172.17.0.2" hide="yes" size="4" pos="26" show="172.17.0.2" value="ac110002"/>
    <field name="ip.host" showname="Source or Destination Host: 172.17.0.2" hide="yes" size="4" pos="26" show="172.17.0.2" value="ac110002"/>
    <field name="ip.dst" showname="Destination: 1.1.1.1 (1.1.1.1)" size="4" pos="30" show="1.1.1.1" value="01010101"/>
    <field name="ip.addr" showname="Source or Destination Address: 1.1.1.1 (1.1.1.1)" hide="yes" size="4" pos="30" show="1.1.1.1" value="01010101"/>
    <field name="ip.dst_host" showname="Destination Host: 1.1.1.1" hide="yes" size="4" pos="30" show="1.1.1.1" value="01010101"/>
    <field name="ip.host" showname="Source or Destination Host: 1.1.1.1" hide="yes" size="4" pos="30" show="1.1.1.1" value="01010101"/>
  </proto>
  <proto name="tcp" showname="Transmission Control Protocol, Src Port: 59682 (59682), Dst Port: 853 (853), Seq: 338, Ack: 3051, Len: 0" size="20" pos="34">
    <field name="tcp.srcport" showname="Source port: 59682 (59682)" size="2" pos="34" show="59682" value="e922"/>
    <field name="tcp.dstport" showname="Destination port: 853 (853)" size="2" pos="36" show="853" value="0355"/>
    <field name="tcp.port" showname="Source or Destination Port: 59682" hide="yes" size="2" pos="34" show="59682" value="e922"/>
    <field name="tcp.port" showname="Source or Destination Port: 853" hide="yes" size="2" pos="36" show="853" value="0355"/>
    <field name="tcp.stream" showname="Stream index: 0" size="0" pos="34" show="0"/>
    <field name="tcp.len" showname="TCP Segment Len: 0" hide="yes" size="1" pos="46" show="0" value="50"/>
    <field name="tcp.seq" showname="Sequence number: 338    (relative sequence number)" size="4" pos="38" show="338" value="11b68abc"/>
    <field name="tcp.ack" showname="Acknowledgment number: 3051    (relative ack number)" size="4" pos="42" show="3051" value="a0d8ca54"/>
    <field name="tcp.hdr_len" showname="Header length: 20 bytes" size="1" pos="46" show="20" value="50"/>
    <field name="tcp.flags" showname="Flags: 0x010 (ACK)" size="2" pos="46" show="16" value="10" unmaskedvalue="5010">
      <field name="tcp.flags.res" showname="000. .... .... = Reserved: Not set" size="1" pos="46" show="0" value="0" unmaskedvalue="50"/>
      <field name="tcp.flags.ns" showname="...0 .... .... = Nonce: Not set" size="1" pos="46" show="0" value="0" unmaskedvalue="50"/>
      <field name="tcp.flags.cwr" showname=".... 0... .... = Congestion Window Reduced (CWR): Not set" size="1" pos="47" show="0" value="0" unmaskedvalue="10"/>
      <field name="tcp.flags.ecn" showname=".... .0.. .... = ECN-Echo: Not set" size="1" pos="47" show="0" value="0" unmaskedvalue="10"/>
      <field name="tcp.flags.urg" showname=".... ..0. .... = Urgent: Not set" size="1" pos="47" show="0" value="0" unmaskedvalue="10"/>
      <field name="tcp.flags.ack" showname=".... ...1 .... = Acknowledgment: Set" size="1" pos="47" show="1" value="1" unmaskedvalue="10"/>
      <field name="tcp.flags.push" showname=".... .... 0... = Push: Not set" size="1" pos="47" show="0" value="0" unmaskedvalue="10"/>
      <field name="tcp.flags.reset" showname=".... .... .0.. = Reset: Not set" size="1" pos="47" show="0" value="0" unmaskedvalue="10"/>
      <field name="tcp.flags.syn" showname=".... .... ..0. = Syn: Not set" size="1" pos="47" show="0" value="0" unmaskedvalue="10"/>
      <field name="tcp.flags.fin" showname=".... .... ...0 = Fin: Not set" size="1" pos="47" show="0" value="0" unmaskedvalue="10"/>
    </field>
    <field name="tcp.window_size_value" showname="Window size value: 302" size="2" pos="48" show="302" value="012e"/>
    <field name="tcp.window_size" showname="Calculated window size: 38656" size="2" pos="48" show="38656" value="012e"/>
    <field name="tcp.window_size_scalefactor" showname="Window size scaling factor: 128" size="2" pos="48" show="128" value="012e"/>
    <field name="tcp.checksum" showname="Checksum: 0xae2f [validation disabled]" size="2" pos="50" show="44591" value="ae2f">
      <field name="tcp.checksum_good" showname="Good Checksum: False" size="2" pos="50" show="0" value="ae2f"/>
      <field name="tcp.checksum_bad" showname="Bad Checksum: False" size="2" pos="50" show="0" value="ae2f"/>
    </field>
    <field name="tcp.analysis" showname="SEQ/ACK analysis" size="0" pos="34" show="" value="">
      <field name="tcp.analysis.acks_frame" showname="This is an ACK to the segment in frame: 10" size="0" pos="34" show="10"/>
      <field name="tcp.analysis.ack_rtt" showname="The RTT to ACK the segment was: 0.000013000 seconds" size="0" pos="34" show="0.000013000"/>
    </field>
  </proto>
</packet>


<packet>
  <proto name="geninfo" pos="0" showname="General information" size="60">
    <field name="num" pos="0" show="12" showname="Number" value="c" size="60"/>
    <field name="len" pos="0" show="60" showname="Frame Length" value="3c" size="60"/>
    <field name="caplen" pos="0" show="60" showname="Captured Length" value="3c" size="60"/>
    <field name="timestamp" pos="0" show="Jun 27, 2019 12:20:58.499641000 CEST" showname="Captured Time" value="1561630858.499641000" size="60"/>
  </proto>
  <proto name="frame" showname="Frame 12: 60 bytes on wire (480 bits), 60 bytes captured (480 bits) on interface 0" size="60" pos="0">
    <field name="frame.interface_id" showname="Interface id: 0" size="0" pos="0" show="0"/>
    <field name="frame.encap_type" showname="Encapsulation type: Ethernet (1)" size="0" pos="0" show="1"/>
    <field name="frame.time" showname="Arrival Time: Jun 27, 2019 12:20:58.499641000 CEST" size="0" pos="0" show="&quot;Jun 27, 2019 12:20:58.499641000 CEST&quot;"/>
    <field name="frame.offset_shift" showname="Time shift for this packet: 0.000000000 seconds" size="0" pos="0" show="0.000000000"/>
    <field name="frame.time_epoch" showname="Epoch Time: 1561630858.499641000 seconds" size="0" pos="0" show="1561630858.499641000"/>
    <field name="frame.time_delta" showname="Time delta from previous captured frame: 0.000361000 seconds" size="0" pos="0" show="0.000361000"/>
    <field name="frame.time_delta_displayed" showname="Time delta from previous displayed frame: 0.000361000 seconds" size="0" pos="0" show="0.000361000"/>
    <field name="frame.time_relative" showname="Time since reference or first frame: 0.010291000 seconds" size="0" pos="0" show="0.010291000"/>
    <field name="frame.number" showname="Frame Number: 12" size="0" pos="0" show="12"/>
    <field name="frame.len" showname="Frame Length: 60 bytes (480 bits)" size="0" pos="0" show="60"/>
    <field name="frame.cap_len" showname="Capture Length: 60 bytes (480 bits)" size="0" pos="0" show="60"/>
    <field name="frame.marked" showname="Frame is marked: False" size="0" pos="0" show="0"/>
    <field name="frame.ignored" showname="Frame is ignored: False" size="0" pos="0" show="0"/>
    <field name="frame.protocols" showname="Protocols in frame: eth:ip:tcp:data" size="0" pos="0" show="eth:ip:tcp:data"/>
  </proto>
  <proto name="eth" showname="Ethernet II, Src: 02:42:ac:11:00:02 (02:42:ac:11:00:02), Dst: 02:42:71:12:56:af (02:42:71:12:56:af)" size="14" pos="0">
    <field name="eth.dst" showname="Destination: 02:42:71:12:56:af (02:42:71:12:56:af)" size="6" pos="0" show="02:42:71:12:56:af" value="0242711256af">
      <field name="eth.addr" showname="Address: 02:42:71:12:56:af (02:42:71:12:56:af)" size="6" pos="0" show="02:42:71:12:56:af" value="0242711256af"/>
      <field name="eth.lg" showname=".... ..1. .... .... .... .... = LG bit: Locally administered address (this is NOT the factory default)" size="3" pos="0" show="1" value="1" unmaskedvalue="024271"/>
      <field name="eth.ig" showname=".... ...0 .... .... .... .... = IG bit: Individual address (unicast)" size="3" pos="0" show="0" value="0" unmaskedvalue="024271"/>
    </field>
    <field name="eth.src" showname="Source: 02:42:ac:11:00:02 (02:42:ac:11:00:02)" size="6" pos="6" show="02:42:ac:11:00:02" value="0242ac110002">
      <field name="eth.addr" showname="Address: 02:42:ac:11:00:02 (02:42:ac:11:00:02)" size="6" pos="6" show="02:42:ac:11:00:02" value="0242ac110002"/>
      <field name="eth.lg" showname=".... ..1. .... .... .... .... = LG bit: Locally administered address (this is NOT the factory default)" size="3" pos="6" show="1" value="1" unmaskedvalue="0242ac"/>
      <field name="eth.ig" showname=".... ...0 .... .... .... .... = IG bit: Individual address (unicast)" size="3" pos="6" show="0" value="0" unmaskedvalue="0242ac"/>
    </field>
    <field name="eth.type" showname="Type: IP (0x0800)" size="2" pos="12" show="2048" value="0800"/>
  </proto>
  <proto name="ip" showname="Internet Protocol Version 4, Src: 172.17.0.2 (172.17.0.2), Dst: 1.1.1.1 (1.1.1.1)" size="20" pos="14">
    <field name="ip.version" showname="Version: 4" size="1" pos="14" show="4" value="45"/>
    <field name="ip.hdr_len" showname="Header length: 20 bytes" size="1" pos="14" show="20" value="45"/>
    <field name="ip.dsfield" showname="Differentiated Services Field: 0x00 (DSCP 0x00: Default; ECN: 0x00: Not-ECT (Not ECN-Capable Transport))" size="1" pos="15" show="0" value="00">
      <field name="ip.dsfield.dscp" showname="0000 00.. = Differentiated Services Codepoint: Default (0x00)" size="1" pos="15" show="0" value="0" unmaskedvalue="00"/>
      <field name="ip.dsfield.ecn" showname=".... ..00 = Explicit Congestion Notification: Not-ECT (Not ECN-Capable Transport) (0x00)" size="1" pos="15" show="0" value="0" unmaskedvalue="00"/>
    </field>
    <field name="ip.len" showname="Total Length: 46" size="2" pos="16" show="46" value="002e"/>
    <field name="ip.id" showname="Identification: 0xe780 (59264)" size="2" pos="18" show="59264" value="e780"/>
    <field name="ip.flags" showname="Flags: 0x02 (Don&apos;t Fragment)" size="1" pos="20" show="2" value="40">
      <field name="ip.flags.rb" showname="0... .... = Reserved bit: Not set" size="1" pos="20" show="0" value="40"/>
      <field name="ip.flags.df" showname=".1.. .... = Don&apos;t fragment: Set" size="1" pos="20" show="1" value="40"/>
      <field name="ip.flags.mf" showname="..0. .... = More fragments: Not set" size="1" pos="20" show="0" value="40"/>
    </field>
    <field name="ip.frag_offset" showname="Fragment offset: 0" size="2" pos="20" show="0" value="4000"/>
    <field name="ip.ttl" showname="Time to live: 64" size="1" pos="22" show="64" value="40"/>
    <field name="ip.proto" showname="Protocol: TCP (6)" size="1" pos="23" show="6" value="06"/>
    <field name="ip.checksum" showname="Header checksum: 0xa534 [validation disabled]" size="2" pos="24" show="42292" value="a534">
      <field name="ip.checksum_good" showname="Good: False" size="2" pos="24" show="0" value="a534"/>
      <field name="ip.checksum_bad" showname="Bad: False" size="2" pos="24" show="0" value="a534"/>
    </field>
    <field name="ip.src" showname="Source: 172.17.0.2 (172.17.0.2)" size="4" pos="26" show="172.17.0.2" value="ac110002"/>
    <field name="ip.addr" showname="Source or Destination Address: 172.17.0.2 (172.17.0.2)" hide="yes" size="4" pos="26" show="172.17.0.2" value="ac110002"/>
    <field name="ip.src_host" showname="Source Host: 172.17.0.2" hide="yes" size="4" pos="26" show="172.17.0.2" value="ac110002"/>
    <field name="ip.host" showname="Source or Destination Host: 172.17.0.2" hide="yes" size="4" pos="26" show="172.17.0.2" value="ac110002"/>
    <field name="ip.dst" showname="Destination: 1.1.1.1 (1.1.1.1)" size="4" pos="30" show="1.1.1.1" value="01010101"/>
    <field name="ip.addr" showname="Source or Destination Address: 1.1.1.1 (1.1.1.1)" hide="yes" size="4" pos="30" show="1.1.1.1" value="01010101"/>
    <field name="ip.dst_host" showname="Destination Host: 1.1.1.1" hide="yes" size="4" pos="30" show="1.1.1.1" value="01010101"/>
    <field name="ip.host" showname="Source or Destination Host: 1.1.1.1" hide="yes" size="4" pos="30" show="1.1.1.1" value="01010101"/>
  </proto>
  <proto name="tcp" showname="Transmission Control Protocol, Src Port: 59682 (59682), Dst Port: 853 (853), Seq: 338, Ack: 3051, Len: 6" size="20" pos="34">
    <field name="tcp.srcport" showname="Source port: 59682 (59682)" size="2" pos="34" show="59682" value="e922"/>
    <field name="tcp.dstport" showname="Destination port: 853 (853)" size="2" pos="36" show="853" value="0355"/>
    <field name="tcp.port" showname="Source or Destination Port: 59682" hide="yes" size="2" pos="34" show="59682" value="e922"/>
    <field name="tcp.port" showname="Source or Destination Port: 853" hide="yes" size="2" pos="36" show="853" value="0355"/>
    <field name="tcp.stream" showname="Stream index: 0" size="0" pos="34" show="0"/>
    <field name="tcp.len" showname="TCP Segment Len: 6" hide="yes" size="1" pos="46" show="6" value="50"/>
    <field name="tcp.seq" showname="Sequence number: 338    (relative sequence number)" size="4" pos="38" show="338" value="11b68abc"/>
    <field name="tcp.nxtseq" showname="Next sequence number: 344    (relative sequence number)" size="0" pos="34" show="344"/>
    <field name="tcp.ack" showname="Acknowledgment number: 3051    (relative ack number)" size="4" pos="42" show="3051" value="a0d8ca54"/>
    <field name="tcp.hdr_len" showname="Header length: 20 bytes" size="1" pos="46" show="20" value="50"/>
    <field name="tcp.flags" showname="Flags: 0x018 (PSH, ACK)" size="2" pos="46" show="24" value="18" unmaskedvalue="5018">
      <field name="tcp.flags.res" showname="000. .... .... = Reserved: Not set" size="1" pos="46" show="0" value="0" unmaskedvalue="50"/>
      <field name="tcp.flags.ns" showname="...0 .... .... = Nonce: Not set" size="1" pos="46" show="0" value="0" unmaskedvalue="50"/>
      <field name="tcp.flags.cwr" showname=".... 0... .... = Congestion Window Reduced (CWR): Not set" size="1" pos="47" show="0" value="0" unmaskedvalue="18"/>
      <field name="tcp.flags.ecn" showname=".... .0.. .... = ECN-Echo: Not set" size="1" pos="47" show="0" value="0" unmaskedvalue="18"/>
      <field name="tcp.flags.urg" showname=".... ..0. .... = Urgent: Not set" size="1" pos="47" show="0" value="0" unmaskedvalue="18"/>
      <field name="tcp.flags.ack" showname=".... ...1 .... = Acknowledgment: Set" size="1" pos="47" show="1" value="1" unmaskedvalue="18"/>
      <field name="tcp.flags.push" showname=".... .... 1... = Push: Set" size="1" pos="47" show="1" value="1" unmaskedvalue="18"/>
      <field name="tcp.flags.reset" showname=".... .... .0.. = Reset: Not set" size="1" pos="47" show="0" value="0" unmaskedvalue="18"/>
      <field name="tcp.flags.syn" showname=".... .... ..0. = Syn: Not set" size="1" pos="47" show="0" value="0" unmaskedvalue="18"/>
      <field name="tcp.flags.fin" showname=".... .... ...0 = Fin: Not set" size="1" pos="47" show="0" value="0" unmaskedvalue="18"/>
    </field>
    <field name="tcp.window_size_value" showname="Window size value: 302" size="2" pos="48" show="302" value="012e"/>
    <field name="tcp.window_size" showname="Calculated window size: 38656" size="2" pos="48" show="38656" value="012e"/>
    <field name="tcp.window_size_scalefactor" showname="Window size scaling factor: 128" size="2" pos="48" show="128" value="012e"/>
    <field name="tcp.checksum" showname="Checksum: 0xae35 [validation disabled]" size="2" pos="50" show="44597" value="ae35">
      <field name="tcp.checksum_good" showname="Good Checksum: False" size="2" pos="50" show="0" value="ae35"/>
      <field name="tcp.checksum_bad" showname="Bad Checksum: False" size="2" pos="50" show="0" value="ae35"/>
    </field>
    <field name="tcp.analysis" showname="SEQ/ACK analysis" size="0" pos="34" show="" value="">
      <field name="tcp.analysis.bytes_in_flight" showname="Bytes in flight: 6" size="0" pos="34" show="6"/>
    </field>
  </proto>
  <proto name="fake-field-wrapper">
    <field name="data" value="140303000101">
      <field name="data.data" showname="Data: 140303000101" size="6" pos="54" show="14:03:03:00:01:01" value="140303000101"/>
      <field name="data.len" showname="Length: 6" size="0" pos="54" show="6"/>
  </field>
</proto>
</packet>


<packet>
  <proto name="geninfo" pos="0" showname="General information" size="54">
    <field name="num" pos="0" show="13" showname="Number" value="d" size="54"/>
    <field name="len" pos="0" show="54" showname="Frame Length" value="36" size="54"/>
    <field name="caplen" pos="0" show="54" showname="Captured Length" value="36" size="54"/>
    <field name="timestamp" pos="0" show="Jun 27, 2019 12:20:58.543946000 CEST" showname="Captured Time" value="1561630858.543946000" size="54"/>
  </proto>
  <proto name="frame" showname="Frame 13: 54 bytes on wire (432 bits), 54 bytes captured (432 bits) on interface 0" size="54" pos="0">
    <field name="frame.interface_id" showname="Interface id: 0" size="0" pos="0" show="0"/>
    <field name="frame.encap_type" showname="Encapsulation type: Ethernet (1)" size="0" pos="0" show="1"/>
    <field name="frame.time" showname="Arrival Time: Jun 27, 2019 12:20:58.543946000 CEST" size="0" pos="0" show="&quot;Jun 27, 2019 12:20:58.543946000 CEST&quot;"/>
    <field name="frame.offset_shift" showname="Time shift for this packet: 0.000000000 seconds" size="0" pos="0" show="0.000000000"/>
    <field name="frame.time_epoch" showname="Epoch Time: 1561630858.543946000 seconds" size="0" pos="0" show="1561630858.543946000"/>
    <field name="frame.time_delta" showname="Time delta from previous captured frame: 0.044305000 seconds" size="0" pos="0" show="0.044305000"/>
    <field name="frame.time_delta_displayed" showname="Time delta from previous displayed frame: 0.044305000 seconds" size="0" pos="0" show="0.044305000"/>
    <field name="frame.time_relative" showname="Time since reference or first frame: 0.054596000 seconds" size="0" pos="0" show="0.054596000"/>
    <field name="frame.number" showname="Frame Number: 13" size="0" pos="0" show="13"/>
    <field name="frame.len" showname="Frame Length: 54 bytes (432 bits)" size="0" pos="0" show="54"/>
    <field name="frame.cap_len" showname="Capture Length: 54 bytes (432 bits)" size="0" pos="0" show="54"/>
    <field name="frame.marked" showname="Frame is marked: False" size="0" pos="0" show="0"/>
    <field name="frame.ignored" showname="Frame is ignored: False" size="0" pos="0" show="0"/>
    <field name="frame.protocols" showname="Protocols in frame: eth:ip:tcp" size="0" pos="0" show="eth:ip:tcp"/>
  </proto>
  <proto name="eth" showname="Ethernet II, Src: 02:42:71:12:56:af (02:42:71:12:56:af), Dst: 02:42:ac:11:00:02 (02:42:ac:11:00:02)" size="14" pos="0">
    <field name="eth.dst" showname="Destination: 02:42:ac:11:00:02 (02:42:ac:11:00:02)" size="6" pos="0" show="02:42:ac:11:00:02" value="0242ac110002">
      <field name="eth.addr" showname="Address: 02:42:ac:11:00:02 (02:42:ac:11:00:02)" size="6" pos="0" show="02:42:ac:11:00:02" value="0242ac110002"/>
      <field name="eth.lg" showname=".... ..1. .... .... .... .... = LG bit: Locally administered address (this is NOT the factory default)" size="3" pos="0" show="1" value="1" unmaskedvalue="0242ac"/>
      <field name="eth.ig" showname=".... ...0 .... .... .... .... = IG bit: Individual address (unicast)" size="3" pos="0" show="0" value="0" unmaskedvalue="0242ac"/>
    </field>
    <field name="eth.src" showname="Source: 02:42:71:12:56:af (02:42:71:12:56:af)" size="6" pos="6" show="02:42:71:12:56:af" value="0242711256af">
      <field name="eth.addr" showname="Address: 02:42:71:12:56:af (02:42:71:12:56:af)" size="6" pos="6" show="02:42:71:12:56:af" value="0242711256af"/>
      <field name="eth.lg" showname=".... ..1. .... .... .... .... = LG bit: Locally administered address (this is NOT the factory default)" size="3" pos="6" show="1" value="1" unmaskedvalue="024271"/>
      <field name="eth.ig" showname=".... ...0 .... .... .... .... = IG bit: Individual address (unicast)" size="3" pos="6" show="0" value="0" unmaskedvalue="024271"/>
    </field>
    <field name="eth.type" showname="Type: IP (0x0800)" size="2" pos="12" show="2048" value="0800"/>
  </proto>
  <proto name="ip" showname="Internet Protocol Version 4, Src: 1.1.1.1 (1.1.1.1), Dst: 172.17.0.2 (172.17.0.2)" size="20" pos="14">
    <field name="ip.version" showname="Version: 4" size="1" pos="14" show="4" value="45"/>
    <field name="ip.hdr_len" showname="Header length: 20 bytes" size="1" pos="14" show="20" value="45"/>
    <field name="ip.dsfield" showname="Differentiated Services Field: 0x00 (DSCP 0x00: Default; ECN: 0x00: Not-ECT (Not ECN-Capable Transport))" size="1" pos="15" show="0" value="00">
      <field name="ip.dsfield.dscp" showname="0000 00.. = Differentiated Services Codepoint: Default (0x00)" size="1" pos="15" show="0" value="0" unmaskedvalue="00"/>
      <field name="ip.dsfield.ecn" showname=".... ..00 = Explicit Congestion Notification: Not-ECT (Not ECN-Capable Transport) (0x00)" size="1" pos="15" show="0" value="0" unmaskedvalue="00"/>
    </field>
    <field name="ip.len" showname="Total Length: 40" size="2" pos="16" show="40" value="0028"/>
    <field name="ip.id" showname="Identification: 0x6dbd (28093)" size="2" pos="18" show="28093" value="6dbd"/>
    <field name="ip.flags" showname="Flags: 0x02 (Don&apos;t Fragment)" size="1" pos="20" show="2" value="40">
      <field name="ip.flags.rb" showname="0... .... = Reserved bit: Not set" size="1" pos="20" show="0" value="40"/>
      <field name="ip.flags.df" showname=".1.. .... = Don&apos;t fragment: Set" size="1" pos="20" show="1" value="40"/>
      <field name="ip.flags.mf" showname="..0. .... = More fragments: Not set" size="1" pos="20" show="0" value="40"/>
    </field>
    <field name="ip.frag_offset" showname="Fragment offset: 0" size="2" pos="20" show="0" value="4000"/>
    <field name="ip.ttl" showname="Time to live: 57" size="1" pos="22" show="57" value="39"/>
    <field name="ip.proto" showname="Protocol: TCP (6)" size="1" pos="23" show="6" value="06"/>
    <field name="ip.checksum" showname="Header checksum: 0x25fe [validation disabled]" size="2" pos="24" show="9726" value="25fe">
      <field name="ip.checksum_good" showname="Good: False" size="2" pos="24" show="0" value="25fe"/>
      <field name="ip.checksum_bad" showname="Bad: False" size="2" pos="24" show="0" value="25fe"/>
    </field>
    <field name="ip.src" showname="Source: 1.1.1.1 (1.1.1.1)" size="4" pos="26" show="1.1.1.1" value="01010101"/>
    <field name="ip.addr" showname="Source or Destination Address: 1.1.1.1 (1.1.1.1)" hide="yes" size="4" pos="26" show="1.1.1.1" value="01010101"/>
    <field name="ip.src_host" showname="Source Host: 1.1.1.1" hide="yes" size="4" pos="26" show="1.1.1.1" value="01010101"/>
    <field name="ip.host" showname="Source or Destination Host: 1.1.1.1" hide="yes" size="4" pos="26" show="1.1.1.1" value="01010101"/>
    <field name="ip.dst" showname="Destination: 172.17.0.2 (172.17.0.2)" size="4" pos="30" show="172.17.0.2" value="ac110002"/>
    <field name="ip.addr" showname="Source or Destination Address: 172.17.0.2 (172.17.0.2)" hide="yes" size="4" pos="30" show="172.17.0.2" value="ac110002"/>
    <field name="ip.dst_host" showname="Destination Host: 172.17.0.2" hide="yes" size="4" pos="30" show="172.17.0.2" value="ac110002"/>
    <field name="ip.host" showname="Source or Destination Host: 172.17.0.2" hide="yes" size="4" pos="30" show="172.17.0.2" value="ac110002"/>
  </proto>
  <proto name="tcp" showname="Transmission Control Protocol, Src Port: 853 (853), Dst Port: 59682 (59682), Seq: 3051, Ack: 344, Len: 0" size="20" pos="34">
    <field name="tcp.srcport" showname="Source port: 853 (853)" size="2" pos="34" show="853" value="0355"/>
    <field name="tcp.dstport" showname="Destination port: 59682 (59682)" size="2" pos="36" show="59682" value="e922"/>
    <field name="tcp.port" showname="Source or Destination Port: 853" hide="yes" size="2" pos="34" show="853" value="0355"/>
    <field name="tcp.port" showname="Source or Destination Port: 59682" hide="yes" size="2" pos="36" show="59682" value="e922"/>
    <field name="tcp.stream" showname="Stream index: 0" size="0" pos="34" show="0"/>
    <field name="tcp.len" showname="TCP Segment Len: 0" hide="yes" size="1" pos="46" show="0" value="50"/>
    <field name="tcp.seq" showname="Sequence number: 3051    (relative sequence number)" size="4" pos="38" show="3051" value="a0d8ca54"/>
    <field name="tcp.ack" showname="Acknowledgment number: 344    (relative ack number)" size="4" pos="42" show="344" value="11b68ac2"/>
    <field name="tcp.hdr_len" showname="Header length: 20 bytes" size="1" pos="46" show="20" value="50"/>
    <field name="tcp.flags" showname="Flags: 0x010 (ACK)" size="2" pos="46" show="16" value="10" unmaskedvalue="5010">
      <field name="tcp.flags.res" showname="000. .... .... = Reserved: Not set" size="1" pos="46" show="0" value="0" unmaskedvalue="50"/>
      <field name="tcp.flags.ns" showname="...0 .... .... = Nonce: Not set" size="1" pos="46" show="0" value="0" unmaskedvalue="50"/>
      <field name="tcp.flags.cwr" showname=".... 0... .... = Congestion Window Reduced (CWR): Not set" size="1" pos="47" show="0" value="0" unmaskedvalue="10"/>
      <field name="tcp.flags.ecn" showname=".... .0.. .... = ECN-Echo: Not set" size="1" pos="47" show="0" value="0" unmaskedvalue="10"/>
      <field name="tcp.flags.urg" showname=".... ..0. .... = Urgent: Not set" size="1" pos="47" show="0" value="0" unmaskedvalue="10"/>
      <field name="tcp.flags.ack" showname=".... ...1 .... = Acknowledgment: Set" size="1" pos="47" show="1" value="1" unmaskedvalue="10"/>
      <field name="tcp.flags.push" showname=".... .... 0... = Push: Not set" size="1" pos="47" show="0" value="0" unmaskedvalue="10"/>
      <field name="tcp.flags.reset" showname=".... .... .0.. = Reset: Not set" size="1" pos="47" show="0" value="0" unmaskedvalue="10"/>
      <field name="tcp.flags.syn" showname=".... .... ..0. = Syn: Not set" size="1" pos="47" show="0" value="0" unmaskedvalue="10"/>
      <field name="tcp.flags.fin" showname=".... .... ...0 = Fin: Not set" size="1" pos="47" show="0" value="0" unmaskedvalue="10"/>
    </field>
    <field name="tcp.window_size_value" showname="Window size value: 30" size="2" pos="48" show="30" value="001e"/>
    <field name="tcp.window_size" showname="Calculated window size: 30720" size="2" pos="48" show="30720" value="001e"/>
    <field name="tcp.window_size_scalefactor" showname="Window size scaling factor: 1024" size="2" pos="48" show="1024" value="001e"/>
    <field name="tcp.checksum" showname="Checksum: 0x0d84 [validation disabled]" size="2" pos="50" show="3460" value="0d84">
      <field name="tcp.checksum_good" showname="Good Checksum: False" size="2" pos="50" show="0" value="0d84"/>
      <field name="tcp.checksum_bad" showname="Bad Checksum: False" size="2" pos="50" show="0" value="0d84"/>
    </field>
    <field name="tcp.analysis" showname="SEQ/ACK analysis" size="0" pos="34" show="" value="">
      <field name="tcp.analysis.acks_frame" showname="This is an ACK to the segment in frame: 12" size="0" pos="34" show="12"/>
      <field name="tcp.analysis.ack_rtt" showname="The RTT to ACK the segment was: 0.044305000 seconds" size="0" pos="34" show="0.044305000"/>
    </field>
  </proto>
</packet>


<packet>
  <proto name="geninfo" pos="0" showname="General information" size="280">
    <field name="num" pos="0" show="14" showname="Number" value="e" size="280"/>
    <field name="len" pos="0" show="280" showname="Frame Length" value="118" size="280"/>
    <field name="caplen" pos="0" show="280" showname="Captured Length" value="118" size="280"/>
    <field name="timestamp" pos="0" show="Jun 27, 2019 12:20:58.543971000 CEST" showname="Captured Time" value="1561630858.543971000" size="280"/>
  </proto>
  <proto name="frame" showname="Frame 14: 280 bytes on wire (2240 bits), 280 bytes captured (2240 bits) on interface 0" size="280" pos="0">
    <field name="frame.interface_id" showname="Interface id: 0" size="0" pos="0" show="0"/>
    <field name="frame.encap_type" showname="Encapsulation type: Ethernet (1)" size="0" pos="0" show="1"/>
    <field name="frame.time" showname="Arrival Time: Jun 27, 2019 12:20:58.543971000 CEST" size="0" pos="0" show="&quot;Jun 27, 2019 12:20:58.543971000 CEST&quot;"/>
    <field name="frame.offset_shift" showname="Time shift for this packet: 0.000000000 seconds" size="0" pos="0" show="0.000000000"/>
    <field name="frame.time_epoch" showname="Epoch Time: 1561630858.543971000 seconds" size="0" pos="0" show="1561630858.543971000"/>
    <field name="frame.time_delta" showname="Time delta from previous captured frame: 0.000025000 seconds" size="0" pos="0" show="0.000025000"/>
    <field name="frame.time_delta_displayed" showname="Time delta from previous displayed frame: 0.000025000 seconds" size="0" pos="0" show="0.000025000"/>
    <field name="frame.time_relative" showname="Time since reference or first frame: 0.054621000 seconds" size="0" pos="0" show="0.054621000"/>
    <field name="frame.number" showname="Frame Number: 14" size="0" pos="0" show="14"/>
    <field name="frame.len" showname="Frame Length: 280 bytes (2240 bits)" size="0" pos="0" show="280"/>
    <field name="frame.cap_len" showname="Capture Length: 280 bytes (2240 bits)" size="0" pos="0" show="280"/>
    <field name="frame.marked" showname="Frame is marked: False" size="0" pos="0" show="0"/>
    <field name="frame.ignored" showname="Frame is ignored: False" size="0" pos="0" show="0"/>
    <field name="frame.protocols" showname="Protocols in frame: eth:ip:tcp:data" size="0" pos="0" show="eth:ip:tcp:data"/>
  </proto>
  <proto name="eth" showname="Ethernet II, Src: 02:42:ac:11:00:02 (02:42:ac:11:00:02), Dst: 02:42:71:12:56:af (02:42:71:12:56:af)" size="14" pos="0">
    <field name="eth.dst" showname="Destination: 02:42:71:12:56:af (02:42:71:12:56:af)" size="6" pos="0" show="02:42:71:12:56:af" value="0242711256af">
      <field name="eth.addr" showname="Address: 02:42:71:12:56:af (02:42:71:12:56:af)" size="6" pos="0" show="02:42:71:12:56:af" value="0242711256af"/>
      <field name="eth.lg" showname=".... ..1. .... .... .... .... = LG bit: Locally administered address (this is NOT the factory default)" size="3" pos="0" show="1" value="1" unmaskedvalue="024271"/>
      <field name="eth.ig" showname=".... ...0 .... .... .... .... = IG bit: Individual address (unicast)" size="3" pos="0" show="0" value="0" unmaskedvalue="024271"/>
    </field>
    <field name="eth.src" showname="Source: 02:42:ac:11:00:02 (02:42:ac:11:00:02)" size="6" pos="6" show="02:42:ac:11:00:02" value="0242ac110002">
      <field name="eth.addr" showname="Address: 02:42:ac:11:00:02 (02:42:ac:11:00:02)" size="6" pos="6" show="02:42:ac:11:00:02" value="0242ac110002"/>
      <field name="eth.lg" showname=".... ..1. .... .... .... .... = LG bit: Locally administered address (this is NOT the factory default)" size="3" pos="6" show="1" value="1" unmaskedvalue="0242ac"/>
      <field name="eth.ig" showname=".... ...0 .... .... .... .... = IG bit: Individual address (unicast)" size="3" pos="6" show="0" value="0" unmaskedvalue="0242ac"/>
    </field>
    <field name="eth.type" showname="Type: IP (0x0800)" size="2" pos="12" show="2048" value="0800"/>
  </proto>
  <proto name="ip" showname="Internet Protocol Version 4, Src: 172.17.0.2 (172.17.0.2), Dst: 1.1.1.1 (1.1.1.1)" size="20" pos="14">
    <field name="ip.version" showname="Version: 4" size="1" pos="14" show="4" value="45"/>
    <field name="ip.hdr_len" showname="Header length: 20 bytes" size="1" pos="14" show="20" value="45"/>
    <field name="ip.dsfield" showname="Differentiated Services Field: 0x00 (DSCP 0x00: Default; ECN: 0x00: Not-ECT (Not ECN-Capable Transport))" size="1" pos="15" show="0" value="00">
      <field name="ip.dsfield.dscp" showname="0000 00.. = Differentiated Services Codepoint: Default (0x00)" size="1" pos="15" show="0" value="0" unmaskedvalue="00"/>
      <field name="ip.dsfield.ecn" showname=".... ..00 = Explicit Congestion Notification: Not-ECT (Not ECN-Capable Transport) (0x00)" size="1" pos="15" show="0" value="0" unmaskedvalue="00"/>
    </field>
    <field name="ip.len" showname="Total Length: 266" size="2" pos="16" show="266" value="010a"/>
    <field name="ip.id" showname="Identification: 0xe781 (59265)" size="2" pos="18" show="59265" value="e781"/>
    <field name="ip.flags" showname="Flags: 0x02 (Don&apos;t Fragment)" size="1" pos="20" show="2" value="40">
      <field name="ip.flags.rb" showname="0... .... = Reserved bit: Not set" size="1" pos="20" show="0" value="40"/>
      <field name="ip.flags.df" showname=".1.. .... = Don&apos;t fragment: Set" size="1" pos="20" show="1" value="40"/>
      <field name="ip.flags.mf" showname="..0. .... = More fragments: Not set" size="1" pos="20" show="0" value="40"/>
    </field>
    <field name="ip.frag_offset" showname="Fragment offset: 0" size="2" pos="20" show="0" value="4000"/>
    <field name="ip.ttl" showname="Time to live: 64" size="1" pos="22" show="64" value="40"/>
    <field name="ip.proto" showname="Protocol: TCP (6)" size="1" pos="23" show="6" value="06"/>
    <field name="ip.checksum" showname="Header checksum: 0xa457 [validation disabled]" size="2" pos="24" show="42071" value="a457">
      <field name="ip.checksum_good" showname="Good: False" size="2" pos="24" show="0" value="a457"/>
      <field name="ip.checksum_bad" showname="Bad: False" size="2" pos="24" show="0" value="a457"/>
    </field>
    <field name="ip.src" showname="Source: 172.17.0.2 (172.17.0.2)" size="4" pos="26" show="172.17.0.2" value="ac110002"/>
    <field name="ip.addr" showname="Source or Destination Address: 172.17.0.2 (172.17.0.2)" hide="yes" size="4" pos="26" show="172.17.0.2" value="ac110002"/>
    <field name="ip.src_host" showname="Source Host: 172.17.0.2" hide="yes" size="4" pos="26" show="172.17.0.2" value="ac110002"/>
    <field name="ip.host" showname="Source or Destination Host: 172.17.0.2" hide="yes" size="4" pos="26" show="172.17.0.2" value="ac110002"/>
    <field name="ip.dst" showname="Destination: 1.1.1.1 (1.1.1.1)" size="4" pos="30" show="1.1.1.1" value="01010101"/>
    <field name="ip.addr" showname="Source or Destination Address: 1.1.1.1 (1.1.1.1)" hide="yes" size="4" pos="30" show="1.1.1.1" value="01010101"/>
    <field name="ip.dst_host" showname="Destination Host: 1.1.1.1" hide="yes" size="4" pos="30" show="1.1.1.1" value="01010101"/>
    <field name="ip.host" showname="Source or Destination Host: 1.1.1.1" hide="yes" size="4" pos="30" show="1.1.1.1" value="01010101"/>
  </proto>
  <proto name="tcp" showname="Transmission Control Protocol, Src Port: 59682 (59682), Dst Port: 853 (853), Seq: 344, Ack: 3051, Len: 226" size="20" pos="34">
    <field name="tcp.srcport" showname="Source port: 59682 (59682)" size="2" pos="34" show="59682" value="e922"/>
    <field name="tcp.dstport" showname="Destination port: 853 (853)" size="2" pos="36" show="853" value="0355"/>
    <field name="tcp.port" showname="Source or Destination Port: 59682" hide="yes" size="2" pos="34" show="59682" value="e922"/>
    <field name="tcp.port" showname="Source or Destination Port: 853" hide="yes" size="2" pos="36" show="853" value="0355"/>
    <field name="tcp.stream" showname="Stream index: 0" size="0" pos="34" show="0"/>
    <field name="tcp.len" showname="TCP Segment Len: 226" hide="yes" size="1" pos="46" show="226" value="50"/>
    <field name="tcp.seq" showname="Sequence number: 344    (relative sequence number)" size="4" pos="38" show="344" value="11b68ac2"/>
    <field name="tcp.nxtseq" showname="Next sequence number: 570    (relative sequence number)" size="0" pos="34" show="570"/>
    <field name="tcp.ack" showname="Acknowledgment number: 3051    (relative ack number)" size="4" pos="42" show="3051" value="a0d8ca54"/>
    <field name="tcp.hdr_len" showname="Header length: 20 bytes" size="1" pos="46" show="20" value="50"/>
    <field name="tcp.flags" showname="Flags: 0x018 (PSH, ACK)" size="2" pos="46" show="24" value="18" unmaskedvalue="5018">
      <field name="tcp.flags.res" showname="000. .... .... = Reserved: Not set" size="1" pos="46" show="0" value="0" unmaskedvalue="50"/>
      <field name="tcp.flags.ns" showname="...0 .... .... = Nonce: Not set" size="1" pos="46" show="0" value="0" unmaskedvalue="50"/>
      <field name="tcp.flags.cwr" showname=".... 0... .... = Congestion Window Reduced (CWR): Not set" size="1" pos="47" show="0" value="0" unmaskedvalue="18"/>
      <field name="tcp.flags.ecn" showname=".... .0.. .... = ECN-Echo: Not set" size="1" pos="47" show="0" value="0" unmaskedvalue="18"/>
      <field name="tcp.flags.urg" showname=".... ..0. .... = Urgent: Not set" size="1" pos="47" show="0" value="0" unmaskedvalue="18"/>
      <field name="tcp.flags.ack" showname=".... ...1 .... = Acknowledgment: Set" size="1" pos="47" show="1" value="1" unmaskedvalue="18"/>
      <field name="tcp.flags.push" showname=".... .... 1... = Push: Set" size="1" pos="47" show="1" value="1" unmaskedvalue="18"/>
      <field name="tcp.flags.reset" showname=".... .... .0.. = Reset: Not set" size="1" pos="47" show="0" value="0" unmaskedvalue="18"/>
      <field name="tcp.flags.syn" showname=".... .... ..0. = Syn: Not set" size="1" pos="47" show="0" value="0" unmaskedvalue="18"/>
      <field name="tcp.flags.fin" showname=".... .... ...0 = Fin: Not set" size="1" pos="47" show="0" value="0" unmaskedvalue="18"/>
    </field>
    <field name="tcp.window_size_value" showname="Window size value: 302" size="2" pos="48" show="302" value="012e"/>
    <field name="tcp.window_size" showname="Calculated window size: 38656" size="2" pos="48" show="38656" value="012e"/>
    <field name="tcp.window_size_scalefactor" showname="Window size scaling factor: 128" size="2" pos="48" show="128" value="012e"/>
    <field name="tcp.checksum" showname="Checksum: 0xaf11 [validation disabled]" size="2" pos="50" show="44817" value="af11">
      <field name="tcp.checksum_good" showname="Good Checksum: False" size="2" pos="50" show="0" value="af11"/>
      <field name="tcp.checksum_bad" showname="Bad Checksum: False" size="2" pos="50" show="0" value="af11"/>
    </field>
    <field name="tcp.analysis" showname="SEQ/ACK analysis" size="0" pos="34" show="" value="">
      <field name="tcp.analysis.bytes_in_flight" showname="Bytes in flight: 226" size="0" pos="34" show="226"/>
    </field>
  </proto>
  <proto name="fake-field-wrapper">
    <field name="data" value="1703030045d9868f12454acb41514ed3eb40e5d27af321dfb2857a9fe7726bf2b98ed7e66f5c8c92ec2e17994c10bec336b66dafc7215626921d3f1815d2f05c8d5dd95c48339f435aa51703030093a6646fda068f87725ea8a23ba6c10ca9c8c74f413c250589eabe1637e836448b10c6aa58ff2712c91505e6c5ff0eb6bd52cfa8ee9a587449e18c77a7a6cc36014ba6a38b21c361ee4ccbb7643419931a5633207c7d8191a96c6c58bb9393f1c498af0afb8a2c56f0ddb58fdd83bcbe4bfc7739332f13772154f8d47b8146c0a446820e15f06b2ccd155f1b563912da01689c45">
      <field name="data.data" showname="Data: 1703030045d9868f12454acb41514ed3eb40e5d27af321df..." size="226" pos="54" show="17:03:03:00:45:d9:86:8f:12:45:4a:cb:41:51:4e:d3:eb:40:e5:d2:7a:f3:21:df:b2:85:7a:9f:e7:72:6b:f2:b9:8e:d7:e6:6f:5c:8c:92:ec:2e:17:99:4c:10:be:c3:36:b6:6d:af:c7:21:56:26:92:1d:3f:18:15:d2:f0:5c:8d:5d:d9:5c:48:33:9f:43:5a:a5:17:03:03:00:93:a6:64:6f:da:06:8f:87:72:5e:a8:a2:3b:a6:c1:0c:a9:c8:c7:4f:41:3c:25:05:89:ea:be:16:37:e8:36:44:8b:10:c6:aa:58:ff:27:12:c9:15:05:e6:c5:ff:0e:b6:bd:52:cf:a8:ee:9a:58:74:49:e1:8c:77:a7:a6:cc:36:01:4b:a6:a3:8b:21:c3:61:ee:4c:cb:b7:64:34:19:93:1a:56:33:20:7c:7d:81:91:a9:6c:6c:58:bb:93:93:f1:c4:98:af:0a:fb:8a:2c:56:f0:dd:b5:8f:dd:83:bc:be:4b:fc:77:39:33:2f:13:77:21:54:f8:d4:7b:81:46:c0:a4:46:82:0e:15:f0:6b:2c:cd:15:5f:1b:56:39:12:da:01:68:9c:45" value="1703030045d9868f12454acb41514ed3eb40e5d27af321dfb2857a9fe7726bf2b98ed7e66f5c8c92ec2e17994c10bec336b66dafc7215626921d3f1815d2f05c8d5dd95c48339f435aa51703030093a6646fda068f87725ea8a23ba6c10ca9c8c74f413c250589eabe1637e836448b10c6aa58ff2712c91505e6c5ff0eb6bd52cfa8ee9a587449e18c77a7a6cc36014ba6a38b21c361ee4ccbb7643419931a5633207c7d8191a96c6c58bb9393f1c498af0afb8a2c56f0ddb58fdd83bcbe4bfc7739332f13772154f8d47b8146c0a446820e15f06b2ccd155f1b563912da01689c45"/>
      <field name="data.len" showname="Length: 226" size="0" pos="54" show="226"/>
  </field>
</proto>
</packet>


<packet>
  <proto name="geninfo" pos="0" showname="General information" size="54">
    <field name="num" pos="0" show="15" showname="Number" value="f" size="54"/>
    <field name="len" pos="0" show="54" showname="Frame Length" value="36" size="54"/>
    <field name="caplen" pos="0" show="54" showname="Captured Length" value="36" size="54"/>
    <field name="timestamp" pos="0" show="Jun 27, 2019 12:20:58.547589000 CEST" showname="Captured Time" value="1561630858.547589000" size="54"/>
  </proto>
  <proto name="frame" showname="Frame 15: 54 bytes on wire (432 bits), 54 bytes captured (432 bits) on interface 0" size="54" pos="0">
    <field name="frame.interface_id" showname="Interface id: 0" size="0" pos="0" show="0"/>
    <field name="frame.encap_type" showname="Encapsulation type: Ethernet (1)" size="0" pos="0" show="1"/>
    <field name="frame.time" showname="Arrival Time: Jun 27, 2019 12:20:58.547589000 CEST" size="0" pos="0" show="&quot;Jun 27, 2019 12:20:58.547589000 CEST&quot;"/>
    <field name="frame.offset_shift" showname="Time shift for this packet: 0.000000000 seconds" size="0" pos="0" show="0.000000000"/>
    <field name="frame.time_epoch" showname="Epoch Time: 1561630858.547589000 seconds" size="0" pos="0" show="1561630858.547589000"/>
    <field name="frame.time_delta" showname="Time delta from previous captured frame: 0.003618000 seconds" size="0" pos="0" show="0.003618000"/>
    <field name="frame.time_delta_displayed" showname="Time delta from previous displayed frame: 0.003618000 seconds" size="0" pos="0" show="0.003618000"/>
    <field name="frame.time_relative" showname="Time since reference or first frame: 0.058239000 seconds" size="0" pos="0" show="0.058239000"/>
    <field name="frame.number" showname="Frame Number: 15" size="0" pos="0" show="15"/>
    <field name="frame.len" showname="Frame Length: 54 bytes (432 bits)" size="0" pos="0" show="54"/>
    <field name="frame.cap_len" showname="Capture Length: 54 bytes (432 bits)" size="0" pos="0" show="54"/>
    <field name="frame.marked" showname="Frame is marked: False" size="0" pos="0" show="0"/>
    <field name="frame.ignored" showname="Frame is ignored: False" size="0" pos="0" show="0"/>
    <field name="frame.protocols" showname="Protocols in frame: eth:ip:tcp" size="0" pos="0" show="eth:ip:tcp"/>
  </proto>
  <proto name="eth" showname="Ethernet II, Src: 02:42:71:12:56:af (02:42:71:12:56:af), Dst: 02:42:ac:11:00:02 (02:42:ac:11:00:02)" size="14" pos="0">
    <field name="eth.dst" showname="Destination: 02:42:ac:11:00:02 (02:42:ac:11:00:02)" size="6" pos="0" show="02:42:ac:11:00:02" value="0242ac110002">
      <field name="eth.addr" showname="Address: 02:42:ac:11:00:02 (02:42:ac:11:00:02)" size="6" pos="0" show="02:42:ac:11:00:02" value="0242ac110002"/>
      <field name="eth.lg" showname=".... ..1. .... .... .... .... = LG bit: Locally administered address (this is NOT the factory default)" size="3" pos="0" show="1" value="1" unmaskedvalue="0242ac"/>
      <field name="eth.ig" showname=".... ...0 .... .... .... .... = IG bit: Individual address (unicast)" size="3" pos="0" show="0" value="0" unmaskedvalue="0242ac"/>
    </field>
    <field name="eth.src" showname="Source: 02:42:71:12:56:af (02:42:71:12:56:af)" size="6" pos="6" show="02:42:71:12:56:af" value="0242711256af">
      <field name="eth.addr" showname="Address: 02:42:71:12:56:af (02:42:71:12:56:af)" size="6" pos="6" show="02:42:71:12:56:af" value="0242711256af"/>
      <field name="eth.lg" showname=".... ..1. .... .... .... .... = LG bit: Locally administered address (this is NOT the factory default)" size="3" pos="6" show="1" value="1" unmaskedvalue="024271"/>
      <field name="eth.ig" showname=".... ...0 .... .... .... .... = IG bit: Individual address (unicast)" size="3" pos="6" show="0" value="0" unmaskedvalue="024271"/>
    </field>
    <field name="eth.type" showname="Type: IP (0x0800)" size="2" pos="12" show="2048" value="0800"/>
  </proto>
  <proto name="ip" showname="Internet Protocol Version 4, Src: 1.1.1.1 (1.1.1.1), Dst: 172.17.0.2 (172.17.0.2)" size="20" pos="14">
    <field name="ip.version" showname="Version: 4" size="1" pos="14" show="4" value="45"/>
    <field name="ip.hdr_len" showname="Header length: 20 bytes" size="1" pos="14" show="20" value="45"/>
    <field name="ip.dsfield" showname="Differentiated Services Field: 0x00 (DSCP 0x00: Default; ECN: 0x00: Not-ECT (Not ECN-Capable Transport))" size="1" pos="15" show="0" value="00">
      <field name="ip.dsfield.dscp" showname="0000 00.. = Differentiated Services Codepoint: Default (0x00)" size="1" pos="15" show="0" value="0" unmaskedvalue="00"/>
      <field name="ip.dsfield.ecn" showname=".... ..00 = Explicit Congestion Notification: Not-ECT (Not ECN-Capable Transport) (0x00)" size="1" pos="15" show="0" value="0" unmaskedvalue="00"/>
    </field>
    <field name="ip.len" showname="Total Length: 40" size="2" pos="16" show="40" value="0028"/>
    <field name="ip.id" showname="Identification: 0x6dbe (28094)" size="2" pos="18" show="28094" value="6dbe"/>
    <field name="ip.flags" showname="Flags: 0x02 (Don&apos;t Fragment)" size="1" pos="20" show="2" value="40">
      <field name="ip.flags.rb" showname="0... .... = Reserved bit: Not set" size="1" pos="20" show="0" value="40"/>
      <field name="ip.flags.df" showname=".1.. .... = Don&apos;t fragment: Set" size="1" pos="20" show="1" value="40"/>
      <field name="ip.flags.mf" showname="..0. .... = More fragments: Not set" size="1" pos="20" show="0" value="40"/>
    </field>
    <field name="ip.frag_offset" showname="Fragment offset: 0" size="2" pos="20" show="0" value="4000"/>
    <field name="ip.ttl" showname="Time to live: 57" size="1" pos="22" show="57" value="39"/>
    <field name="ip.proto" showname="Protocol: TCP (6)" size="1" pos="23" show="6" value="06"/>
    <field name="ip.checksum" showname="Header checksum: 0x25fd [validation disabled]" size="2" pos="24" show="9725" value="25fd">
      <field name="ip.checksum_good" showname="Good: False" size="2" pos="24" show="0" value="25fd"/>
      <field name="ip.checksum_bad" showname="Bad: False" size="2" pos="24" show="0" value="25fd"/>
    </field>
    <field name="ip.src" showname="Source: 1.1.1.1 (1.1.1.1)" size="4" pos="26" show="1.1.1.1" value="01010101"/>
    <field name="ip.addr" showname="Source or Destination Address: 1.1.1.1 (1.1.1.1)" hide="yes" size="4" pos="26" show="1.1.1.1" value="01010101"/>
    <field name="ip.src_host" showname="Source Host: 1.1.1.1" hide="yes" size="4" pos="26" show="1.1.1.1" value="01010101"/>
    <field name="ip.host" showname="Source or Destination Host: 1.1.1.1" hide="yes" size="4" pos="26" show="1.1.1.1" value="01010101"/>
    <field name="ip.dst" showname="Destination: 172.17.0.2 (172.17.0.2)" size="4" pos="30" show="172.17.0.2" value="ac110002"/>
    <field name="ip.addr" showname="Source or Destination Address: 172.17.0.2 (172.17.0.2)" hide="yes" size="4" pos="30" show="172.17.0.2" value="ac110002"/>
    <field name="ip.dst_host" showname="Destination Host: 172.17.0.2" hide="yes" size="4" pos="30" show="172.17.0.2" value="ac110002"/>
    <field name="ip.host" showname="Source or Destination Host: 172.17.0.2" hide="yes" size="4" pos="30" show="172.17.0.2" value="ac110002"/>
  </proto>
  <proto name="tcp" showname="Transmission Control Protocol, Src Port: 853 (853), Dst Port: 59682 (59682), Seq: 3051, Ack: 570, Len: 0" size="20" pos="34">
    <field name="tcp.srcport" showname="Source port: 853 (853)" size="2" pos="34" show="853" value="0355"/>
    <field name="tcp.dstport" showname="Destination port: 59682 (59682)" size="2" pos="36" show="59682" value="e922"/>
    <field name="tcp.port" showname="Source or Destination Port: 853" hide="yes" size="2" pos="34" show="853" value="0355"/>
    <field name="tcp.port" showname="Source or Destination Port: 59682" hide="yes" size="2" pos="36" show="59682" value="e922"/>
    <field name="tcp.stream" showname="Stream index: 0" size="0" pos="34" show="0"/>
    <field name="tcp.len" showname="TCP Segment Len: 0" hide="yes" size="1" pos="46" show="0" value="50"/>
    <field name="tcp.seq" showname="Sequence number: 3051    (relative sequence number)" size="4" pos="38" show="3051" value="a0d8ca54"/>
    <field name="tcp.ack" showname="Acknowledgment number: 570    (relative ack number)" size="4" pos="42" show="570" value="11b68ba4"/>
    <field name="tcp.hdr_len" showname="Header length: 20 bytes" size="1" pos="46" show="20" value="50"/>
    <field name="tcp.flags" showname="Flags: 0x010 (ACK)" size="2" pos="46" show="16" value="10" unmaskedvalue="5010">
      <field name="tcp.flags.res" showname="000. .... .... = Reserved: Not set" size="1" pos="46" show="0" value="0" unmaskedvalue="50"/>
      <field name="tcp.flags.ns" showname="...0 .... .... = Nonce: Not set" size="1" pos="46" show="0" value="0" unmaskedvalue="50"/>
      <field name="tcp.flags.cwr" showname=".... 0... .... = Congestion Window Reduced (CWR): Not set" size="1" pos="47" show="0" value="0" unmaskedvalue="10"/>
      <field name="tcp.flags.ecn" showname=".... .0.. .... = ECN-Echo: Not set" size="1" pos="47" show="0" value="0" unmaskedvalue="10"/>
      <field name="tcp.flags.urg" showname=".... ..0. .... = Urgent: Not set" size="1" pos="47" show="0" value="0" unmaskedvalue="10"/>
      <field name="tcp.flags.ack" showname=".... ...1 .... = Acknowledgment: Set" size="1" pos="47" show="1" value="1" unmaskedvalue="10"/>
      <field name="tcp.flags.push" showname=".... .... 0... = Push: Not set" size="1" pos="47" show="0" value="0" unmaskedvalue="10"/>
      <field name="tcp.flags.reset" showname=".... .... .0.. = Reset: Not set" size="1" pos="47" show="0" value="0" unmaskedvalue="10"/>
      <field name="tcp.flags.syn" showname=".... .... ..0. = Syn: Not set" size="1" pos="47" show="0" value="0" unmaskedvalue="10"/>
      <field name="tcp.flags.fin" showname=".... .... ...0 = Fin: Not set" size="1" pos="47" show="0" value="0" unmaskedvalue="10"/>
    </field>
    <field name="tcp.window_size_value" showname="Window size value: 31" size="2" pos="48" show="31" value="001f"/>
    <field name="tcp.window_size" showname="Calculated window size: 31744" size="2" pos="48" show="31744" value="001f"/>
    <field name="tcp.window_size_scalefactor" showname="Window size scaling factor: 1024" size="2" pos="48" show="1024" value="001f"/>
    <field name="tcp.checksum" showname="Checksum: 0x0ca1 [validation disabled]" size="2" pos="50" show="3233" value="0ca1">
      <field name="tcp.checksum_good" showname="Good Checksum: False" size="2" pos="50" show="0" value="0ca1"/>
      <field name="tcp.checksum_bad" showname="Bad Checksum: False" size="2" pos="50" show="0" value="0ca1"/>
    </field>
    <field name="tcp.analysis" showname="SEQ/ACK analysis" size="0" pos="34" show="" value="">
      <field name="tcp.analysis.acks_frame" showname="This is an ACK to the segment in frame: 14" size="0" pos="34" show="14"/>
      <field name="tcp.analysis.ack_rtt" showname="The RTT to ACK the segment was: 0.003618000 seconds" size="0" pos="34" show="0.003618000"/>
    </field>
  </proto>
</packet>


<packet>
  <proto name="geninfo" pos="0" showname="General information" size="206">
    <field name="num" pos="0" show="16" showname="Number" value="10" size="206"/>
    <field name="len" pos="0" show="206" showname="Frame Length" value="ce" size="206"/>
    <field name="caplen" pos="0" show="206" showname="Captured Length" value="ce" size="206"/>
    <field name="timestamp" pos="0" show="Jun 27, 2019 12:20:58.548039000 CEST" showname="Captured Time" value="1561630858.548039000" size="206"/>
  </proto>
  <proto name="frame" showname="Frame 16: 206 bytes on wire (1648 bits), 206 bytes captured (1648 bits) on interface 0" size="206" pos="0">
    <field name="frame.interface_id" showname="Interface id: 0" size="0" pos="0" show="0"/>
    <field name="frame.encap_type" showname="Encapsulation type: Ethernet (1)" size="0" pos="0" show="1"/>
    <field name="frame.time" showname="Arrival Time: Jun 27, 2019 12:20:58.548039000 CEST" size="0" pos="0" show="&quot;Jun 27, 2019 12:20:58.548039000 CEST&quot;"/>
    <field name="frame.offset_shift" showname="Time shift for this packet: 0.000000000 seconds" size="0" pos="0" show="0.000000000"/>
    <field name="frame.time_epoch" showname="Epoch Time: 1561630858.548039000 seconds" size="0" pos="0" show="1561630858.548039000"/>
    <field name="frame.time_delta" showname="Time delta from previous captured frame: 0.000450000 seconds" size="0" pos="0" show="0.000450000"/>
    <field name="frame.time_delta_displayed" showname="Time delta from previous displayed frame: 0.000450000 seconds" size="0" pos="0" show="0.000450000"/>
    <field name="frame.time_relative" showname="Time since reference or first frame: 0.058689000 seconds" size="0" pos="0" show="0.058689000"/>
    <field name="frame.number" showname="Frame Number: 16" size="0" pos="0" show="16"/>
    <field name="frame.len" showname="Frame Length: 206 bytes (1648 bits)" size="0" pos="0" show="206"/>
    <field name="frame.cap_len" showname="Capture Length: 206 bytes (1648 bits)" size="0" pos="0" show="206"/>
    <field name="frame.marked" showname="Frame is marked: False" size="0" pos="0" show="0"/>
    <field name="frame.ignored" showname="Frame is ignored: False" size="0" pos="0" show="0"/>
    <field name="frame.protocols" showname="Protocols in frame: eth:ip:tcp:data" size="0" pos="0" show="eth:ip:tcp:data"/>
  </proto>
  <proto name="eth" showname="Ethernet II, Src: 02:42:71:12:56:af (02:42:71:12:56:af), Dst: 02:42:ac:11:00:02 (02:42:ac:11:00:02)" size="14" pos="0">
    <field name="eth.dst" showname="Destination: 02:42:ac:11:00:02 (02:42:ac:11:00:02)" size="6" pos="0" show="02:42:ac:11:00:02" value="0242ac110002">
      <field name="eth.addr" showname="Address: 02:42:ac:11:00:02 (02:42:ac:11:00:02)" size="6" pos="0" show="02:42:ac:11:00:02" value="0242ac110002"/>
      <field name="eth.lg" showname=".... ..1. .... .... .... .... = LG bit: Locally administered address (this is NOT the factory default)" size="3" pos="0" show="1" value="1" unmaskedvalue="0242ac"/>
      <field name="eth.ig" showname=".... ...0 .... .... .... .... = IG bit: Individual address (unicast)" size="3" pos="0" show="0" value="0" unmaskedvalue="0242ac"/>
    </field>
    <field name="eth.src" showname="Source: 02:42:71:12:56:af (02:42:71:12:56:af)" size="6" pos="6" show="02:42:71:12:56:af" value="0242711256af">
      <field name="eth.addr" showname="Address: 02:42:71:12:56:af (02:42:71:12:56:af)" size="6" pos="6" show="02:42:71:12:56:af" value="0242711256af"/>
      <field name="eth.lg" showname=".... ..1. .... .... .... .... = LG bit: Locally administered address (this is NOT the factory default)" size="3" pos="6" show="1" value="1" unmaskedvalue="024271"/>
      <field name="eth.ig" showname=".... ...0 .... .... .... .... = IG bit: Individual address (unicast)" size="3" pos="6" show="0" value="0" unmaskedvalue="024271"/>
    </field>
    <field name="eth.type" showname="Type: IP (0x0800)" size="2" pos="12" show="2048" value="0800"/>
  </proto>
  <proto name="ip" showname="Internet Protocol Version 4, Src: 1.1.1.1 (1.1.1.1), Dst: 172.17.0.2 (172.17.0.2)" size="20" pos="14">
    <field name="ip.version" showname="Version: 4" size="1" pos="14" show="4" value="45"/>
    <field name="ip.hdr_len" showname="Header length: 20 bytes" size="1" pos="14" show="20" value="45"/>
    <field name="ip.dsfield" showname="Differentiated Services Field: 0x00 (DSCP 0x00: Default; ECN: 0x00: Not-ECT (Not ECN-Capable Transport))" size="1" pos="15" show="0" value="00">
      <field name="ip.dsfield.dscp" showname="0000 00.. = Differentiated Services Codepoint: Default (0x00)" size="1" pos="15" show="0" value="0" unmaskedvalue="00"/>
      <field name="ip.dsfield.ecn" showname=".... ..00 = Explicit Congestion Notification: Not-ECT (Not ECN-Capable Transport) (0x00)" size="1" pos="15" show="0" value="0" unmaskedvalue="00"/>
    </field>
    <field name="ip.len" showname="Total Length: 192" size="2" pos="16" show="192" value="00c0"/>
    <field name="ip.id" showname="Identification: 0x6dbf (28095)" size="2" pos="18" show="28095" value="6dbf"/>
    <field name="ip.flags" showname="Flags: 0x02 (Don&apos;t Fragment)" size="1" pos="20" show="2" value="40">
      <field name="ip.flags.rb" showname="0... .... = Reserved bit: Not set" size="1" pos="20" show="0" value="40"/>
      <field name="ip.flags.df" showname=".1.. .... = Don&apos;t fragment: Set" size="1" pos="20" show="1" value="40"/>
      <field name="ip.flags.mf" showname="..0. .... = More fragments: Not set" size="1" pos="20" show="0" value="40"/>
    </field>
    <field name="ip.frag_offset" showname="Fragment offset: 0" size="2" pos="20" show="0" value="4000"/>
    <field name="ip.ttl" showname="Time to live: 57" size="1" pos="22" show="57" value="39"/>
    <field name="ip.proto" showname="Protocol: TCP (6)" size="1" pos="23" show="6" value="06"/>
    <field name="ip.checksum" showname="Header checksum: 0x2564 [validation disabled]" size="2" pos="24" show="9572" value="2564">
      <field name="ip.checksum_good" showname="Good: False" size="2" pos="24" show="0" value="2564"/>
      <field name="ip.checksum_bad" showname="Bad: False" size="2" pos="24" show="0" value="2564"/>
    </field>
    <field name="ip.src" showname="Source: 1.1.1.1 (1.1.1.1)" size="4" pos="26" show="1.1.1.1" value="01010101"/>
    <field name="ip.addr" showname="Source or Destination Address: 1.1.1.1 (1.1.1.1)" hide="yes" size="4" pos="26" show="1.1.1.1" value="01010101"/>
    <field name="ip.src_host" showname="Source Host: 1.1.1.1" hide="yes" size="4" pos="26" show="1.1.1.1" value="01010101"/>
    <field name="ip.host" showname="Source or Destination Host: 1.1.1.1" hide="yes" size="4" pos="26" show="1.1.1.1" value="01010101"/>
    <field name="ip.dst" showname="Destination: 172.17.0.2 (172.17.0.2)" size="4" pos="30" show="172.17.0.2" value="ac110002"/>
    <field name="ip.addr" showname="Source or Destination Address: 172.17.0.2 (172.17.0.2)" hide="yes" size="4" pos="30" show="172.17.0.2" value="ac110002"/>
    <field name="ip.dst_host" showname="Destination Host: 172.17.0.2" hide="yes" size="4" pos="30" show="172.17.0.2" value="ac110002"/>
    <field name="ip.host" showname="Source or Destination Host: 172.17.0.2" hide="yes" size="4" pos="30" show="172.17.0.2" value="ac110002"/>
  </proto>
  <proto name="tcp" showname="Transmission Control Protocol, Src Port: 853 (853), Dst Port: 59682 (59682), Seq: 3051, Ack: 570, Len: 152" size="20" pos="34">
    <field name="tcp.srcport" showname="Source port: 853 (853)" size="2" pos="34" show="853" value="0355"/>
    <field name="tcp.dstport" showname="Destination port: 59682 (59682)" size="2" pos="36" show="59682" value="e922"/>
    <field name="tcp.port" showname="Source or Destination Port: 853" hide="yes" size="2" pos="34" show="853" value="0355"/>
    <field name="tcp.port" showname="Source or Destination Port: 59682" hide="yes" size="2" pos="36" show="59682" value="e922"/>
    <field name="tcp.stream" showname="Stream index: 0" size="0" pos="34" show="0"/>
    <field name="tcp.len" showname="TCP Segment Len: 152" hide="yes" size="1" pos="46" show="152" value="50"/>
    <field name="tcp.seq" showname="Sequence number: 3051    (relative sequence number)" size="4" pos="38" show="3051" value="a0d8ca54"/>
    <field name="tcp.nxtseq" showname="Next sequence number: 3203    (relative sequence number)" size="0" pos="34" show="3203"/>
    <field name="tcp.ack" showname="Acknowledgment number: 570    (relative ack number)" size="4" pos="42" show="570" value="11b68ba4"/>
    <field name="tcp.hdr_len" showname="Header length: 20 bytes" size="1" pos="46" show="20" value="50"/>
    <field name="tcp.flags" showname="Flags: 0x018 (PSH, ACK)" size="2" pos="46" show="24" value="18" unmaskedvalue="5018">
      <field name="tcp.flags.res" showname="000. .... .... = Reserved: Not set" size="1" pos="46" show="0" value="0" unmaskedvalue="50"/>
      <field name="tcp.flags.ns" showname="...0 .... .... = Nonce: Not set" size="1" pos="46" show="0" value="0" unmaskedvalue="50"/>
      <field name="tcp.flags.cwr" showname=".... 0... .... = Congestion Window Reduced (CWR): Not set" size="1" pos="47" show="0" value="0" unmaskedvalue="18"/>
      <field name="tcp.flags.ecn" showname=".... .0.. .... = ECN-Echo: Not set" size="1" pos="47" show="0" value="0" unmaskedvalue="18"/>
      <field name="tcp.flags.urg" showname=".... ..0. .... = Urgent: Not set" size="1" pos="47" show="0" value="0" unmaskedvalue="18"/>
      <field name="tcp.flags.ack" showname=".... ...1 .... = Acknowledgment: Set" size="1" pos="47" show="1" value="1" unmaskedvalue="18"/>
      <field name="tcp.flags.push" showname=".... .... 1... = Push: Set" size="1" pos="47" show="1" value="1" unmaskedvalue="18"/>
      <field name="tcp.flags.reset" showname=".... .... .0.. = Reset: Not set" size="1" pos="47" show="0" value="0" unmaskedvalue="18"/>
      <field name="tcp.flags.syn" showname=".... .... ..0. = Syn: Not set" size="1" pos="47" show="0" value="0" unmaskedvalue="18"/>
      <field name="tcp.flags.fin" showname=".... .... ...0 = Fin: Not set" size="1" pos="47" show="0" value="0" unmaskedvalue="18"/>
    </field>
    <field name="tcp.window_size_value" showname="Window size value: 31" size="2" pos="48" show="31" value="001f"/>
    <field name="tcp.window_size" showname="Calculated window size: 31744" size="2" pos="48" show="31744" value="001f"/>
    <field name="tcp.window_size_scalefactor" showname="Window size scaling factor: 1024" size="2" pos="48" show="1024" value="001f"/>
    <field name="tcp.checksum" showname="Checksum: 0xd398 [validation disabled]" size="2" pos="50" show="54168" value="d398">
      <field name="tcp.checksum_good" showname="Good Checksum: False" size="2" pos="50" show="0" value="d398"/>
      <field name="tcp.checksum_bad" showname="Bad Checksum: False" size="2" pos="50" show="0" value="d398"/>
    </field>
    <field name="tcp.analysis" showname="SEQ/ACK analysis" size="0" pos="34" show="" value="">
      <field name="tcp.analysis.bytes_in_flight" showname="Bytes in flight: 152" size="0" pos="34" show="152"/>
    </field>
  </proto>
  <proto name="fake-field-wrapper">
    <field name="data" value="170303009379e40f00306f1af87572f33e4245ac4d1540be5cae6c153eba1d1edba6e6dba0e6f2895c939775dee8cc158b7e239cf0bf18bddb210dd1e1060b05ed056203e5691594e73b8fc3f4b116d290316e347d017a4716d6fb98969dbde675d3068b59b11f9ce106f1aea559a6dba49b6fb147d5609a786f0328c83229d72dfd6402a5f0944591907423e4c997475d5a87f0f61e81b0">
      <field name="data.data" showname="Data: 170303009379e40f00306f1af87572f33e4245ac4d1540be..." size="152" pos="54" show="17:03:03:00:93:79:e4:0f:00:30:6f:1a:f8:75:72:f3:3e:42:45:ac:4d:15:40:be:5c:ae:6c:15:3e:ba:1d:1e:db:a6:e6:db:a0:e6:f2:89:5c:93:97:75:de:e8:cc:15:8b:7e:23:9c:f0:bf:18:bd:db:21:0d:d1:e1:06:0b:05:ed:05:62:03:e5:69:15:94:e7:3b:8f:c3:f4:b1:16:d2:90:31:6e:34:7d:01:7a:47:16:d6:fb:98:96:9d:bd:e6:75:d3:06:8b:59:b1:1f:9c:e1:06:f1:ae:a5:59:a6:db:a4:9b:6f:b1:47:d5:60:9a:78:6f:03:28:c8:32:29:d7:2d:fd:64:02:a5:f0:94:45:91:90:74:23:e4:c9:97:47:5d:5a:87:f0:f6:1e:81:b0" value="170303009379e40f00306f1af87572f33e4245ac4d1540be5cae6c153eba1d1edba6e6dba0e6f2895c939775dee8cc158b7e239cf0bf18bddb210dd1e1060b05ed056203e5691594e73b8fc3f4b116d290316e347d017a4716d6fb98969dbde675d3068b59b11f9ce106f1aea559a6dba49b6fb147d5609a786f0328c83229d72dfd6402a5f0944591907423e4c997475d5a87f0f61e81b0"/>
      <field name="data.len" showname="Length: 152" size="0" pos="54" show="152"/>
  </field>
</proto>
</packet>


<packet>
  <proto name="geninfo" pos="0" showname="General information" size="78">
    <field name="num" pos="0" show="17" showname="Number" value="11" size="78"/>
    <field name="len" pos="0" show="78" showname="Frame Length" value="4e" size="78"/>
    <field name="caplen" pos="0" show="78" showname="Captured Length" value="4e" size="78"/>
    <field name="timestamp" pos="0" show="Jun 27, 2019 12:20:58.548275000 CEST" showname="Captured Time" value="1561630858.548275000" size="78"/>
  </proto>
  <proto name="frame" showname="Frame 17: 78 bytes on wire (624 bits), 78 bytes captured (624 bits) on interface 0" size="78" pos="0">
    <field name="frame.interface_id" showname="Interface id: 0" size="0" pos="0" show="0"/>
    <field name="frame.encap_type" showname="Encapsulation type: Ethernet (1)" size="0" pos="0" show="1"/>
    <field name="frame.time" showname="Arrival Time: Jun 27, 2019 12:20:58.548275000 CEST" size="0" pos="0" show="&quot;Jun 27, 2019 12:20:58.548275000 CEST&quot;"/>
    <field name="frame.offset_shift" showname="Time shift for this packet: 0.000000000 seconds" size="0" pos="0" show="0.000000000"/>
    <field name="frame.time_epoch" showname="Epoch Time: 1561630858.548275000 seconds" size="0" pos="0" show="1561630858.548275000"/>
    <field name="frame.time_delta" showname="Time delta from previous captured frame: 0.000236000 seconds" size="0" pos="0" show="0.000236000"/>
    <field name="frame.time_delta_displayed" showname="Time delta from previous displayed frame: 0.000236000 seconds" size="0" pos="0" show="0.000236000"/>
    <field name="frame.time_relative" showname="Time since reference or first frame: 0.058925000 seconds" size="0" pos="0" show="0.058925000"/>
    <field name="frame.number" showname="Frame Number: 17" size="0" pos="0" show="17"/>
    <field name="frame.len" showname="Frame Length: 78 bytes (624 bits)" size="0" pos="0" show="78"/>
    <field name="frame.cap_len" showname="Capture Length: 78 bytes (624 bits)" size="0" pos="0" show="78"/>
    <field name="frame.marked" showname="Frame is marked: False" size="0" pos="0" show="0"/>
    <field name="frame.ignored" showname="Frame is ignored: False" size="0" pos="0" show="0"/>
    <field name="frame.protocols" showname="Protocols in frame: eth:ip:tcp:data" size="0" pos="0" show="eth:ip:tcp:data"/>
  </proto>
  <proto name="eth" showname="Ethernet II, Src: 02:42:ac:11:00:02 (02:42:ac:11:00:02), Dst: 02:42:71:12:56:af (02:42:71:12:56:af)" size="14" pos="0">
    <field name="eth.dst" showname="Destination: 02:42:71:12:56:af (02:42:71:12:56:af)" size="6" pos="0" show="02:42:71:12:56:af" value="0242711256af">
      <field name="eth.addr" showname="Address: 02:42:71:12:56:af (02:42:71:12:56:af)" size="6" pos="0" show="02:42:71:12:56:af" value="0242711256af"/>
      <field name="eth.lg" showname=".... ..1. .... .... .... .... = LG bit: Locally administered address (this is NOT the factory default)" size="3" pos="0" show="1" value="1" unmaskedvalue="024271"/>
      <field name="eth.ig" showname=".... ...0 .... .... .... .... = IG bit: Individual address (unicast)" size="3" pos="0" show="0" value="0" unmaskedvalue="024271"/>
    </field>
    <field name="eth.src" showname="Source: 02:42:ac:11:00:02 (02:42:ac:11:00:02)" size="6" pos="6" show="02:42:ac:11:00:02" value="0242ac110002">
      <field name="eth.addr" showname="Address: 02:42:ac:11:00:02 (02:42:ac:11:00:02)" size="6" pos="6" show="02:42:ac:11:00:02" value="0242ac110002"/>
      <field name="eth.lg" showname=".... ..1. .... .... .... .... = LG bit: Locally administered address (this is NOT the factory default)" size="3" pos="6" show="1" value="1" unmaskedvalue="0242ac"/>
      <field name="eth.ig" showname=".... ...0 .... .... .... .... = IG bit: Individual address (unicast)" size="3" pos="6" show="0" value="0" unmaskedvalue="0242ac"/>
    </field>
    <field name="eth.type" showname="Type: IP (0x0800)" size="2" pos="12" show="2048" value="0800"/>
  </proto>
  <proto name="ip" showname="Internet Protocol Version 4, Src: 172.17.0.2 (172.17.0.2), Dst: 1.1.1.1 (1.1.1.1)" size="20" pos="14">
    <field name="ip.version" showname="Version: 4" size="1" pos="14" show="4" value="45"/>
    <field name="ip.hdr_len" showname="Header length: 20 bytes" size="1" pos="14" show="20" value="45"/>
    <field name="ip.dsfield" showname="Differentiated Services Field: 0x00 (DSCP 0x00: Default; ECN: 0x00: Not-ECT (Not ECN-Capable Transport))" size="1" pos="15" show="0" value="00">
      <field name="ip.dsfield.dscp" showname="0000 00.. = Differentiated Services Codepoint: Default (0x00)" size="1" pos="15" show="0" value="0" unmaskedvalue="00"/>
      <field name="ip.dsfield.ecn" showname=".... ..00 = Explicit Congestion Notification: Not-ECT (Not ECN-Capable Transport) (0x00)" size="1" pos="15" show="0" value="0" unmaskedvalue="00"/>
    </field>
    <field name="ip.len" showname="Total Length: 64" size="2" pos="16" show="64" value="0040"/>
    <field name="ip.id" showname="Identification: 0xe782 (59266)" size="2" pos="18" show="59266" value="e782"/>
    <field name="ip.flags" showname="Flags: 0x02 (Don&apos;t Fragment)" size="1" pos="20" show="2" value="40">
      <field name="ip.flags.rb" showname="0... .... = Reserved bit: Not set" size="1" pos="20" show="0" value="40"/>
      <field name="ip.flags.df" showname=".1.. .... = Don&apos;t fragment: Set" size="1" pos="20" show="1" value="40"/>
      <field name="ip.flags.mf" showname="..0. .... = More fragments: Not set" size="1" pos="20" show="0" value="40"/>
    </field>
    <field name="ip.frag_offset" showname="Fragment offset: 0" size="2" pos="20" show="0" value="4000"/>
    <field name="ip.ttl" showname="Time to live: 64" size="1" pos="22" show="64" value="40"/>
    <field name="ip.proto" showname="Protocol: TCP (6)" size="1" pos="23" show="6" value="06"/>
    <field name="ip.checksum" showname="Header checksum: 0xa520 [validation disabled]" size="2" pos="24" show="42272" value="a520">
      <field name="ip.checksum_good" showname="Good: False" size="2" pos="24" show="0" value="a520"/>
      <field name="ip.checksum_bad" showname="Bad: False" size="2" pos="24" show="0" value="a520"/>
    </field>
    <field name="ip.src" showname="Source: 172.17.0.2 (172.17.0.2)" size="4" pos="26" show="172.17.0.2" value="ac110002"/>
    <field name="ip.addr" showname="Source or Destination Address: 172.17.0.2 (172.17.0.2)" hide="yes" size="4" pos="26" show="172.17.0.2" value="ac110002"/>
    <field name="ip.src_host" showname="Source Host: 172.17.0.2" hide="yes" size="4" pos="26" show="172.17.0.2" value="ac110002"/>
    <field name="ip.host" showname="Source or Destination Host: 172.17.0.2" hide="yes" size="4" pos="26" show="172.17.0.2" value="ac110002"/>
    <field name="ip.dst" showname="Destination: 1.1.1.1 (1.1.1.1)" size="4" pos="30" show="1.1.1.1" value="01010101"/>
    <field name="ip.addr" showname="Source or Destination Address: 1.1.1.1 (1.1.1.1)" hide="yes" size="4" pos="30" show="1.1.1.1" value="01010101"/>
    <field name="ip.dst_host" showname="Destination Host: 1.1.1.1" hide="yes" size="4" pos="30" show="1.1.1.1" value="01010101"/>
    <field name="ip.host" showname="Source or Destination Host: 1.1.1.1" hide="yes" size="4" pos="30" show="1.1.1.1" value="01010101"/>
  </proto>
  <proto name="tcp" showname="Transmission Control Protocol, Src Port: 59682 (59682), Dst Port: 853 (853), Seq: 570, Ack: 3203, Len: 24" size="20" pos="34">
    <field name="tcp.srcport" showname="Source port: 59682 (59682)" size="2" pos="34" show="59682" value="e922"/>
    <field name="tcp.dstport" showname="Destination port: 853 (853)" size="2" pos="36" show="853" value="0355"/>
    <field name="tcp.port" showname="Source or Destination Port: 59682" hide="yes" size="2" pos="34" show="59682" value="e922"/>
    <field name="tcp.port" showname="Source or Destination Port: 853" hide="yes" size="2" pos="36" show="853" value="0355"/>
    <field name="tcp.stream" showname="Stream index: 0" size="0" pos="34" show="0"/>
    <field name="tcp.len" showname="TCP Segment Len: 24" hide="yes" size="1" pos="46" show="24" value="50"/>
    <field name="tcp.seq" showname="Sequence number: 570    (relative sequence number)" size="4" pos="38" show="570" value="11b68ba4"/>
    <field name="tcp.nxtseq" showname="Next sequence number: 594    (relative sequence number)" size="0" pos="34" show="594"/>
    <field name="tcp.ack" showname="Acknowledgment number: 3203    (relative ack number)" size="4" pos="42" show="3203" value="a0d8caec"/>
    <field name="tcp.hdr_len" showname="Header length: 20 bytes" size="1" pos="46" show="20" value="50"/>
    <field name="tcp.flags" showname="Flags: 0x018 (PSH, ACK)" size="2" pos="46" show="24" value="18" unmaskedvalue="5018">
      <field name="tcp.flags.res" showname="000. .... .... = Reserved: Not set" size="1" pos="46" show="0" value="0" unmaskedvalue="50"/>
      <field name="tcp.flags.ns" showname="...0 .... .... = Nonce: Not set" size="1" pos="46" show="0" value="0" unmaskedvalue="50"/>
      <field name="tcp.flags.cwr" showname=".... 0... .... = Congestion Window Reduced (CWR): Not set" size="1" pos="47" show="0" value="0" unmaskedvalue="18"/>
      <field name="tcp.flags.ecn" showname=".... .0.. .... = ECN-Echo: Not set" size="1" pos="47" show="0" value="0" unmaskedvalue="18"/>
      <field name="tcp.flags.urg" showname=".... ..0. .... = Urgent: Not set" size="1" pos="47" show="0" value="0" unmaskedvalue="18"/>
      <field name="tcp.flags.ack" showname=".... ...1 .... = Acknowledgment: Set" size="1" pos="47" show="1" value="1" unmaskedvalue="18"/>
      <field name="tcp.flags.push" showname=".... .... 1... = Push: Set" size="1" pos="47" show="1" value="1" unmaskedvalue="18"/>
      <field name="tcp.flags.reset" showname=".... .... .0.. = Reset: Not set" size="1" pos="47" show="0" value="0" unmaskedvalue="18"/>
      <field name="tcp.flags.syn" showname=".... .... ..0. = Syn: Not set" size="1" pos="47" show="0" value="0" unmaskedvalue="18"/>
      <field name="tcp.flags.fin" showname=".... .... ...0 = Fin: Not set" size="1" pos="47" show="0" value="0" unmaskedvalue="18"/>
    </field>
    <field name="tcp.window_size_value" showname="Window size value: 324" size="2" pos="48" show="324" value="0144"/>
    <field name="tcp.window_size" showname="Calculated window size: 41472" size="2" pos="48" show="41472" value="0144"/>
    <field name="tcp.window_size_scalefactor" showname="Window size scaling factor: 128" size="2" pos="48" show="128" value="0144"/>
    <field name="tcp.checksum" showname="Checksum: 0xae47 [validation disabled]" size="2" pos="50" show="44615" value="ae47">
      <field name="tcp.checksum_good" showname="Good Checksum: False" size="2" pos="50" show="0" value="ae47"/>
      <field name="tcp.checksum_bad" showname="Bad Checksum: False" size="2" pos="50" show="0" value="ae47"/>
    </field>
    <field name="tcp.analysis" showname="SEQ/ACK analysis" size="0" pos="34" show="" value="">
      <field name="tcp.analysis.acks_frame" showname="This is an ACK to the segment in frame: 16" size="0" pos="34" show="16"/>
      <field name="tcp.analysis.ack_rtt" showname="The RTT to ACK the segment was: 0.000236000 seconds" size="0" pos="34" show="0.000236000"/>
      <field name="tcp.analysis.bytes_in_flight" showname="Bytes in flight: 24" size="0" pos="34" show="24"/>
    </field>
  </proto>
  <proto name="fake-field-wrapper">
    <field name="data" value="1703030013605da7209b2017441f24c0bc66183cf76ae63b">
      <field name="data.data" showname="Data: 1703030013605da7209b2017441f24c0bc66183cf76ae63b" size="24" pos="54" show="17:03:03:00:13:60:5d:a7:20:9b:20:17:44:1f:24:c0:bc:66:18:3c:f7:6a:e6:3b" value="1703030013605da7209b2017441f24c0bc66183cf76ae63b"/>
      <field name="data.len" showname="Length: 24" size="0" pos="54" show="24"/>
  </field>
</proto>
</packet>


<packet>
  <proto name="geninfo" pos="0" showname="General information" size="54">
    <field name="num" pos="0" show="18" showname="Number" value="12" size="54"/>
    <field name="len" pos="0" show="54" showname="Frame Length" value="36" size="54"/>
    <field name="caplen" pos="0" show="54" showname="Captured Length" value="36" size="54"/>
    <field name="timestamp" pos="0" show="Jun 27, 2019 12:20:58.548343000 CEST" showname="Captured Time" value="1561630858.548343000" size="54"/>
  </proto>
  <proto name="frame" showname="Frame 18: 54 bytes on wire (432 bits), 54 bytes captured (432 bits) on interface 0" size="54" pos="0">
    <field name="frame.interface_id" showname="Interface id: 0" size="0" pos="0" show="0"/>
    <field name="frame.encap_type" showname="Encapsulation type: Ethernet (1)" size="0" pos="0" show="1"/>
    <field name="frame.time" showname="Arrival Time: Jun 27, 2019 12:20:58.548343000 CEST" size="0" pos="0" show="&quot;Jun 27, 2019 12:20:58.548343000 CEST&quot;"/>
    <field name="frame.offset_shift" showname="Time shift for this packet: 0.000000000 seconds" size="0" pos="0" show="0.000000000"/>
    <field name="frame.time_epoch" showname="Epoch Time: 1561630858.548343000 seconds" size="0" pos="0" show="1561630858.548343000"/>
    <field name="frame.time_delta" showname="Time delta from previous captured frame: 0.000068000 seconds" size="0" pos="0" show="0.000068000"/>
    <field name="frame.time_delta_displayed" showname="Time delta from previous displayed frame: 0.000068000 seconds" size="0" pos="0" show="0.000068000"/>
    <field name="frame.time_relative" showname="Time since reference or first frame: 0.058993000 seconds" size="0" pos="0" show="0.058993000"/>
    <field name="frame.number" showname="Frame Number: 18" size="0" pos="0" show="18"/>
    <field name="frame.len" showname="Frame Length: 54 bytes (432 bits)" size="0" pos="0" show="54"/>
    <field name="frame.cap_len" showname="Capture Length: 54 bytes (432 bits)" size="0" pos="0" show="54"/>
    <field name="frame.marked" showname="Frame is marked: False" size="0" pos="0" show="0"/>
    <field name="frame.ignored" showname="Frame is ignored: False" size="0" pos="0" show="0"/>
    <field name="frame.protocols" showname="Protocols in frame: eth:ip:tcp" size="0" pos="0" show="eth:ip:tcp"/>
  </proto>
  <proto name="eth" showname="Ethernet II, Src: 02:42:ac:11:00:02 (02:42:ac:11:00:02), Dst: 02:42:71:12:56:af (02:42:71:12:56:af)" size="14" pos="0">
    <field name="eth.dst" showname="Destination: 02:42:71:12:56:af (02:42:71:12:56:af)" size="6" pos="0" show="02:42:71:12:56:af" value="0242711256af">
      <field name="eth.addr" showname="Address: 02:42:71:12:56:af (02:42:71:12:56:af)" size="6" pos="0" show="02:42:71:12:56:af" value="0242711256af"/>
      <field name="eth.lg" showname=".... ..1. .... .... .... .... = LG bit: Locally administered address (this is NOT the factory default)" size="3" pos="0" show="1" value="1" unmaskedvalue="024271"/>
      <field name="eth.ig" showname=".... ...0 .... .... .... .... = IG bit: Individual address (unicast)" size="3" pos="0" show="0" value="0" unmaskedvalue="024271"/>
    </field>
    <field name="eth.src" showname="Source: 02:42:ac:11:00:02 (02:42:ac:11:00:02)" size="6" pos="6" show="02:42:ac:11:00:02" value="0242ac110002">
      <field name="eth.addr" showname="Address: 02:42:ac:11:00:02 (02:42:ac:11:00:02)" size="6" pos="6" show="02:42:ac:11:00:02" value="0242ac110002"/>
      <field name="eth.lg" showname=".... ..1. .... .... .... .... = LG bit: Locally administered address (this is NOT the factory default)" size="3" pos="6" show="1" value="1" unmaskedvalue="0242ac"/>
      <field name="eth.ig" showname=".... ...0 .... .... .... .... = IG bit: Individual address (unicast)" size="3" pos="6" show="0" value="0" unmaskedvalue="0242ac"/>
    </field>
    <field name="eth.type" showname="Type: IP (0x0800)" size="2" pos="12" show="2048" value="0800"/>
  </proto>
  <proto name="ip" showname="Internet Protocol Version 4, Src: 172.17.0.2 (172.17.0.2), Dst: 1.1.1.1 (1.1.1.1)" size="20" pos="14">
    <field name="ip.version" showname="Version: 4" size="1" pos="14" show="4" value="45"/>
    <field name="ip.hdr_len" showname="Header length: 20 bytes" size="1" pos="14" show="20" value="45"/>
    <field name="ip.dsfield" showname="Differentiated Services Field: 0x00 (DSCP 0x00: Default; ECN: 0x00: Not-ECT (Not ECN-Capable Transport))" size="1" pos="15" show="0" value="00">
      <field name="ip.dsfield.dscp" showname="0000 00.. = Differentiated Services Codepoint: Default (0x00)" size="1" pos="15" show="0" value="0" unmaskedvalue="00"/>
      <field name="ip.dsfield.ecn" showname=".... ..00 = Explicit Congestion Notification: Not-ECT (Not ECN-Capable Transport) (0x00)" size="1" pos="15" show="0" value="0" unmaskedvalue="00"/>
    </field>
    <field name="ip.len" showname="Total Length: 40" size="2" pos="16" show="40" value="0028"/>
    <field name="ip.id" showname="Identification: 0xe783 (59267)" size="2" pos="18" show="59267" value="e783"/>
    <field name="ip.flags" showname="Flags: 0x02 (Don&apos;t Fragment)" size="1" pos="20" show="2" value="40">
      <field name="ip.flags.rb" showname="0... .... = Reserved bit: Not set" size="1" pos="20" show="0" value="40"/>
      <field name="ip.flags.df" showname=".1.. .... = Don&apos;t fragment: Set" size="1" pos="20" show="1" value="40"/>
      <field name="ip.flags.mf" showname="..0. .... = More fragments: Not set" size="1" pos="20" show="0" value="40"/>
    </field>
    <field name="ip.frag_offset" showname="Fragment offset: 0" size="2" pos="20" show="0" value="4000"/>
    <field name="ip.ttl" showname="Time to live: 64" size="1" pos="22" show="64" value="40"/>
    <field name="ip.proto" showname="Protocol: TCP (6)" size="1" pos="23" show="6" value="06"/>
    <field name="ip.checksum" showname="Header checksum: 0xa537 [validation disabled]" size="2" pos="24" show="42295" value="a537">
      <field name="ip.checksum_good" showname="Good: False" size="2" pos="24" show="0" value="a537"/>
      <field name="ip.checksum_bad" showname="Bad: False" size="2" pos="24" show="0" value="a537"/>
    </field>
    <field name="ip.src" showname="Source: 172.17.0.2 (172.17.0.2)" size="4" pos="26" show="172.17.0.2" value="ac110002"/>
    <field name="ip.addr" showname="Source or Destination Address: 172.17.0.2 (172.17.0.2)" hide="yes" size="4" pos="26" show="172.17.0.2" value="ac110002"/>
    <field name="ip.src_host" showname="Source Host: 172.17.0.2" hide="yes" size="4" pos="26" show="172.17.0.2" value="ac110002"/>
    <field name="ip.host" showname="Source or Destination Host: 172.17.0.2" hide="yes" size="4" pos="26" show="172.17.0.2" value="ac110002"/>
    <field name="ip.dst" showname="Destination: 1.1.1.1 (1.1.1.1)" size="4" pos="30" show="1.1.1.1" value="01010101"/>
    <field name="ip.addr" showname="Source or Destination Address: 1.1.1.1 (1.1.1.1)" hide="yes" size="4" pos="30" show="1.1.1.1" value="01010101"/>
    <field name="ip.dst_host" showname="Destination Host: 1.1.1.1" hide="yes" size="4" pos="30" show="1.1.1.1" value="01010101"/>
    <field name="ip.host" showname="Source or Destination Host: 1.1.1.1" hide="yes" size="4" pos="30" show="1.1.1.1" value="01010101"/>
  </proto>
  <proto name="tcp" showname="Transmission Control Protocol, Src Port: 59682 (59682), Dst Port: 853 (853), Seq: 594, Ack: 3203, Len: 0" size="20" pos="34">
    <field name="tcp.srcport" showname="Source port: 59682 (59682)" size="2" pos="34" show="59682" value="e922"/>
    <field name="tcp.dstport" showname="Destination port: 853 (853)" size="2" pos="36" show="853" value="0355"/>
    <field name="tcp.port" showname="Source or Destination Port: 59682" hide="yes" size="2" pos="34" show="59682" value="e922"/>
    <field name="tcp.port" showname="Source or Destination Port: 853" hide="yes" size="2" pos="36" show="853" value="0355"/>
    <field name="tcp.stream" showname="Stream index: 0" size="0" pos="34" show="0"/>
    <field name="tcp.len" showname="TCP Segment Len: 0" hide="yes" size="1" pos="46" show="0" value="50"/>
    <field name="tcp.seq" showname="Sequence number: 594    (relative sequence number)" size="4" pos="38" show="594" value="11b68bbc"/>
    <field name="tcp.ack" showname="Acknowledgment number: 3203    (relative ack number)" size="4" pos="42" show="3203" value="a0d8caec"/>
    <field name="tcp.hdr_len" showname="Header length: 20 bytes" size="1" pos="46" show="20" value="50"/>
    <field name="tcp.flags" showname="Flags: 0x011 (FIN, ACK)" size="2" pos="46" show="17" value="11" unmaskedvalue="5011">
      <field name="tcp.flags.res" showname="000. .... .... = Reserved: Not set" size="1" pos="46" show="0" value="0" unmaskedvalue="50"/>
      <field name="tcp.flags.ns" showname="...0 .... .... = Nonce: Not set" size="1" pos="46" show="0" value="0" unmaskedvalue="50"/>
      <field name="tcp.flags.cwr" showname=".... 0... .... = Congestion Window Reduced (CWR): Not set" size="1" pos="47" show="0" value="0" unmaskedvalue="11"/>
      <field name="tcp.flags.ecn" showname=".... .0.. .... = ECN-Echo: Not set" size="1" pos="47" show="0" value="0" unmaskedvalue="11"/>
      <field name="tcp.flags.urg" showname=".... ..0. .... = Urgent: Not set" size="1" pos="47" show="0" value="0" unmaskedvalue="11"/>
      <field name="tcp.flags.ack" showname=".... ...1 .... = Acknowledgment: Set" size="1" pos="47" show="1" value="1" unmaskedvalue="11"/>
      <field name="tcp.flags.push" showname=".... .... 0... = Push: Not set" size="1" pos="47" show="0" value="0" unmaskedvalue="11"/>
      <field name="tcp.flags.reset" showname=".... .... .0.. = Reset: Not set" size="1" pos="47" show="0" value="0" unmaskedvalue="11"/>
      <field name="tcp.flags.syn" showname=".... .... ..0. = Syn: Not set" size="1" pos="47" show="0" value="0" unmaskedvalue="11"/>
      <field name="tcp.flags.fin" showname=".... .... ...1 = Fin: Set" size="1" pos="47" show="1" value="1" unmaskedvalue="11">
        <field name="expert" showname="Expert Info (Chat/Sequence): Connection finish (FIN)" size="0" pos="47">
          <field name="expert.message" showname="Message: Connection finish (FIN)" size="0" pos="0" show="Connection finish (FIN)"/>
          <field name="expert.severity" showname="Severity level: Chat" size="0" pos="0" show="2097152"/>
          <field name="expert.group" showname="Group: Sequence" size="0" pos="0" show="33554432"/>
        </field>
      </field>
    </field>
    <field name="tcp.window_size_value" showname="Window size value: 324" size="2" pos="48" show="324" value="0144"/>
    <field name="tcp.window_size" showname="Calculated window size: 41472" size="2" pos="48" show="41472" value="0144"/>
    <field name="tcp.window_size_scalefactor" showname="Window size scaling factor: 128" size="2" pos="48" show="128" value="0144"/>
    <field name="tcp.checksum" showname="Checksum: 0xae2f [validation disabled]" size="2" pos="50" show="44591" value="ae2f">
      <field name="tcp.checksum_good" showname="Good Checksum: False" size="2" pos="50" show="0" value="ae2f"/>
      <field name="tcp.checksum_bad" showname="Bad Checksum: False" size="2" pos="50" show="0" value="ae2f"/>
    </field>
  </proto>
</packet>


<packet>
  <proto name="geninfo" pos="0" showname="General information" size="54">
    <field name="num" pos="0" show="19" showname="Number" value="13" size="54"/>
    <field name="len" pos="0" show="54" showname="Frame Length" value="36" size="54"/>
    <field name="caplen" pos="0" show="54" showname="Captured Length" value="36" size="54"/>
    <field name="timestamp" pos="0" show="Jun 27, 2019 12:20:58.551867000 CEST" showname="Captured Time" value="1561630858.551867000" size="54"/>
  </proto>
  <proto name="frame" showname="Frame 19: 54 bytes on wire (432 bits), 54 bytes captured (432 bits) on interface 0" size="54" pos="0">
    <field name="frame.interface_id" showname="Interface id: 0" size="0" pos="0" show="0"/>
    <field name="frame.encap_type" showname="Encapsulation type: Ethernet (1)" size="0" pos="0" show="1"/>
    <field name="frame.time" showname="Arrival Time: Jun 27, 2019 12:20:58.551867000 CEST" size="0" pos="0" show="&quot;Jun 27, 2019 12:20:58.551867000 CEST&quot;"/>
    <field name="frame.offset_shift" showname="Time shift for this packet: 0.000000000 seconds" size="0" pos="0" show="0.000000000"/>
    <field name="frame.time_epoch" showname="Epoch Time: 1561630858.551867000 seconds" size="0" pos="0" show="1561630858.551867000"/>
    <field name="frame.time_delta" showname="Time delta from previous captured frame: 0.003524000 seconds" size="0" pos="0" show="0.003524000"/>
    <field name="frame.time_delta_displayed" showname="Time delta from previous displayed frame: 0.003524000 seconds" size="0" pos="0" show="0.003524000"/>
    <field name="frame.time_relative" showname="Time since reference or first frame: 0.062517000 seconds" size="0" pos="0" show="0.062517000"/>
    <field name="frame.number" showname="Frame Number: 19" size="0" pos="0" show="19"/>
    <field name="frame.len" showname="Frame Length: 54 bytes (432 bits)" size="0" pos="0" show="54"/>
    <field name="frame.cap_len" showname="Capture Length: 54 bytes (432 bits)" size="0" pos="0" show="54"/>
    <field name="frame.marked" showname="Frame is marked: False" size="0" pos="0" show="0"/>
    <field name="frame.ignored" showname="Frame is ignored: False" size="0" pos="0" show="0"/>
    <field name="frame.protocols" showname="Protocols in frame: eth:ip:tcp" size="0" pos="0" show="eth:ip:tcp"/>
  </proto>
  <proto name="eth" showname="Ethernet II, Src: 02:42:71:12:56:af (02:42:71:12:56:af), Dst: 02:42:ac:11:00:02 (02:42:ac:11:00:02)" size="14" pos="0">
    <field name="eth.dst" showname="Destination: 02:42:ac:11:00:02 (02:42:ac:11:00:02)" size="6" pos="0" show="02:42:ac:11:00:02" value="0242ac110002">
      <field name="eth.addr" showname="Address: 02:42:ac:11:00:02 (02:42:ac:11:00:02)" size="6" pos="0" show="02:42:ac:11:00:02" value="0242ac110002"/>
      <field name="eth.lg" showname=".... ..1. .... .... .... .... = LG bit: Locally administered address (this is NOT the factory default)" size="3" pos="0" show="1" value="1" unmaskedvalue="0242ac"/>
      <field name="eth.ig" showname=".... ...0 .... .... .... .... = IG bit: Individual address (unicast)" size="3" pos="0" show="0" value="0" unmaskedvalue="0242ac"/>
    </field>
    <field name="eth.src" showname="Source: 02:42:71:12:56:af (02:42:71:12:56:af)" size="6" pos="6" show="02:42:71:12:56:af" value="0242711256af">
      <field name="eth.addr" showname="Address: 02:42:71:12:56:af (02:42:71:12:56:af)" size="6" pos="6" show="02:42:71:12:56:af" value="0242711256af"/>
      <field name="eth.lg" showname=".... ..1. .... .... .... .... = LG bit: Locally administered address (this is NOT the factory default)" size="3" pos="6" show="1" value="1" unmaskedvalue="024271"/>
      <field name="eth.ig" showname=".... ...0 .... .... .... .... = IG bit: Individual address (unicast)" size="3" pos="6" show="0" value="0" unmaskedvalue="024271"/>
    </field>
    <field name="eth.type" showname="Type: IP (0x0800)" size="2" pos="12" show="2048" value="0800"/>
  </proto>
  <proto name="ip" showname="Internet Protocol Version 4, Src: 1.1.1.1 (1.1.1.1), Dst: 172.17.0.2 (172.17.0.2)" size="20" pos="14">
    <field name="ip.version" showname="Version: 4" size="1" pos="14" show="4" value="45"/>
    <field name="ip.hdr_len" showname="Header length: 20 bytes" size="1" pos="14" show="20" value="45"/>
    <field name="ip.dsfield" showname="Differentiated Services Field: 0x00 (DSCP 0x00: Default; ECN: 0x00: Not-ECT (Not ECN-Capable Transport))" size="1" pos="15" show="0" value="00">
      <field name="ip.dsfield.dscp" showname="0000 00.. = Differentiated Services Codepoint: Default (0x00)" size="1" pos="15" show="0" value="0" unmaskedvalue="00"/>
      <field name="ip.dsfield.ecn" showname=".... ..00 = Explicit Congestion Notification: Not-ECT (Not ECN-Capable Transport) (0x00)" size="1" pos="15" show="0" value="0" unmaskedvalue="00"/>
    </field>
    <field name="ip.len" showname="Total Length: 40" size="2" pos="16" show="40" value="0028"/>
    <field name="ip.id" showname="Identification: 0x6dc0 (28096)" size="2" pos="18" show="28096" value="6dc0"/>
    <field name="ip.flags" showname="Flags: 0x02 (Don&apos;t Fragment)" size="1" pos="20" show="2" value="40">
      <field name="ip.flags.rb" showname="0... .... = Reserved bit: Not set" size="1" pos="20" show="0" value="40"/>
      <field name="ip.flags.df" showname=".1.. .... = Don&apos;t fragment: Set" size="1" pos="20" show="1" value="40"/>
      <field name="ip.flags.mf" showname="..0. .... = More fragments: Not set" size="1" pos="20" show="0" value="40"/>
    </field>
    <field name="ip.frag_offset" showname="Fragment offset: 0" size="2" pos="20" show="0" value="4000"/>
    <field name="ip.ttl" showname="Time to live: 57" size="1" pos="22" show="57" value="39"/>
    <field name="ip.proto" showname="Protocol: TCP (6)" size="1" pos="23" show="6" value="06"/>
    <field name="ip.checksum" showname="Header checksum: 0x25fb [validation disabled]" size="2" pos="24" show="9723" value="25fb">
      <field name="ip.checksum_good" showname="Good: False" size="2" pos="24" show="0" value="25fb"/>
      <field name="ip.checksum_bad" showname="Bad: False" size="2" pos="24" show="0" value="25fb"/>
    </field>
    <field name="ip.src" showname="Source: 1.1.1.1 (1.1.1.1)" size="4" pos="26" show="1.1.1.1" value="01010101"/>
    <field name="ip.addr" showname="Source or Destination Address: 1.1.1.1 (1.1.1.1)" hide="yes" size="4" pos="26" show="1.1.1.1" value="01010101"/>
    <field name="ip.src_host" showname="Source Host: 1.1.1.1" hide="yes" size="4" pos="26" show="1.1.1.1" value="01010101"/>
    <field name="ip.host" showname="Source or Destination Host: 1.1.1.1" hide="yes" size="4" pos="26" show="1.1.1.1" value="01010101"/>
    <field name="ip.dst" showname="Destination: 172.17.0.2 (172.17.0.2)" size="4" pos="30" show="172.17.0.2" value="ac110002"/>
    <field name="ip.addr" showname="Source or Destination Address: 172.17.0.2 (172.17.0.2)" hide="yes" size="4" pos="30" show="172.17.0.2" value="ac110002"/>
    <field name="ip.dst_host" showname="Destination Host: 172.17.0.2" hide="yes" size="4" pos="30" show="172.17.0.2" value="ac110002"/>
    <field name="ip.host" showname="Source or Destination Host: 172.17.0.2" hide="yes" size="4" pos="30" show="172.17.0.2" value="ac110002"/>
  </proto>
  <proto name="tcp" showname="Transmission Control Protocol, Src Port: 853 (853), Dst Port: 59682 (59682), Seq: 3203, Ack: 595, Len: 0" size="20" pos="34">
    <field name="tcp.srcport" showname="Source port: 853 (853)" size="2" pos="34" show="853" value="0355"/>
    <field name="tcp.dstport" showname="Destination port: 59682 (59682)" size="2" pos="36" show="59682" value="e922"/>
    <field name="tcp.port" showname="Source or Destination Port: 853" hide="yes" size="2" pos="34" show="853" value="0355"/>
    <field name="tcp.port" showname="Source or Destination Port: 59682" hide="yes" size="2" pos="36" show="59682" value="e922"/>
    <field name="tcp.stream" showname="Stream index: 0" size="0" pos="34" show="0"/>
    <field name="tcp.len" showname="TCP Segment Len: 0" hide="yes" size="1" pos="46" show="0" value="50"/>
    <field name="tcp.seq" showname="Sequence number: 3203    (relative sequence number)" size="4" pos="38" show="3203" value="a0d8caec"/>
    <field name="tcp.ack" showname="Acknowledgment number: 595    (relative ack number)" size="4" pos="42" show="595" value="11b68bbd"/>
    <field name="tcp.hdr_len" showname="Header length: 20 bytes" size="1" pos="46" show="20" value="50"/>
    <field name="tcp.flags" showname="Flags: 0x011 (FIN, ACK)" size="2" pos="46" show="17" value="11" unmaskedvalue="5011">
      <field name="tcp.flags.res" showname="000. .... .... = Reserved: Not set" size="1" pos="46" show="0" value="0" unmaskedvalue="50"/>
      <field name="tcp.flags.ns" showname="...0 .... .... = Nonce: Not set" size="1" pos="46" show="0" value="0" unmaskedvalue="50"/>
      <field name="tcp.flags.cwr" showname=".... 0... .... = Congestion Window Reduced (CWR): Not set" size="1" pos="47" show="0" value="0" unmaskedvalue="11"/>
      <field name="tcp.flags.ecn" showname=".... .0.. .... = ECN-Echo: Not set" size="1" pos="47" show="0" value="0" unmaskedvalue="11"/>
      <field name="tcp.flags.urg" showname=".... ..0. .... = Urgent: Not set" size="1" pos="47" show="0" value="0" unmaskedvalue="11"/>
      <field name="tcp.flags.ack" showname=".... ...1 .... = Acknowledgment: Set" size="1" pos="47" show="1" value="1" unmaskedvalue="11"/>
      <field name="tcp.flags.push" showname=".... .... 0... = Push: Not set" size="1" pos="47" show="0" value="0" unmaskedvalue="11"/>
      <field name="tcp.flags.reset" showname=".... .... .0.. = Reset: Not set" size="1" pos="47" show="0" value="0" unmaskedvalue="11"/>
      <field name="tcp.flags.syn" showname=".... .... ..0. = Syn: Not set" size="1" pos="47" show="0" value="0" unmaskedvalue="11"/>
      <field name="tcp.flags.fin" showname=".... .... ...1 = Fin: Set" size="1" pos="47" show="1" value="1" unmaskedvalue="11">
        <field name="expert" showname="Expert Info (Chat/Sequence): Connection finish (FIN)" size="0" pos="47">
          <field name="expert.message" showname="Message: Connection finish (FIN)" size="0" pos="0" show="Connection finish (FIN)"/>
          <field name="expert.severity" showname="Severity level: Chat" size="0" pos="0" show="2097152"/>
          <field name="expert.group" showname="Group: Sequence" size="0" pos="0" show="33554432"/>
        </field>
      </field>
    </field>
    <field name="tcp.window_size_value" showname="Window size value: 31" size="2" pos="48" show="31" value="001f"/>
    <field name="tcp.window_size" showname="Calculated window size: 31744" size="2" pos="48" show="31744" value="001f"/>
    <field name="tcp.window_size_scalefactor" showname="Window size scaling factor: 1024" size="2" pos="48" show="1024" value="001f"/>
    <field name="tcp.checksum" showname="Checksum: 0x0bef [validation disabled]" size="2" pos="50" show="3055" value="0bef">
      <field name="tcp.checksum_good" showname="Good Checksum: False" size="2" pos="50" show="0" value="0bef"/>
      <field name="tcp.checksum_bad" showname="Bad Checksum: False" size="2" pos="50" show="0" value="0bef"/>
    </field>
    <field name="tcp.analysis" showname="SEQ/ACK analysis" size="0" pos="34" show="" value="">
      <field name="tcp.analysis.acks_frame" showname="This is an ACK to the segment in frame: 18" size="0" pos="34" show="18"/>
      <field name="tcp.analysis.ack_rtt" showname="The RTT to ACK the segment was: 0.003524000 seconds" size="0" pos="34" show="0.003524000"/>
    </field>
  </proto>
</packet>


<packet>
  <proto name="geninfo" pos="0" showname="General information" size="54">
    <field name="num" pos="0" show="20" showname="Number" value="14" size="54"/>
    <field name="len" pos="0" show="54" showname="Frame Length" value="36" size="54"/>
    <field name="caplen" pos="0" show="54" showname="Captured Length" value="36" size="54"/>
    <field name="timestamp" pos="0" show="Jun 27, 2019 12:20:58.551898000 CEST" showname="Captured Time" value="1561630858.551898000" size="54"/>
  </proto>
  <proto name="frame" showname="Frame 20: 54 bytes on wire (432 bits), 54 bytes captured (432 bits) on interface 0" size="54" pos="0">
    <field name="frame.interface_id" showname="Interface id: 0" size="0" pos="0" show="0"/>
    <field name="frame.encap_type" showname="Encapsulation type: Ethernet (1)" size="0" pos="0" show="1"/>
    <field name="frame.time" showname="Arrival Time: Jun 27, 2019 12:20:58.551898000 CEST" size="0" pos="0" show="&quot;Jun 27, 2019 12:20:58.551898000 CEST&quot;"/>
    <field name="frame.offset_shift" showname="Time shift for this packet: 0.000000000 seconds" size="0" pos="0" show="0.000000000"/>
    <field name="frame.time_epoch" showname="Epoch Time: 1561630858.551898000 seconds" size="0" pos="0" show="1561630858.551898000"/>
    <field name="frame.time_delta" showname="Time delta from previous captured frame: 0.000031000 seconds" size="0" pos="0" show="0.000031000"/>
    <field name="frame.time_delta_displayed" showname="Time delta from previous displayed frame: 0.000031000 seconds" size="0" pos="0" show="0.000031000"/>
    <field name="frame.time_relative" showname="Time since reference or first frame: 0.062548000 seconds" size="0" pos="0" show="0.062548000"/>
    <field name="frame.number" showname="Frame Number: 20" size="0" pos="0" show="20"/>
    <field name="frame.len" showname="Frame Length: 54 bytes (432 bits)" size="0" pos="0" show="54"/>
    <field name="frame.cap_len" showname="Capture Length: 54 bytes (432 bits)" size="0" pos="0" show="54"/>
    <field name="frame.marked" showname="Frame is marked: False" size="0" pos="0" show="0"/>
    <field name="frame.ignored" showname="Frame is ignored: False" size="0" pos="0" show="0"/>
    <field name="frame.protocols" showname="Protocols in frame: eth:ip:tcp" size="0" pos="0" show="eth:ip:tcp"/>
  </proto>
  <proto name="eth" showname="Ethernet II, Src: 02:42:ac:11:00:02 (02:42:ac:11:00:02), Dst: 02:42:71:12:56:af (02:42:71:12:56:af)" size="14" pos="0">
    <field name="eth.dst" showname="Destination: 02:42:71:12:56:af (02:42:71:12:56:af)" size="6" pos="0" show="02:42:71:12:56:af" value="0242711256af">
      <field name="eth.addr" showname="Address: 02:42:71:12:56:af (02:42:71:12:56:af)" size="6" pos="0" show="02:42:71:12:56:af" value="0242711256af"/>
      <field name="eth.lg" showname=".... ..1. .... .... .... .... = LG bit: Locally administered address (this is NOT the factory default)" size="3" pos="0" show="1" value="1" unmaskedvalue="024271"/>
      <field name="eth.ig" showname=".... ...0 .... .... .... .... = IG bit: Individual address (unicast)" size="3" pos="0" show="0" value="0" unmaskedvalue="024271"/>
    </field>
    <field name="eth.src" showname="Source: 02:42:ac:11:00:02 (02:42:ac:11:00:02)" size="6" pos="6" show="02:42:ac:11:00:02" value="0242ac110002">
      <field name="eth.addr" showname="Address: 02:42:ac:11:00:02 (02:42:ac:11:00:02)" size="6" pos="6" show="02:42:ac:11:00:02" value="0242ac110002"/>
      <field name="eth.lg" showname=".... ..1. .... .... .... .... = LG bit: Locally administered address (this is NOT the factory default)" size="3" pos="6" show="1" value="1" unmaskedvalue="0242ac"/>
      <field name="eth.ig" showname=".... ...0 .... .... .... .... = IG bit: Individual address (unicast)" size="3" pos="6" show="0" value="0" unmaskedvalue="0242ac"/>
    </field>
    <field name="eth.type" showname="Type: IP (0x0800)" size="2" pos="12" show="2048" value="0800"/>
  </proto>
  <proto name="ip" showname="Internet Protocol Version 4, Src: 172.17.0.2 (172.17.0.2), Dst: 1.1.1.1 (1.1.1.1)" size="20" pos="14">
    <field name="ip.version" showname="Version: 4" size="1" pos="14" show="4" value="45"/>
    <field name="ip.hdr_len" showname="Header length: 20 bytes" size="1" pos="14" show="20" value="45"/>
    <field name="ip.dsfield" showname="Differentiated Services Field: 0x00 (DSCP 0x00: Default; ECN: 0x00: Not-ECT (Not ECN-Capable Transport))" size="1" pos="15" show="0" value="00">
      <field name="ip.dsfield.dscp" showname="0000 00.. = Differentiated Services Codepoint: Default (0x00)" size="1" pos="15" show="0" value="0" unmaskedvalue="00"/>
      <field name="ip.dsfield.ecn" showname=".... ..00 = Explicit Congestion Notification: Not-ECT (Not ECN-Capable Transport) (0x00)" size="1" pos="15" show="0" value="0" unmaskedvalue="00"/>
    </field>
    <field name="ip.len" showname="Total Length: 40" size="2" pos="16" show="40" value="0028"/>
    <field name="ip.id" showname="Identification: 0xe784 (59268)" size="2" pos="18" show="59268" value="e784"/>
    <field name="ip.flags" showname="Flags: 0x02 (Don&apos;t Fragment)" size="1" pos="20" show="2" value="40">
      <field name="ip.flags.rb" showname="0... .... = Reserved bit: Not set" size="1" pos="20" show="0" value="40"/>
      <field name="ip.flags.df" showname=".1.. .... = Don&apos;t fragment: Set" size="1" pos="20" show="1" value="40"/>
      <field name="ip.flags.mf" showname="..0. .... = More fragments: Not set" size="1" pos="20" show="0" value="40"/>
    </field>
    <field name="ip.frag_offset" showname="Fragment offset: 0" size="2" pos="20" show="0" value="4000"/>
    <field name="ip.ttl" showname="Time to live: 64" size="1" pos="22" show="64" value="40"/>
    <field name="ip.proto" showname="Protocol: TCP (6)" size="1" pos="23" show="6" value="06"/>
    <field name="ip.checksum" showname="Header checksum: 0xa536 [validation disabled]" size="2" pos="24" show="42294" value="a536">
      <field name="ip.checksum_good" showname="Good: False" size="2" pos="24" show="0" value="a536"/>
      <field name="ip.checksum_bad" showname="Bad: False" size="2" pos="24" show="0" value="a536"/>
    </field>
    <field name="ip.src" showname="Source: 172.17.0.2 (172.17.0.2)" size="4" pos="26" show="172.17.0.2" value="ac110002"/>
    <field name="ip.addr" showname="Source or Destination Address: 172.17.0.2 (172.17.0.2)" hide="yes" size="4" pos="26" show="172.17.0.2" value="ac110002"/>
    <field name="ip.src_host" showname="Source Host: 172.17.0.2" hide="yes" size="4" pos="26" show="172.17.0.2" value="ac110002"/>
    <field name="ip.host" showname="Source or Destination Host: 172.17.0.2" hide="yes" size="4" pos="26" show="172.17.0.2" value="ac110002"/>
    <field name="ip.dst" showname="Destination: 1.1.1.1 (1.1.1.1)" size="4" pos="30" show="1.1.1.1" value="01010101"/>
    <field name="ip.addr" showname="Source or Destination Address: 1.1.1.1 (1.1.1.1)" hide="yes" size="4" pos="30" show="1.1.1.1" value="01010101"/>
    <field name="ip.dst_host" showname="Destination Host: 1.1.1.1" hide="yes" size="4" pos="30" show="1.1.1.1" value="01010101"/>
    <field name="ip.host" showname="Source or Destination Host: 1.1.1.1" hide="yes" size="4" pos="30" show="1.1.1.1" value="01010101"/>
  </proto>
  <proto name="tcp" showname="Transmission Control Protocol, Src Port: 59682 (59682), Dst Port: 853 (853), Seq: 595, Ack: 3204, Len: 0" size="20" pos="34">
    <field name="tcp.srcport" showname="Source port: 59682 (59682)" size="2" pos="34" show="59682" value="e922"/>
    <field name="tcp.dstport" showname="Destination port: 853 (853)" size="2" pos="36" show="853" value="0355"/>
    <field name="tcp.port" showname="Source or Destination Port: 59682" hide="yes" size="2" pos="34" show="59682" value="e922"/>
    <field name="tcp.port" showname="Source or Destination Port: 853" hide="yes" size="2" pos="36" show="853" value="0355"/>
    <field name="tcp.stream" showname="Stream index: 0" size="0" pos="34" show="0"/>
    <field name="tcp.len" showname="TCP Segment Len: 0" hide="yes" size="1" pos="46" show="0" value="50"/>
    <field name="tcp.seq" showname="Sequence number: 595    (relative sequence number)" size="4" pos="38" show="595" value="11b68bbd"/>
    <field name="tcp.ack" showname="Acknowledgment number: 3204    (relative ack number)" size="4" pos="42" show="3204" value="a0d8caed"/>
    <field name="tcp.hdr_len" showname="Header length: 20 bytes" size="1" pos="46" show="20" value="50"/>
    <field name="tcp.flags" showname="Flags: 0x010 (ACK)" size="2" pos="46" show="16" value="10" unmaskedvalue="5010">
      <field name="tcp.flags.res" showname="000. .... .... = Reserved: Not set" size="1" pos="46" show="0" value="0" unmaskedvalue="50"/>
      <field name="tcp.flags.ns" showname="...0 .... .... = Nonce: Not set" size="1" pos="46" show="0" value="0" unmaskedvalue="50"/>
      <field name="tcp.flags.cwr" showname=".... 0... .... = Congestion Window Reduced (CWR): Not set" size="1" pos="47" show="0" value="0" unmaskedvalue="10"/>
      <field name="tcp.flags.ecn" showname=".... .0.. .... = ECN-Echo: Not set" size="1" pos="47" show="0" value="0" unmaskedvalue="10"/>
      <field name="tcp.flags.urg" showname=".... ..0. .... = Urgent: Not set" size="1" pos="47" show="0" value="0" unmaskedvalue="10"/>
      <field name="tcp.flags.ack" showname=".... ...1 .... = Acknowledgment: Set" size="1" pos="47" show="1" value="1" unmaskedvalue="10"/>
      <field name="tcp.flags.push" showname=".... .... 0... = Push: Not set" size="1" pos="47" show="0" value="0" unmaskedvalue="10"/>
      <field name="tcp.flags.reset" showname=".... .... .0.. = Reset: Not set" size="1" pos="47" show="0" value="0" unmaskedvalue="10"/>
      <field name="tcp.flags.syn" showname=".... .... ..0. = Syn: Not set" size="1" pos="47" show="0" value="0" unmaskedvalue="10"/>
      <field name="tcp.flags.fin" showname=".... .... ...0 = Fin: Not set" size="1" pos="47" show="0" value="0" unmaskedvalue="10"/>
    </field>
    <field name="tcp.window_size_value" showname="Window size value: 324" size="2" pos="48" show="324" value="0144"/>
    <field name="tcp.window_size" showname="Calculated window size: 41472" size="2" pos="48" show="41472" value="0144"/>
    <field name="tcp.window_size_scalefactor" showname="Window size scaling factor: 128" size="2" pos="48" show="128" value="0144"/>
    <field name="tcp.checksum" showname="Checksum: 0xae2f [validation disabled]" size="2" pos="50" show="44591" value="ae2f">
      <field name="tcp.checksum_good" showname="Good Checksum: False" size="2" pos="50" show="0" value="ae2f"/>
      <field name="tcp.checksum_bad" showname="Bad Checksum: False" size="2" pos="50" show="0" value="ae2f"/>
    </field>
    <field name="tcp.analysis" showname="SEQ/ACK analysis" size="0" pos="34" show="" value="">
      <field name="tcp.analysis.acks_frame" showname="This is an ACK to the segment in frame: 19" size="0" pos="34" show="19"/>
      <field name="tcp.analysis.ack_rtt" showname="The RTT to ACK the segment was: 0.000031000 seconds" size="0" pos="34" show="0.000031000"/>
    </field>
  </proto>
</packet>


</pdml>
