<?xml version="1.0"?>
<?xml-stylesheet type="text/xsl" href="pdml2html.xsl"?>
<!-- You can find pdml2html.xsl in /usr/share/wireshark or at http://anonsvn.wireshark.org/trunk/wireshark/pdml2html.xsl. -->
<pdml version="0" creator="wireshark/1.10.14" time="Wed Jul 24 18:55:36 2019" capture_file="ipv4--2.cap">
<packet>
  <proto name="geninfo" pos="0" showname="General information" size="74">
    <field name="num" pos="0" show="1" showname="Number" value="1" size="74"/>
    <field name="len" pos="0" show="74" showname="Frame Length" value="4a" size="74"/>
    <field name="caplen" pos="0" show="74" showname="Captured Length" value="4a" size="74"/>
    <field name="timestamp" pos="0" show="Jun 27, 2019 12:20:56.987062000 CEST" showname="Captured Time" value="1561630856.987062000" size="74"/>
  </proto>
  <proto name="frame" showname="Frame 1: 74 bytes on wire (592 bits), 74 bytes captured (592 bits) on interface 0" size="74" pos="0">
    <field name="frame.interface_id" showname="Interface id: 0" size="0" pos="0" show="0"/>
    <field name="frame.encap_type" showname="Encapsulation type: Ethernet (1)" size="0" pos="0" show="1"/>
    <field name="frame.time" showname="Arrival Time: Jun 27, 2019 12:20:56.987062000 CEST" size="0" pos="0" show="&quot;Jun 27, 2019 12:20:56.987062000 CEST&quot;"/>
    <field name="frame.offset_shift" showname="Time shift for this packet: 0.000000000 seconds" size="0" pos="0" show="0.000000000"/>
    <field name="frame.time_epoch" showname="Epoch Time: 1561630856.987062000 seconds" size="0" pos="0" show="1561630856.987062000"/>
    <field name="frame.time_delta" showname="Time delta from previous captured frame: 0.000000000 seconds" size="0" pos="0" show="0.000000000"/>
    <field name="frame.time_delta_displayed" showname="Time delta from previous displayed frame: 0.000000000 seconds" size="0" pos="0" show="0.000000000"/>
    <field name="frame.time_relative" showname="Time since reference or first frame: 0.000000000 seconds" size="0" pos="0" show="0.000000000"/>
    <field name="frame.number" showname="Frame Number: 1" size="0" pos="0" show="1"/>
    <field name="frame.len" showname="Frame Length: 74 bytes (592 bits)" size="0" pos="0" show="74"/>
    <field name="frame.cap_len" showname="Capture Length: 74 bytes (592 bits)" size="0" pos="0" show="74"/>
    <field name="frame.marked" showname="Frame is marked: False" size="0" pos="0" show="0"/>
    <field name="frame.ignored" showname="Frame is ignored: False" size="0" pos="0" show="0"/>
    <field name="frame.protocols" showname="Protocols in frame: eth:ip:tcp" size="0" pos="0" show="eth:ip:tcp"/>
  </proto>
  <proto name="eth" showname="Ethernet II, Src: 02:42:ac:11:00:02 (02:42:ac:11:00:02), Dst: 02:42:71:12:56:af (02:42:71:12:56:af)" size="14" pos="0">
    <field name="eth.dst" showname="Destination: 02:42:71:12:56:af (02:42:71:12:56:af)" size="6" pos="0" show="02:42:71:12:56:af" value="0242711256af">
      <field name="eth.addr" showname="Address: 02:42:71:12:56:af (02:42:71:12:56:af)" size="6" pos="0" show="02:42:71:12:56:af" value="0242711256af"/>
      <field name="eth.lg" showname=".... ..1. .... .... .... .... = LG bit: Locally administered address (this is NOT the factory default)" size="3" pos="0" show="1" value="1" unmaskedvalue="024271"/>
      <field name="eth.ig" showname=".... ...0 .... .... .... .... = IG bit: Individual address (unicast)" size="3" pos="0" show="0" value="0" unmaskedvalue="024271"/>
    </field>
    <field name="eth.src" showname="Source: 02:42:ac:11:00:02 (02:42:ac:11:00:02)" size="6" pos="6" show="02:42:ac:11:00:02" value="0242ac110002">
      <field name="eth.addr" showname="Address: 02:42:ac:11:00:02 (02:42:ac:11:00:02)" size="6" pos="6" show="02:42:ac:11:00:02" value="0242ac110002"/>
      <field name="eth.lg" showname=".... ..1. .... .... .... .... = LG bit: Locally administered address (this is NOT the factory default)" size="3" pos="6" show="1" value="1" unmaskedvalue="0242ac"/>
      <field name="eth.ig" showname=".... ...0 .... .... .... .... = IG bit: Individual address (unicast)" size="3" pos="6" show="0" value="0" unmaskedvalue="0242ac"/>
    </field>
    <field name="eth.type" showname="Type: IP (0x0800)" size="2" pos="12" show="2048" value="0800"/>
  </proto>
  <proto name="ip" showname="Internet Protocol Version 4, Src: 172.17.0.2 (172.17.0.2), Dst: 1.1.1.1 (1.1.1.1)" size="20" pos="14">
    <field name="ip.version" showname="Version: 4" size="1" pos="14" show="4" value="45"/>
    <field name="ip.hdr_len" showname="Header length: 20 bytes" size="1" pos="14" show="20" value="45"/>
    <field name="ip.dsfield" showname="Differentiated Services Field: 0x00 (DSCP 0x00: Default; ECN: 0x00: Not-ECT (Not ECN-Capable Transport))" size="1" pos="15" show="0" value="00">
      <field name="ip.dsfield.dscp" showname="0000 00.. = Differentiated Services Codepoint: Default (0x00)" size="1" pos="15" show="0" value="0" unmaskedvalue="00"/>
      <field name="ip.dsfield.ecn" showname=".... ..00 = Explicit Congestion Notification: Not-ECT (Not ECN-Capable Transport) (0x00)" size="1" pos="15" show="0" value="0" unmaskedvalue="00"/>
    </field>
    <field name="ip.len" showname="Total Length: 60" size="2" pos="16" show="60" value="003c"/>
    <field name="ip.id" showname="Identification: 0x389c (14492)" size="2" pos="18" show="14492" value="389c"/>
    <field name="ip.flags" showname="Flags: 0x02 (Don&apos;t Fragment)" size="1" pos="20" show="2" value="40">
      <field name="ip.flags.rb" showname="0... .... = Reserved bit: Not set" size="1" pos="20" show="0" value="40"/>
      <field name="ip.flags.df" showname=".1.. .... = Don&apos;t fragment: Set" size="1" pos="20" show="1" value="40"/>
      <field name="ip.flags.mf" showname="..0. .... = More fragments: Not set" size="1" pos="20" show="0" value="40"/>
    </field>
    <field name="ip.frag_offset" showname="Fragment offset: 0" size="2" pos="20" show="0" value="4000"/>
    <field name="ip.ttl" showname="Time to live: 64" size="1" pos="22" show="64" value="40"/>
    <field name="ip.proto" showname="Protocol: TCP (6)" size="1" pos="23" show="6" value="06"/>
    <field name="ip.checksum" showname="Header checksum: 0x540b [validation disabled]" size="2" pos="24" show="21515" value="540b">
      <field name="ip.checksum_good" showname="Good: False" size="2" pos="24" show="0" value="540b"/>
      <field name="ip.checksum_bad" showname="Bad: False" size="2" pos="24" show="0" value="540b"/>
    </field>
    <field name="ip.src" showname="Source: 172.17.0.2 (172.17.0.2)" size="4" pos="26" show="172.17.0.2" value="ac110002"/>
    <field name="ip.addr" showname="Source or Destination Address: 172.17.0.2 (172.17.0.2)" hide="yes" size="4" pos="26" show="172.17.0.2" value="ac110002"/>
    <field name="ip.src_host" showname="Source Host: 172.17.0.2" hide="yes" size="4" pos="26" show="172.17.0.2" value="ac110002"/>
    <field name="ip.host" showname="Source or Destination Host: 172.17.0.2" hide="yes" size="4" pos="26" show="172.17.0.2" value="ac110002"/>
    <field name="ip.dst" showname="Destination: 1.1.1.1 (1.1.1.1)" size="4" pos="30" show="1.1.1.1" value="01010101"/>
    <field name="ip.addr" showname="Source or Destination Address: 1.1.1.1 (1.1.1.1)" hide="yes" size="4" pos="30" show="1.1.1.1" value="01010101"/>
    <field name="ip.dst_host" showname="Destination Host: 1.1.1.1" hide="yes" size="4" pos="30" show="1.1.1.1" value="01010101"/>
    <field name="ip.host" showname="Source or Destination Host: 1.1.1.1" hide="yes" size="4" pos="30" show="1.1.1.1" value="01010101"/>
  </proto>
  <proto name="tcp" showname="Transmission Control Protocol, Src Port: 59654 (59654), Dst Port: 853 (853), Seq: 0, Len: 0" size="40" pos="34">
    <field name="tcp.srcport" showname="Source port: 59654 (59654)" size="2" pos="34" show="59654" value="e906"/>
    <field name="tcp.dstport" showname="Destination port: 853 (853)" size="2" pos="36" show="853" value="0355"/>
    <field name="tcp.port" showname="Source or Destination Port: 59654" hide="yes" size="2" pos="34" show="59654" value="e906"/>
    <field name="tcp.port" showname="Source or Destination Port: 853" hide="yes" size="2" pos="36" show="853" value="0355"/>
    <field name="tcp.stream" showname="Stream index: 0" size="0" pos="34" show="0"/>
    <field name="tcp.len" showname="TCP Segment Len: 0" hide="yes" size="1" pos="46" show="0" value="a0"/>
    <field name="tcp.seq" showname="Sequence number: 0    (relative sequence number)" size="4" pos="38" show="0" value="f2f150ae"/>
    <field name="tcp.hdr_len" showname="Header length: 40 bytes" size="1" pos="46" show="40" value="a0"/>
    <field name="tcp.flags" showname="Flags: 0x002 (SYN)" size="2" pos="46" show="2" value="2" unmaskedvalue="a002">
      <field name="tcp.flags.res" showname="000. .... .... = Reserved: Not set" size="1" pos="46" show="0" value="0" unmaskedvalue="a0"/>
      <field name="tcp.flags.ns" showname="...0 .... .... = Nonce: Not set" size="1" pos="46" show="0" value="0" unmaskedvalue="a0"/>
      <field name="tcp.flags.cwr" showname=".... 0... .... = Congestion Window Reduced (CWR): Not set" size="1" pos="47" show="0" value="0" unmaskedvalue="02"/>
      <field name="tcp.flags.ecn" showname=".... .0.. .... = ECN-Echo: Not set" size="1" pos="47" show="0" value="0" unmaskedvalue="02"/>
      <field name="tcp.flags.urg" showname=".... ..0. .... = Urgent: Not set" size="1" pos="47" show="0" value="0" unmaskedvalue="02"/>
      <field name="tcp.flags.ack" showname=".... ...0 .... = Acknowledgment: Not set" size="1" pos="47" show="0" value="0" unmaskedvalue="02"/>
      <field name="tcp.flags.push" showname=".... .... 0... = Push: Not set" size="1" pos="47" show="0" value="0" unmaskedvalue="02"/>
      <field name="tcp.flags.reset" showname=".... .... .0.. = Reset: Not set" size="1" pos="47" show="0" value="0" unmaskedvalue="02"/>
      <field name="tcp.flags.syn" showname=".... .... ..1. = Syn: Set" size="1" pos="47" show="1" value="1" unmaskedvalue="02">
        <field name="expert" showname="Expert Info (Chat/Sequence): Connection establish request (SYN): server port 853" size="0" pos="47">
          <field name="expert.message" showname="Message: Connection establish request (SYN): server port 853" size="0" pos="0" show="Connection establish request (SYN): server port 853"/>
          <field name="expert.severity" showname="Severity level: Chat" size="0" pos="0" show="2097152"/>
          <field name="expert.group" showname="Group: Sequence" size="0" pos="0" show="33554432"/>
        </field>
      </field>
      <field name="tcp.flags.fin" showname=".... .... ...0 = Fin: Not set" size="1" pos="47" show="0" value="0" unmaskedvalue="02"/>
    </field>
    <field name="tcp.window_size_value" showname="Window size value: 29200" size="2" pos="48" show="29200" value="7210"/>
    <field name="tcp.window_size" showname="Calculated window size: 29200" size="2" pos="48" show="29200" value="7210"/>
    <field name="tcp.checksum" showname="Checksum: 0xae43 [validation disabled]" size="2" pos="50" show="44611" value="ae43">
      <field name="tcp.checksum_good" showname="Good Checksum: False" size="2" pos="50" show="0" value="ae43"/>
      <field name="tcp.checksum_bad" showname="Bad Checksum: False" size="2" pos="50" show="0" value="ae43"/>
    </field>
    <field name="tcp.options" showname="Options: (20 bytes), Maximum segment size, SACK permitted, Timestamps, No-Operation (NOP), Window scale" size="20" pos="54" show="02:04:05:b4:04:02:08:0a:9b:12:68:32:00:00:00:00:01:03:03:07" value="020405b40402080a9b1268320000000001030307">
      <field name="tcp.options.mss" showname="Maximum segment size: 1460 bytes" size="4" pos="54" show="" value="">
        <field name="tcp.option_kind" showname="Kind: MSS size (2)" size="1" pos="54" show="2" value="02"/>
        <field name="tcp.option_len" showname="Length: 4" size="1" pos="55" show="4" value="04"/>
        <field name="tcp.options.mss_val" showname="MSS Value: 1460" size="2" pos="56" show="1460" value="05b4"/>
      </field>
      <field name="tcp.options.sack_perm" showname="TCP SACK Permitted Option: True" size="2" pos="58" show="1" value="0402">
        <field name="tcp.option_kind" showname="Kind: SACK Permission (4)" size="1" pos="58" show="4" value="04"/>
        <field name="tcp.option_len" showname="Length: 2" size="1" pos="59" show="2" value="02"/>
      </field>
      <field name="" show="Timestamps: TSval 2601674802, TSecr 0" size="10" pos="60" value="080a9b12683200000000">
        <field name="tcp.option_kind" showname="Kind: Timestamp (8)" size="1" pos="60" show="8" value="08"/>
        <field name="tcp.option_len" showname="Length: 10" size="1" pos="61" show="10" value="0a"/>
        <field name="tcp.options.timestamp.tsval" showname="Timestamp value: 2601674802" size="4" pos="62" show="2601674802" value="9b126832"/>
        <field name="tcp.options.timestamp.tsecr" showname="Timestamp echo reply: 0" size="4" pos="66" show="0" value="00000000"/>
      </field>
      <field name="" show="No-Operation (NOP)" size="1" pos="70" value="01">
        <field name="tcp.options.type" showname="Type: 1" size="1" pos="70" show="1" value="01">
          <field name="tcp.options.type.copy" showname="0... .... = Copy on fragmentation: No" size="1" pos="70" show="0" value="0" unmaskedvalue="01"/>
          <field name="tcp.options.type.class" showname=".00. .... = Class: Control (0)" size="1" pos="70" show="0" value="0" unmaskedvalue="01"/>
          <field name="tcp.options.type.number" showname="...0 0001 = Number: No-Operation (NOP) (1)" size="1" pos="70" show="1" value="1" unmaskedvalue="01"/>
        </field>
      </field>
      <field name="" show="Window scale: 7 (multiply by 128)" size="3" pos="71" value="030307">
        <field name="tcp.option_kind" showname="Kind: Window Scale (3)" size="1" pos="71" show="3" value="03"/>
        <field name="tcp.option_len" showname="Length: 3" size="1" pos="72" show="3" value="03"/>
        <field name="tcp.options.wscale.shift" showname="Shift count: 7" size="1" pos="73" show="7" value="07"/>
        <field name="tcp.options.wscale.multiplier" showname="Multiplier: 128" size="1" pos="73" show="128" value="07"/>
      </field>
    </field>
  </proto>
</packet>


<packet>
  <proto name="geninfo" pos="0" showname="General information" size="66">
    <field name="num" pos="0" show="2" showname="Number" value="2" size="66"/>
    <field name="len" pos="0" show="66" showname="Frame Length" value="42" size="66"/>
    <field name="caplen" pos="0" show="66" showname="Captured Length" value="42" size="66"/>
    <field name="timestamp" pos="0" show="Jun 27, 2019 12:20:56.990779000 CEST" showname="Captured Time" value="1561630856.990779000" size="66"/>
  </proto>
  <proto name="frame" showname="Frame 2: 66 bytes on wire (528 bits), 66 bytes captured (528 bits) on interface 0" size="66" pos="0">
    <field name="frame.interface_id" showname="Interface id: 0" size="0" pos="0" show="0"/>
    <field name="frame.encap_type" showname="Encapsulation type: Ethernet (1)" size="0" pos="0" show="1"/>
    <field name="frame.time" showname="Arrival Time: Jun 27, 2019 12:20:56.990779000 CEST" size="0" pos="0" show="&quot;Jun 27, 2019 12:20:56.990779000 CEST&quot;"/>
    <field name="frame.offset_shift" showname="Time shift for this packet: 0.000000000 seconds" size="0" pos="0" show="0.000000000"/>
    <field name="frame.time_epoch" showname="Epoch Time: 1561630856.990779000 seconds" size="0" pos="0" show="1561630856.990779000"/>
    <field name="frame.time_delta" showname="Time delta from previous captured frame: 0.003717000 seconds" size="0" pos="0" show="0.003717000"/>
    <field name="frame.time_delta_displayed" showname="Time delta from previous displayed frame: 0.003717000 seconds" size="0" pos="0" show="0.003717000"/>
    <field name="frame.time_relative" showname="Time since reference or first frame: 0.003717000 seconds" size="0" pos="0" show="0.003717000"/>
    <field name="frame.number" showname="Frame Number: 2" size="0" pos="0" show="2"/>
    <field name="frame.len" showname="Frame Length: 66 bytes (528 bits)" size="0" pos="0" show="66"/>
    <field name="frame.cap_len" showname="Capture Length: 66 bytes (528 bits)" size="0" pos="0" show="66"/>
    <field name="frame.marked" showname="Frame is marked: False" size="0" pos="0" show="0"/>
    <field name="frame.ignored" showname="Frame is ignored: False" size="0" pos="0" show="0"/>
    <field name="frame.protocols" showname="Protocols in frame: eth:ip:tcp" size="0" pos="0" show="eth:ip:tcp"/>
  </proto>
  <proto name="eth" showname="Ethernet II, Src: 02:42:71:12:56:af (02:42:71:12:56:af), Dst: 02:42:ac:11:00:02 (02:42:ac:11:00:02)" size="14" pos="0">
    <field name="eth.dst" showname="Destination: 02:42:ac:11:00:02 (02:42:ac:11:00:02)" size="6" pos="0" show="02:42:ac:11:00:02" value="0242ac110002">
      <field name="eth.addr" showname="Address: 02:42:ac:11:00:02 (02:42:ac:11:00:02)" size="6" pos="0" show="02:42:ac:11:00:02" value="0242ac110002"/>
      <field name="eth.lg" showname=".... ..1. .... .... .... .... = LG bit: Locally administered address (this is NOT the factory default)" size="3" pos="0" show="1" value="1" unmaskedvalue="0242ac"/>
      <field name="eth.ig" showname=".... ...0 .... .... .... .... = IG bit: Individual address (unicast)" size="3" pos="0" show="0" value="0" unmaskedvalue="0242ac"/>
    </field>
    <field name="eth.src" showname="Source: 02:42:71:12:56:af (02:42:71:12:56:af)" size="6" pos="6" show="02:42:71:12:56:af" value="0242711256af">
      <field name="eth.addr" showname="Address: 02:42:71:12:56:af (02:42:71:12:56:af)" size="6" pos="6" show="02:42:71:12:56:af" value="0242711256af"/>
      <field name="eth.lg" showname=".... ..1. .... .... .... .... = LG bit: Locally administered address (this is NOT the factory default)" size="3" pos="6" show="1" value="1" unmaskedvalue="024271"/>
      <field name="eth.ig" showname=".... ...0 .... .... .... .... = IG bit: Individual address (unicast)" size="3" pos="6" show="0" value="0" unmaskedvalue="024271"/>
    </field>
    <field name="eth.type" showname="Type: IP (0x0800)" size="2" pos="12" show="2048" value="0800"/>
  </proto>
  <proto name="ip" showname="Internet Protocol Version 4, Src: 1.1.1.1 (1.1.1.1), Dst: 172.17.0.2 (172.17.0.2)" size="20" pos="14">
    <field name="ip.version" showname="Version: 4" size="1" pos="14" show="4" value="45"/>
    <field name="ip.hdr_len" showname="Header length: 20 bytes" size="1" pos="14" show="20" value="45"/>
    <field name="ip.dsfield" showname="Differentiated Services Field: 0x00 (DSCP 0x00: Default; ECN: 0x00: Not-ECT (Not ECN-Capable Transport))" size="1" pos="15" show="0" value="00">
      <field name="ip.dsfield.dscp" showname="0000 00.. = Differentiated Services Codepoint: Default (0x00)" size="1" pos="15" show="0" value="0" unmaskedvalue="00"/>
      <field name="ip.dsfield.ecn" showname=".... ..00 = Explicit Congestion Notification: Not-ECT (Not ECN-Capable Transport) (0x00)" size="1" pos="15" show="0" value="0" unmaskedvalue="00"/>
    </field>
    <field name="ip.len" showname="Total Length: 52" size="2" pos="16" show="52" value="0034"/>
    <field name="ip.id" showname="Identification: 0x0000 (0)" size="2" pos="18" show="0" value="0000"/>
    <field name="ip.flags" showname="Flags: 0x02 (Don&apos;t Fragment)" size="1" pos="20" show="2" value="40">
      <field name="ip.flags.rb" showname="0... .... = Reserved bit: Not set" size="1" pos="20" show="0" value="40"/>
      <field name="ip.flags.df" showname=".1.. .... = Don&apos;t fragment: Set" size="1" pos="20" show="1" value="40"/>
      <field name="ip.flags.mf" showname="..0. .... = More fragments: Not set" size="1" pos="20" show="0" value="40"/>
    </field>
    <field name="ip.frag_offset" showname="Fragment offset: 0" size="2" pos="20" show="0" value="4000"/>
    <field name="ip.ttl" showname="Time to live: 57" size="1" pos="22" show="57" value="39"/>
    <field name="ip.proto" showname="Protocol: TCP (6)" size="1" pos="23" show="6" value="06"/>
    <field name="ip.checksum" showname="Header checksum: 0x93af [validation disabled]" size="2" pos="24" show="37807" value="93af">
      <field name="ip.checksum_good" showname="Good: False" size="2" pos="24" show="0" value="93af"/>
      <field name="ip.checksum_bad" showname="Bad: False" size="2" pos="24" show="0" value="93af"/>
    </field>
    <field name="ip.src" showname="Source: 1.1.1.1 (1.1.1.1)" size="4" pos="26" show="1.1.1.1" value="01010101"/>
    <field name="ip.addr" showname="Source or Destination Address: 1.1.1.1 (1.1.1.1)" hide="yes" size="4" pos="26" show="1.1.1.1" value="01010101"/>
    <field name="ip.src_host" showname="Source Host: 1.1.1.1" hide="yes" size="4" pos="26" show="1.1.1.1" value="01010101"/>
    <field name="ip.host" showname="Source or Destination Host: 1.1.1.1" hide="yes" size="4" pos="26" show="1.1.1.1" value="01010101"/>
    <field name="ip.dst" showname="Destination: 172.17.0.2 (172.17.0.2)" size="4" pos="30" show="172.17.0.2" value="ac110002"/>
    <field name="ip.addr" showname="Source or Destination Address: 172.17.0.2 (172.17.0.2)" hide="yes" size="4" pos="30" show="172.17.0.2" value="ac110002"/>
    <field name="ip.dst_host" showname="Destination Host: 172.17.0.2" hide="yes" size="4" pos="30" show="172.17.0.2" value="ac110002"/>
    <field name="ip.host" showname="Source or Destination Host: 172.17.0.2" hide="yes" size="4" pos="30" show="172.17.0.2" value="ac110002"/>
  </proto>
  <proto name="tcp" showname="Transmission Control Protocol, Src Port: 853 (853), Dst Port: 59654 (59654), Seq: 0, Ack: 1, Len: 0" size="32" pos="34">
    <field name="tcp.srcport" showname="Source port: 853 (853)" size="2" pos="34" show="853" value="0355"/>
    <field name="tcp.dstport" showname="Destination port: 59654 (59654)" size="2" pos="36" show="59654" value="e906"/>
    <field name="tcp.port" showname="Source or Destination Port: 853" hide="yes" size="2" pos="34" show="853" value="0355"/>
    <field name="tcp.port" showname="Source or Destination Port: 59654" hide="yes" size="2" pos="36" show="59654" value="e906"/>
    <field name="tcp.stream" showname="Stream index: 0" size="0" pos="34" show="0"/>
    <field name="tcp.len" showname="TCP Segment Len: 0" hide="yes" size="1" pos="46" show="0" value="80"/>
    <field name="tcp.seq" showname="Sequence number: 0    (relative sequence number)" size="4" pos="38" show="0" value="5826141d"/>
    <field name="tcp.ack" showname="Acknowledgment number: 1    (relative ack number)" size="4" pos="42" show="1" value="f2f150af"/>
    <field name="tcp.hdr_len" showname="Header length: 32 bytes" size="1" pos="46" show="32" value="80"/>
    <field name="tcp.flags" showname="Flags: 0x012 (SYN, ACK)" size="2" pos="46" show="18" value="12" unmaskedvalue="8012">
      <field name="tcp.flags.res" showname="000. .... .... = Reserved: Not set" size="1" pos="46" show="0" value="0" unmaskedvalue="80"/>
      <field name="tcp.flags.ns" showname="...0 .... .... = Nonce: Not set" size="1" pos="46" show="0" value="0" unmaskedvalue="80"/>
      <field name="tcp.flags.cwr" showname=".... 0... .... = Congestion Window Reduced (CWR): Not set" size="1" pos="47" show="0" value="0" unmaskedvalue="12"/>
      <field name="tcp.flags.ecn" showname=".... .0.. .... = ECN-Echo: Not set" size="1" pos="47" show="0" value="0" unmaskedvalue="12"/>
      <field name="tcp.flags.urg" showname=".... ..0. .... = Urgent: Not set" size="1" pos="47" show="0" value="0" unmaskedvalue="12"/>
      <field name="tcp.flags.ack" showname=".... ...1 .... = Acknowledgment: Set" size="1" pos="47" show="1" value="1" unmaskedvalue="12"/>
      <field name="tcp.flags.push" showname=".... .... 0... = Push: Not set" size="1" pos="47" show="0" value="0" unmaskedvalue="12"/>
      <field name="tcp.flags.reset" showname=".... .... .0.. = Reset: Not set" size="1" pos="47" show="0" value="0" unmaskedvalue="12"/>
      <field name="tcp.flags.syn" showname=".... .... ..1. = Syn: Set" size="1" pos="47" show="1" value="1" unmaskedvalue="12">
        <field name="expert" showname="Expert Info (Chat/Sequence): Connection establish acknowledge (SYN+ACK): server port 853" size="0" pos="47">
          <field name="expert.message" showname="Message: Connection establish acknowledge (SYN+ACK): server port 853" size="0" pos="0" show="Connection establish acknowledge (SYN+ACK): server port 853"/>
          <field name="expert.severity" showname="Severity level: Chat" size="0" pos="0" show="2097152"/>
          <field name="expert.group" showname="Group: Sequence" size="0" pos="0" show="33554432"/>
        </field>
      </field>
      <field name="tcp.flags.fin" showname=".... .... ...0 = Fin: Not set" size="1" pos="47" show="0" value="0" unmaskedvalue="12"/>
    </field>
    <field name="tcp.window_size_value" showname="Window size value: 29200" size="2" pos="48" show="29200" value="7210"/>
    <field name="tcp.window_size" showname="Calculated window size: 29200" size="2" pos="48" show="29200" value="7210"/>
    <field name="tcp.checksum" showname="Checksum: 0xb298 [validation disabled]" size="2" pos="50" show="45720" value="b298">
      <field name="tcp.checksum_good" showname="Good Checksum: False" size="2" pos="50" show="0" value="b298"/>
      <field name="tcp.checksum_bad" showname="Bad Checksum: False" size="2" pos="50" show="0" value="b298"/>
    </field>
    <field name="tcp.options" showname="Options: (12 bytes), Maximum segment size, No-Operation (NOP), No-Operation (NOP), SACK permitted, No-Operation (NOP), Window scale" size="12" pos="54" show="02:04:05:b4:01:01:04:02:01:03:03:0a" value="020405b4010104020103030a">
      <field name="tcp.options.mss" showname="Maximum segment size: 1460 bytes" size="4" pos="54" show="" value="">
        <field name="tcp.option_kind" showname="Kind: MSS size (2)" size="1" pos="54" show="2" value="02"/>
        <field name="tcp.option_len" showname="Length: 4" size="1" pos="55" show="4" value="04"/>
        <field name="tcp.options.mss_val" showname="MSS Value: 1460" size="2" pos="56" show="1460" value="05b4"/>
      </field>
      <field name="" show="No-Operation (NOP)" size="1" pos="58" value="01">
        <field name="tcp.options.type" showname="Type: 1" size="1" pos="58" show="1" value="01">
          <field name="tcp.options.type.copy" showname="0... .... = Copy on fragmentation: No" size="1" pos="58" show="0" value="0" unmaskedvalue="01"/>
          <field name="tcp.options.type.class" showname=".00. .... = Class: Control (0)" size="1" pos="58" show="0" value="0" unmaskedvalue="01"/>
          <field name="tcp.options.type.number" showname="...0 0001 = Number: No-Operation (NOP) (1)" size="1" pos="58" show="1" value="1" unmaskedvalue="01"/>
        </field>
      </field>
      <field name="" show="No-Operation (NOP)" size="1" pos="59" value="01">
        <field name="tcp.options.type" showname="Type: 1" size="1" pos="59" show="1" value="01">
          <field name="tcp.options.type.copy" showname="0... .... = Copy on fragmentation: No" size="1" pos="59" show="0" value="0" unmaskedvalue="01"/>
          <field name="tcp.options.type.class" showname=".00. .... = Class: Control (0)" size="1" pos="59" show="0" value="0" unmaskedvalue="01"/>
          <field name="tcp.options.type.number" showname="...0 0001 = Number: No-Operation (NOP) (1)" size="1" pos="59" show="1" value="1" unmaskedvalue="01"/>
        </field>
      </field>
      <field name="tcp.options.sack_perm" showname="TCP SACK Permitted Option: True" size="2" pos="60" show="1" value="0402">
        <field name="tcp.option_kind" showname="Kind: SACK Permission (4)" size="1" pos="60" show="4" value="04"/>
        <field name="tcp.option_len" showname="Length: 2" size="1" pos="61" show="2" value="02"/>
      </field>
      <field name="" show="No-Operation (NOP)" size="1" pos="62" value="01">
        <field name="tcp.options.type" showname="Type: 1" size="1" pos="62" show="1" value="01">
          <field name="tcp.options.type.copy" showname="0... .... = Copy on fragmentation: No" size="1" pos="62" show="0" value="0" unmaskedvalue="01"/>
          <field name="tcp.options.type.class" showname=".00. .... = Class: Control (0)" size="1" pos="62" show="0" value="0" unmaskedvalue="01"/>
          <field name="tcp.options.type.number" showname="...0 0001 = Number: No-Operation (NOP) (1)" size="1" pos="62" show="1" value="1" unmaskedvalue="01"/>
        </field>
      </field>
      <field name="" show="Window scale: 10 (multiply by 1024)" size="3" pos="63" value="03030a">
        <field name="tcp.option_kind" showname="Kind: Window Scale (3)" size="1" pos="63" show="3" value="03"/>
        <field name="tcp.option_len" showname="Length: 3" size="1" pos="64" show="3" value="03"/>
        <field name="tcp.options.wscale.shift" showname="Shift count: 10" size="1" pos="65" show="10" value="0a"/>
        <field name="tcp.options.wscale.multiplier" showname="Multiplier: 1024" size="1" pos="65" show="1024" value="0a"/>
      </field>
    </field>
    <field name="tcp.analysis" showname="SEQ/ACK analysis" size="0" pos="34" show="" value="">
      <field name="tcp.analysis.acks_frame" showname="This is an ACK to the segment in frame: 1" size="0" pos="34" show="1"/>
      <field name="tcp.analysis.ack_rtt" showname="The RTT to ACK the segment was: 0.003717000 seconds" size="0" pos="34" show="0.003717000"/>
    </field>
  </proto>
</packet>


<packet>
  <proto name="geninfo" pos="0" showname="General information" size="54">
    <field name="num" pos="0" show="3" showname="Number" value="3" size="54"/>
    <field name="len" pos="0" show="54" showname="Frame Length" value="36" size="54"/>
    <field name="caplen" pos="0" show="54" showname="Captured Length" value="36" size="54"/>
    <field name="timestamp" pos="0" show="Jun 27, 2019 12:20:56.990826000 CEST" showname="Captured Time" value="1561630856.990826000" size="54"/>
  </proto>
  <proto name="frame" showname="Frame 3: 54 bytes on wire (432 bits), 54 bytes captured (432 bits) on interface 0" size="54" pos="0">
    <field name="frame.interface_id" showname="Interface id: 0" size="0" pos="0" show="0"/>
    <field name="frame.encap_type" showname="Encapsulation type: Ethernet (1)" size="0" pos="0" show="1"/>
    <field name="frame.time" showname="Arrival Time: Jun 27, 2019 12:20:56.990826000 CEST" size="0" pos="0" show="&quot;Jun 27, 2019 12:20:56.990826000 CEST&quot;"/>
    <field name="frame.offset_shift" showname="Time shift for this packet: 0.000000000 seconds" size="0" pos="0" show="0.000000000"/>
    <field name="frame.time_epoch" showname="Epoch Time: 1561630856.990826000 seconds" size="0" pos="0" show="1561630856.990826000"/>
    <field name="frame.time_delta" showname="Time delta from previous captured frame: 0.000047000 seconds" size="0" pos="0" show="0.000047000"/>
    <field name="frame.time_delta_displayed" showname="Time delta from previous displayed frame: 0.000047000 seconds" size="0" pos="0" show="0.000047000"/>
    <field name="frame.time_relative" showname="Time since reference or first frame: 0.003764000 seconds" size="0" pos="0" show="0.003764000"/>
    <field name="frame.number" showname="Frame Number: 3" size="0" pos="0" show="3"/>
    <field name="frame.len" showname="Frame Length: 54 bytes (432 bits)" size="0" pos="0" show="54"/>
    <field name="frame.cap_len" showname="Capture Length: 54 bytes (432 bits)" size="0" pos="0" show="54"/>
    <field name="frame.marked" showname="Frame is marked: False" size="0" pos="0" show="0"/>
    <field name="frame.ignored" showname="Frame is ignored: False" size="0" pos="0" show="0"/>
    <field name="frame.protocols" showname="Protocols in frame: eth:ip:tcp" size="0" pos="0" show="eth:ip:tcp"/>
  </proto>
  <proto name="eth" showname="Ethernet II, Src: 02:42:ac:11:00:02 (02:42:ac:11:00:02), Dst: 02:42:71:12:56:af (02:42:71:12:56:af)" size="14" pos="0">
    <field name="eth.dst" showname="Destination: 02:42:71:12:56:af (02:42:71:12:56:af)" size="6" pos="0" show="02:42:71:12:56:af" value="0242711256af">
      <field name="eth.addr" showname="Address: 02:42:71:12:56:af (02:42:71:12:56:af)" size="6" pos="0" show="02:42:71:12:56:af" value="0242711256af"/>
      <field name="eth.lg" showname=".... ..1. .... .... .... .... = LG bit: Locally administered address (this is NOT the factory default)" size="3" pos="0" show="1" value="1" unmaskedvalue="024271"/>
      <field name="eth.ig" showname=".... ...0 .... .... .... .... = IG bit: Individual address (unicast)" size="3" pos="0" show="0" value="0" unmaskedvalue="024271"/>
    </field>
    <field name="eth.src" showname="Source: 02:42:ac:11:00:02 (02:42:ac:11:00:02)" size="6" pos="6" show="02:42:ac:11:00:02" value="0242ac110002">
      <field name="eth.addr" showname="Address: 02:42:ac:11:00:02 (02:42:ac:11:00:02)" size="6" pos="6" show="02:42:ac:11:00:02" value="0242ac110002"/>
      <field name="eth.lg" showname=".... ..1. .... .... .... .... = LG bit: Locally administered address (this is NOT the factory default)" size="3" pos="6" show="1" value="1" unmaskedvalue="0242ac"/>
      <field name="eth.ig" showname=".... ...0 .... .... .... .... = IG bit: Individual address (unicast)" size="3" pos="6" show="0" value="0" unmaskedvalue="0242ac"/>
    </field>
    <field name="eth.type" showname="Type: IP (0x0800)" size="2" pos="12" show="2048" value="0800"/>
  </proto>
  <proto name="ip" showname="Internet Protocol Version 4, Src: 172.17.0.2 (172.17.0.2), Dst: 1.1.1.1 (1.1.1.1)" size="20" pos="14">
    <field name="ip.version" showname="Version: 4" size="1" pos="14" show="4" value="45"/>
    <field name="ip.hdr_len" showname="Header length: 20 bytes" size="1" pos="14" show="20" value="45"/>
    <field name="ip.dsfield" showname="Differentiated Services Field: 0x00 (DSCP 0x00: Default; ECN: 0x00: Not-ECT (Not ECN-Capable Transport))" size="1" pos="15" show="0" value="00">
      <field name="ip.dsfield.dscp" showname="0000 00.. = Differentiated Services Codepoint: Default (0x00)" size="1" pos="15" show="0" value="0" unmaskedvalue="00"/>
      <field name="ip.dsfield.ecn" showname=".... ..00 = Explicit Congestion Notification: Not-ECT (Not ECN-Capable Transport) (0x00)" size="1" pos="15" show="0" value="0" unmaskedvalue="00"/>
    </field>
    <field name="ip.len" showname="Total Length: 40" size="2" pos="16" show="40" value="0028"/>
    <field name="ip.id" showname="Identification: 0x389d (14493)" size="2" pos="18" show="14493" value="389d"/>
    <field name="ip.flags" showname="Flags: 0x02 (Don&apos;t Fragment)" size="1" pos="20" show="2" value="40">
      <field name="ip.flags.rb" showname="0... .... = Reserved bit: Not set" size="1" pos="20" show="0" value="40"/>
      <field name="ip.flags.df" showname=".1.. .... = Don&apos;t fragment: Set" size="1" pos="20" show="1" value="40"/>
      <field name="ip.flags.mf" showname="..0. .... = More fragments: Not set" size="1" pos="20" show="0" value="40"/>
    </field>
    <field name="ip.frag_offset" showname="Fragment offset: 0" size="2" pos="20" show="0" value="4000"/>
    <field name="ip.ttl" showname="Time to live: 64" size="1" pos="22" show="64" value="40"/>
    <field name="ip.proto" showname="Protocol: TCP (6)" size="1" pos="23" show="6" value="06"/>
    <field name="ip.checksum" showname="Header checksum: 0x541e [validation disabled]" size="2" pos="24" show="21534" value="541e">
      <field name="ip.checksum_good" showname="Good: False" size="2" pos="24" show="0" value="541e"/>
      <field name="ip.checksum_bad" showname="Bad: False" size="2" pos="24" show="0" value="541e"/>
    </field>
    <field name="ip.src" showname="Source: 172.17.0.2 (172.17.0.2)" size="4" pos="26" show="172.17.0.2" value="ac110002"/>
    <field name="ip.addr" showname="Source or Destination Address: 172.17.0.2 (172.17.0.2)" hide="yes" size="4" pos="26" show="172.17.0.2" value="ac110002"/>
    <field name="ip.src_host" showname="Source Host: 172.17.0.2" hide="yes" size="4" pos="26" show="172.17.0.2" value="ac110002"/>
    <field name="ip.host" showname="Source or Destination Host: 172.17.0.2" hide="yes" size="4" pos="26" show="172.17.0.2" value="ac110002"/>
    <field name="ip.dst" showname="Destination: 1.1.1.1 (1.1.1.1)" size="4" pos="30" show="1.1.1.1" value="01010101"/>
    <field name="ip.addr" showname="Source or Destination Address: 1.1.1.1 (1.1.1.1)" hide="yes" size="4" pos="30" show="1.1.1.1" value="01010101"/>
    <field name="ip.dst_host" showname="Destination Host: 1.1.1.1" hide="yes" size="4" pos="30" show="1.1.1.1" value="01010101"/>
    <field name="ip.host" showname="Source or Destination Host: 1.1.1.1" hide="yes" size="4" pos="30" show="1.1.1.1" value="01010101"/>
  </proto>
  <proto name="tcp" showname="Transmission Control Protocol, Src Port: 59654 (59654), Dst Port: 853 (853), Seq: 1, Ack: 1, Len: 0" size="20" pos="34">
    <field name="tcp.srcport" showname="Source port: 59654 (59654)" size="2" pos="34" show="59654" value="e906"/>
    <field name="tcp.dstport" showname="Destination port: 853 (853)" size="2" pos="36" show="853" value="0355"/>
    <field name="tcp.port" showname="Source or Destination Port: 59654" hide="yes" size="2" pos="34" show="59654" value="e906"/>
    <field name="tcp.port" showname="Source or Destination Port: 853" hide="yes" size="2" pos="36" show="853" value="0355"/>
    <field name="tcp.stream" showname="Stream index: 0" size="0" pos="34" show="0"/>
    <field name="tcp.len" showname="TCP Segment Len: 0" hide="yes" size="1" pos="46" show="0" value="50"/>
    <field name="tcp.seq" showname="Sequence number: 1    (relative sequence number)" size="4" pos="38" show="1" value="f2f150af"/>
    <field name="tcp.ack" showname="Acknowledgment number: 1    (relative ack number)" size="4" pos="42" show="1" value="5826141e"/>
    <field name="tcp.hdr_len" showname="Header length: 20 bytes" size="1" pos="46" show="20" value="50"/>
    <field name="tcp.flags" showname="Flags: 0x010 (ACK)" size="2" pos="46" show="16" value="10" unmaskedvalue="5010">
      <field name="tcp.flags.res" showname="000. .... .... = Reserved: Not set" size="1" pos="46" show="0" value="0" unmaskedvalue="50"/>
      <field name="tcp.flags.ns" showname="...0 .... .... = Nonce: Not set" size="1" pos="46" show="0" value="0" unmaskedvalue="50"/>
      <field name="tcp.flags.cwr" showname=".... 0... .... = Congestion Window Reduced (CWR): Not set" size="1" pos="47" show="0" value="0" unmaskedvalue="10"/>
      <field name="tcp.flags.ecn" showname=".... .0.. .... = ECN-Echo: Not set" size="1" pos="47" show="0" value="0" unmaskedvalue="10"/>
      <field name="tcp.flags.urg" showname=".... ..0. .... = Urgent: Not set" size="1" pos="47" show="0" value="0" unmaskedvalue="10"/>
      <field name="tcp.flags.ack" showname=".... ...1 .... = Acknowledgment: Set" size="1" pos="47" show="1" value="1" unmaskedvalue="10"/>
      <field name="tcp.flags.push" showname=".... .... 0... = Push: Not set" size="1" pos="47" show="0" value="0" unmaskedvalue="10"/>
      <field name="tcp.flags.reset" showname=".... .... .0.. = Reset: Not set" size="1" pos="47" show="0" value="0" unmaskedvalue="10"/>
      <field name="tcp.flags.syn" showname=".... .... ..0. = Syn: Not set" size="1" pos="47" show="0" value="0" unmaskedvalue="10"/>
      <field name="tcp.flags.fin" showname=".... .... ...0 = Fin: Not set" size="1" pos="47" show="0" value="0" unmaskedvalue="10"/>
    </field>
    <field name="tcp.window_size_value" showname="Window size value: 229" size="2" pos="48" show="229" value="00e5"/>
    <field name="tcp.window_size" showname="Calculated window size: 29312" size="2" pos="48" show="29312" value="00e5"/>
    <field name="tcp.window_size_scalefactor" showname="Window size scaling factor: 128" size="2" pos="48" show="128" value="00e5"/>
    <field name="tcp.checksum" showname="Checksum: 0xae2f [validation disabled]" size="2" pos="50" show="44591" value="ae2f">
      <field name="tcp.checksum_good" showname="Good Checksum: False" size="2" pos="50" show="0" value="ae2f"/>
      <field name="tcp.checksum_bad" showname="Bad Checksum: False" size="2" pos="50" show="0" value="ae2f"/>
    </field>
    <field name="tcp.analysis" showname="SEQ/ACK analysis" size="0" pos="34" show="" value="">
      <field name="tcp.analysis.acks_frame" showname="This is an ACK to the segment in frame: 2" size="0" pos="34" show="2"/>
      <field name="tcp.analysis.ack_rtt" showname="The RTT to ACK the segment was: 0.000047000 seconds" size="0" pos="34" show="0.000047000"/>
    </field>
  </proto>
</packet>


<packet>
  <proto name="geninfo" pos="0" showname="General information" size="391">
    <field name="num" pos="0" show="4" showname="Number" value="4" size="391"/>
    <field name="len" pos="0" show="391" showname="Frame Length" value="187" size="391"/>
    <field name="caplen" pos="0" show="391" showname="Captured Length" value="187" size="391"/>
    <field name="timestamp" pos="0" show="Jun 27, 2019 12:20:56.991669000 CEST" showname="Captured Time" value="1561630856.991669000" size="391"/>
  </proto>
  <proto name="frame" showname="Frame 4: 391 bytes on wire (3128 bits), 391 bytes captured (3128 bits) on interface 0" size="391" pos="0">
    <field name="frame.interface_id" showname="Interface id: 0" size="0" pos="0" show="0"/>
    <field name="frame.encap_type" showname="Encapsulation type: Ethernet (1)" size="0" pos="0" show="1"/>
    <field name="frame.time" showname="Arrival Time: Jun 27, 2019 12:20:56.991669000 CEST" size="0" pos="0" show="&quot;Jun 27, 2019 12:20:56.991669000 CEST&quot;"/>
    <field name="frame.offset_shift" showname="Time shift for this packet: 0.000000000 seconds" size="0" pos="0" show="0.000000000"/>
    <field name="frame.time_epoch" showname="Epoch Time: 1561630856.991669000 seconds" size="0" pos="0" show="1561630856.991669000"/>
    <field name="frame.time_delta" showname="Time delta from previous captured frame: 0.000843000 seconds" size="0" pos="0" show="0.000843000"/>
    <field name="frame.time_delta_displayed" showname="Time delta from previous displayed frame: 0.000843000 seconds" size="0" pos="0" show="0.000843000"/>
    <field name="frame.time_relative" showname="Time since reference or first frame: 0.004607000 seconds" size="0" pos="0" show="0.004607000"/>
    <field name="frame.number" showname="Frame Number: 4" size="0" pos="0" show="4"/>
    <field name="frame.len" showname="Frame Length: 391 bytes (3128 bits)" size="0" pos="0" show="391"/>
    <field name="frame.cap_len" showname="Capture Length: 391 bytes (3128 bits)" size="0" pos="0" show="391"/>
    <field name="frame.marked" showname="Frame is marked: False" size="0" pos="0" show="0"/>
    <field name="frame.ignored" showname="Frame is ignored: False" size="0" pos="0" show="0"/>
    <field name="frame.protocols" showname="Protocols in frame: eth:ip:tcp:data" size="0" pos="0" show="eth:ip:tcp:data"/>
  </proto>
  <proto name="eth" showname="Ethernet II, Src: 02:42:ac:11:00:02 (02:42:ac:11:00:02), Dst: 02:42:71:12:56:af (02:42:71:12:56:af)" size="14" pos="0">
    <field name="eth.dst" showname="Destination: 02:42:71:12:56:af (02:42:71:12:56:af)" size="6" pos="0" show="02:42:71:12:56:af" value="0242711256af">
      <field name="eth.addr" showname="Address: 02:42:71:12:56:af (02:42:71:12:56:af)" size="6" pos="0" show="02:42:71:12:56:af" value="0242711256af"/>
      <field name="eth.lg" showname=".... ..1. .... .... .... .... = LG bit: Locally administered address (this is NOT the factory default)" size="3" pos="0" show="1" value="1" unmaskedvalue="024271"/>
      <field name="eth.ig" showname=".... ...0 .... .... .... .... = IG bit: Individual address (unicast)" size="3" pos="0" show="0" value="0" unmaskedvalue="024271"/>
    </field>
    <field name="eth.src" showname="Source: 02:42:ac:11:00:02 (02:42:ac:11:00:02)" size="6" pos="6" show="02:42:ac:11:00:02" value="0242ac110002">
      <field name="eth.addr" showname="Address: 02:42:ac:11:00:02 (02:42:ac:11:00:02)" size="6" pos="6" show="02:42:ac:11:00:02" value="0242ac110002"/>
      <field name="eth.lg" showname=".... ..1. .... .... .... .... = LG bit: Locally administered address (this is NOT the factory default)" size="3" pos="6" show="1" value="1" unmaskedvalue="0242ac"/>
      <field name="eth.ig" showname=".... ...0 .... .... .... .... = IG bit: Individual address (unicast)" size="3" pos="6" show="0" value="0" unmaskedvalue="0242ac"/>
    </field>
    <field name="eth.type" showname="Type: IP (0x0800)" size="2" pos="12" show="2048" value="0800"/>
  </proto>
  <proto name="ip" showname="Internet Protocol Version 4, Src: 172.17.0.2 (172.17.0.2), Dst: 1.1.1.1 (1.1.1.1)" size="20" pos="14">
    <field name="ip.version" showname="Version: 4" size="1" pos="14" show="4" value="45"/>
    <field name="ip.hdr_len" showname="Header length: 20 bytes" size="1" pos="14" show="20" value="45"/>
    <field name="ip.dsfield" showname="Differentiated Services Field: 0x00 (DSCP 0x00: Default; ECN: 0x00: Not-ECT (Not ECN-Capable Transport))" size="1" pos="15" show="0" value="00">
      <field name="ip.dsfield.dscp" showname="0000 00.. = Differentiated Services Codepoint: Default (0x00)" size="1" pos="15" show="0" value="0" unmaskedvalue="00"/>
      <field name="ip.dsfield.ecn" showname=".... ..00 = Explicit Congestion Notification: Not-ECT (Not ECN-Capable Transport) (0x00)" size="1" pos="15" show="0" value="0" unmaskedvalue="00"/>
    </field>
    <field name="ip.len" showname="Total Length: 377" size="2" pos="16" show="377" value="0179"/>
    <field name="ip.id" showname="Identification: 0x389e (14494)" size="2" pos="18" show="14494" value="389e"/>
    <field name="ip.flags" showname="Flags: 0x02 (Don&apos;t Fragment)" size="1" pos="20" show="2" value="40">
      <field name="ip.flags.rb" showname="0... .... = Reserved bit: Not set" size="1" pos="20" show="0" value="40"/>
      <field name="ip.flags.df" showname=".1.. .... = Don&apos;t fragment: Set" size="1" pos="20" show="1" value="40"/>
      <field name="ip.flags.mf" showname="..0. .... = More fragments: Not set" size="1" pos="20" show="0" value="40"/>
    </field>
    <field name="ip.frag_offset" showname="Fragment offset: 0" size="2" pos="20" show="0" value="4000"/>
    <field name="ip.ttl" showname="Time to live: 64" size="1" pos="22" show="64" value="40"/>
    <field name="ip.proto" showname="Protocol: TCP (6)" size="1" pos="23" show="6" value="06"/>
    <field name="ip.checksum" showname="Header checksum: 0x52cc [validation disabled]" size="2" pos="24" show="21196" value="52cc">
      <field name="ip.checksum_good" showname="Good: False" size="2" pos="24" show="0" value="52cc"/>
      <field name="ip.checksum_bad" showname="Bad: False" size="2" pos="24" show="0" value="52cc"/>
    </field>
    <field name="ip.src" showname="Source: 172.17.0.2 (172.17.0.2)" size="4" pos="26" show="172.17.0.2" value="ac110002"/>
    <field name="ip.addr" showname="Source or Destination Address: 172.17.0.2 (172.17.0.2)" hide="yes" size="4" pos="26" show="172.17.0.2" value="ac110002"/>
    <field name="ip.src_host" showname="Source Host: 172.17.0.2" hide="yes" size="4" pos="26" show="172.17.0.2" value="ac110002"/>
    <field name="ip.host" showname="Source or Destination Host: 172.17.0.2" hide="yes" size="4" pos="26" show="172.17.0.2" value="ac110002"/>
    <field name="ip.dst" showname="Destination: 1.1.1.1 (1.1.1.1)" size="4" pos="30" show="1.1.1.1" value="01010101"/>
    <field name="ip.addr" showname="Source or Destination Address: 1.1.1.1 (1.1.1.1)" hide="yes" size="4" pos="30" show="1.1.1.1" value="01010101"/>
    <field name="ip.dst_host" showname="Destination Host: 1.1.1.1" hide="yes" size="4" pos="30" show="1.1.1.1" value="01010101"/>
    <field name="ip.host" showname="Source or Destination Host: 1.1.1.1" hide="yes" size="4" pos="30" show="1.1.1.1" value="01010101"/>
  </proto>
  <proto name="tcp" showname="Transmission Control Protocol, Src Port: 59654 (59654), Dst Port: 853 (853), Seq: 1, Ack: 1, Len: 337" size="20" pos="34">
    <field name="tcp.srcport" showname="Source port: 59654 (59654)" size="2" pos="34" show="59654" value="e906"/>
    <field name="tcp.dstport" showname="Destination port: 853 (853)" size="2" pos="36" show="853" value="0355"/>
    <field name="tcp.port" showname="Source or Destination Port: 59654" hide="yes" size="2" pos="34" show="59654" value="e906"/>
    <field name="tcp.port" showname="Source or Destination Port: 853" hide="yes" size="2" pos="36" show="853" value="0355"/>
    <field name="tcp.stream" showname="Stream index: 0" size="0" pos="34" show="0"/>
    <field name="tcp.len" showname="TCP Segment Len: 337" hide="yes" size="1" pos="46" show="337" value="50"/>
    <field name="tcp.seq" showname="Sequence number: 1    (relative sequence number)" size="4" pos="38" show="1" value="f2f150af"/>
    <field name="tcp.nxtseq" showname="Next sequence number: 338    (relative sequence number)" size="0" pos="34" show="338"/>
    <field name="tcp.ack" showname="Acknowledgment number: 1    (relative ack number)" size="4" pos="42" show="1" value="5826141e"/>
    <field name="tcp.hdr_len" showname="Header length: 20 bytes" size="1" pos="46" show="20" value="50"/>
    <field name="tcp.flags" showname="Flags: 0x018 (PSH, ACK)" size="2" pos="46" show="24" value="18" unmaskedvalue="5018">
      <field name="tcp.flags.res" showname="000. .... .... = Reserved: Not set" size="1" pos="46" show="0" value="0" unmaskedvalue="50"/>
      <field name="tcp.flags.ns" showname="...0 .... .... = Nonce: Not set" size="1" pos="46" show="0" value="0" unmaskedvalue="50"/>
      <field name="tcp.flags.cwr" showname=".... 0... .... = Congestion Window Reduced (CWR): Not set" size="1" pos="47" show="0" value="0" unmaskedvalue="18"/>
      <field name="tcp.flags.ecn" showname=".... .0.. .... = ECN-Echo: Not set" size="1" pos="47" show="0" value="0" unmaskedvalue="18"/>
      <field name="tcp.flags.urg" showname=".... ..0. .... = Urgent: Not set" size="1" pos="47" show="0" value="0" unmaskedvalue="18"/>
      <field name="tcp.flags.ack" showname=".... ...1 .... = Acknowledgment: Set" size="1" pos="47" show="1" value="1" unmaskedvalue="18"/>
      <field name="tcp.flags.push" showname=".... .... 1... = Push: Set" size="1" pos="47" show="1" value="1" unmaskedvalue="18"/>
      <field name="tcp.flags.reset" showname=".... .... .0.. = Reset: Not set" size="1" pos="47" show="0" value="0" unmaskedvalue="18"/>
      <field name="tcp.flags.syn" showname=".... .... ..0. = Syn: Not set" size="1" pos="47" show="0" value="0" unmaskedvalue="18"/>
      <field name="tcp.flags.fin" showname=".... .... ...0 = Fin: Not set" size="1" pos="47" show="0" value="0" unmaskedvalue="18"/>
    </field>
    <field name="tcp.window_size_value" showname="Window size value: 229" size="2" pos="48" show="229" value="00e5"/>
    <field name="tcp.window_size" showname="Calculated window size: 29312" size="2" pos="48" show="29312" value="00e5"/>
    <field name="tcp.window_size_scalefactor" showname="Window size scaling factor: 128" size="2" pos="48" show="128" value="00e5"/>
    <field name="tcp.checksum" showname="Checksum: 0xaf80 [validation disabled]" size="2" pos="50" show="44928" value="af80">
      <field name="tcp.checksum_good" showname="Good Checksum: False" size="2" pos="50" show="0" value="af80"/>
      <field name="tcp.checksum_bad" showname="Bad Checksum: False" size="2" pos="50" show="0" value="af80"/>
    </field>
    <field name="tcp.analysis" showname="SEQ/ACK analysis" size="0" pos="34" show="" value="">
      <field name="tcp.analysis.bytes_in_flight" showname="Bytes in flight: 337" size="0" pos="34" show="337"/>
    </field>
  </proto>
  <proto name="fake-field-wrapper">
    <field name="data" value="160301014c0100014803030881c2889574ff5412fd79c78eea8156d9ec293b76b894ffaec14bda554fa18f00003a1302130313011304c02ccca9c0adc00ac02bc0acc009c030cca8c014c02fc013009dc09d0035009cc09c002f009fccaac09f0039009ec09e0033010000e5000500050100000000000a00140012001700180019001d01000101010201030104000b00020100000d0020001e040108090804040308070501080a080505030601080b08060603020102030016000000170000002300000033006b00690017004104066cc9056293623a84dd9e696d49d71e63c3e7e57a3b996f35906a1defecfc5f4e24a1e650e16bff0dfa85b831328063ba00f60a902bd50af0d555c3bcf795da001d002028f5c3ded9fd1380398b7ca8ec422668f765d0f707a68955f262e6a91807bf2a002b0009080304030303020301ff01000100002d0003020100001c00024001">
      <field name="data.data" showname="Data: 160301014c0100014803030881c2889574ff5412fd79c78e..." size="337" pos="54" show="16:03:01:01:4c:01:00:01:48:03:03:08:81:c2:88:95:74:ff:54:12:fd:79:c7:8e:ea:81:56:d9:ec:29:3b:76:b8:94:ff:ae:c1:4b:da:55:4f:a1:8f:00:00:3a:13:02:13:03:13:01:13:04:c0:2c:cc:a9:c0:ad:c0:0a:c0:2b:c0:ac:c0:09:c0:30:cc:a8:c0:14:c0:2f:c0:13:00:9d:c0:9d:00:35:00:9c:c0:9c:00:2f:00:9f:cc:aa:c0:9f:00:39:00:9e:c0:9e:00:33:01:00:00:e5:00:05:00:05:01:00:00:00:00:00:0a:00:14:00:12:00:17:00:18:00:19:00:1d:01:00:01:01:01:02:01:03:01:04:00:0b:00:02:01:00:00:0d:00:20:00:1e:04:01:08:09:08:04:04:03:08:07:05:01:08:0a:08:05:05:03:06:01:08:0b:08:06:06:03:02:01:02:03:00:16:00:00:00:17:00:00:00:23:00:00:00:33:00:6b:00:69:00:17:00:41:04:06:6c:c9:05:62:93:62:3a:84:dd:9e:69:6d:49:d7:1e:63:c3:e7:e5:7a:3b:99:6f:35:90:6a:1d:ef:ec:fc:5f:4e:24:a1:e6:50:e1:6b:ff:0d:fa:85:b8:31:32:80:63:ba:00:f6:0a:90:2b:d5:0a:f0:d5:55:c3:bc:f7:95:da:00:1d:00:20:28:f5:c3:de:d9:fd:13:80:39:8b:7c:a8:ec:42:26:68:f7:65:d0:f7:07:a6:89:55:f2:62:e6:a9:18:07:bf:2a:00:2b:00:09:08:03:04:03:03:03:02:03:01:ff:01:00:01:00:00:2d:00:03:02:01:00:00:1c:00:02:40:01" value="160301014c0100014803030881c2889574ff5412fd79c78eea8156d9ec293b76b894ffaec14bda554fa18f00003a1302130313011304c02ccca9c0adc00ac02bc0acc009c030cca8c014c02fc013009dc09d0035009cc09c002f009fccaac09f0039009ec09e0033010000e5000500050100000000000a00140012001700180019001d01000101010201030104000b00020100000d0020001e040108090804040308070501080a080505030601080b08060603020102030016000000170000002300000033006b00690017004104066cc9056293623a84dd9e696d49d71e63c3e7e57a3b996f35906a1defecfc5f4e24a1e650e16bff0dfa85b831328063ba00f60a902bd50af0d555c3bcf795da001d002028f5c3ded9fd1380398b7ca8ec422668f765d0f707a68955f262e6a91807bf2a002b0009080304030303020301ff01000100002d0003020100001c00024001"/>
      <field name="data.len" showname="Length: 337" size="0" pos="54" show="337"/>
  </field>
</proto>
</packet>


<packet>
  <proto name="geninfo" pos="0" showname="General information" size="54">
    <field name="num" pos="0" show="5" showname="Number" value="5" size="54"/>
    <field name="len" pos="0" show="54" showname="Frame Length" value="36" size="54"/>
    <field name="caplen" pos="0" show="54" showname="Captured Length" value="36" size="54"/>
    <field name="timestamp" pos="0" show="Jun 27, 2019 12:20:56.995283000 CEST" showname="Captured Time" value="1561630856.995283000" size="54"/>
  </proto>
  <proto name="frame" showname="Frame 5: 54 bytes on wire (432 bits), 54 bytes captured (432 bits) on interface 0" size="54" pos="0">
    <field name="frame.interface_id" showname="Interface id: 0" size="0" pos="0" show="0"/>
    <field name="frame.encap_type" showname="Encapsulation type: Ethernet (1)" size="0" pos="0" show="1"/>
    <field name="frame.time" showname="Arrival Time: Jun 27, 2019 12:20:56.995283000 CEST" size="0" pos="0" show="&quot;Jun 27, 2019 12:20:56.995283000 CEST&quot;"/>
    <field name="frame.offset_shift" showname="Time shift for this packet: 0.000000000 seconds" size="0" pos="0" show="0.000000000"/>
    <field name="frame.time_epoch" showname="Epoch Time: 1561630856.995283000 seconds" size="0" pos="0" show="1561630856.995283000"/>
    <field name="frame.time_delta" showname="Time delta from previous captured frame: 0.003614000 seconds" size="0" pos="0" show="0.003614000"/>
    <field name="frame.time_delta_displayed" showname="Time delta from previous displayed frame: 0.003614000 seconds" size="0" pos="0" show="0.003614000"/>
    <field name="frame.time_relative" showname="Time since reference or first frame: 0.008221000 seconds" size="0" pos="0" show="0.008221000"/>
    <field name="frame.number" showname="Frame Number: 5" size="0" pos="0" show="5"/>
    <field name="frame.len" showname="Frame Length: 54 bytes (432 bits)" size="0" pos="0" show="54"/>
    <field name="frame.cap_len" showname="Capture Length: 54 bytes (432 bits)" size="0" pos="0" show="54"/>
    <field name="frame.marked" showname="Frame is marked: False" size="0" pos="0" show="0"/>
    <field name="frame.ignored" showname="Frame is ignored: False" size="0" pos="0" show="0"/>
    <field name="frame.protocols" showname="Protocols in frame: eth:ip:tcp" size="0" pos="0" show="eth:ip:tcp"/>
  </proto>
  <proto name="eth" showname="Ethernet II, Src: 02:42:71:12:56:af (02:42:71:12:56:af), Dst: 02:42:ac:11:00:02 (02:42:ac:11:00:02)" size="14" pos="0">
    <field name="eth.dst" showname="Destination: 02:42:ac:11:00:02 (02:42:ac:11:00:02)" size="6" pos="0" show="02:42:ac:11:00:02" value="0242ac110002">
      <field name="eth.addr" showname="Address: 02:42:ac:11:00:02 (02:42:ac:11:00:02)" size="6" pos="0" show="02:42:ac:11:00:02" value="0242ac110002"/>
      <field name="eth.lg" showname=".... ..1. .... .... .... .... = LG bit: Locally administered address (this is NOT the factory default)" size="3" pos="0" show="1" value="1" unmaskedvalue="0242ac"/>
      <field name="eth.ig" showname=".... ...0 .... .... .... .... = IG bit: Individual address (unicast)" size="3" pos="0" show="0" value="0" unmaskedvalue="0242ac"/>
    </field>
    <field name="eth.src" showname="Source: 02:42:71:12:56:af (02:42:71:12:56:af)" size="6" pos="6" show="02:42:71:12:56:af" value="0242711256af">
      <field name="eth.addr" showname="Address: 02:42:71:12:56:af (02:42:71:12:56:af)" size="6" pos="6" show="02:42:71:12:56:af" value="0242711256af"/>
      <field name="eth.lg" showname=".... ..1. .... .... .... .... = LG bit: Locally administered address (this is NOT the factory default)" size="3" pos="6" show="1" value="1" unmaskedvalue="024271"/>
      <field name="eth.ig" showname=".... ...0 .... .... .... .... = IG bit: Individual address (unicast)" size="3" pos="6" show="0" value="0" unmaskedvalue="024271"/>
    </field>
    <field name="eth.type" showname="Type: IP (0x0800)" size="2" pos="12" show="2048" value="0800"/>
  </proto>
  <proto name="ip" showname="Internet Protocol Version 4, Src: 1.1.1.1 (1.1.1.1), Dst: 172.17.0.2 (172.17.0.2)" size="20" pos="14">
    <field name="ip.version" showname="Version: 4" size="1" pos="14" show="4" value="45"/>
    <field name="ip.hdr_len" showname="Header length: 20 bytes" size="1" pos="14" show="20" value="45"/>
    <field name="ip.dsfield" showname="Differentiated Services Field: 0x00 (DSCP 0x00: Default; ECN: 0x00: Not-ECT (Not ECN-Capable Transport))" size="1" pos="15" show="0" value="00">
      <field name="ip.dsfield.dscp" showname="0000 00.. = Differentiated Services Codepoint: Default (0x00)" size="1" pos="15" show="0" value="0" unmaskedvalue="00"/>
      <field name="ip.dsfield.ecn" showname=".... ..00 = Explicit Congestion Notification: Not-ECT (Not ECN-Capable Transport) (0x00)" size="1" pos="15" show="0" value="0" unmaskedvalue="00"/>
    </field>
    <field name="ip.len" showname="Total Length: 40" size="2" pos="16" show="40" value="0028"/>
    <field name="ip.id" showname="Identification: 0xf82b (63531)" size="2" pos="18" show="63531" value="f82b"/>
    <field name="ip.flags" showname="Flags: 0x02 (Don&apos;t Fragment)" size="1" pos="20" show="2" value="40">
      <field name="ip.flags.rb" showname="0... .... = Reserved bit: Not set" size="1" pos="20" show="0" value="40"/>
      <field name="ip.flags.df" showname=".1.. .... = Don&apos;t fragment: Set" size="1" pos="20" show="1" value="40"/>
      <field name="ip.flags.mf" showname="..0. .... = More fragments: Not set" size="1" pos="20" show="0" value="40"/>
    </field>
    <field name="ip.frag_offset" showname="Fragment offset: 0" size="2" pos="20" show="0" value="4000"/>
    <field name="ip.ttl" showname="Time to live: 57" size="1" pos="22" show="57" value="39"/>
    <field name="ip.proto" showname="Protocol: TCP (6)" size="1" pos="23" show="6" value="06"/>
    <field name="ip.checksum" showname="Header checksum: 0x9b8f [validation disabled]" size="2" pos="24" show="39823" value="9b8f">
      <field name="ip.checksum_good" showname="Good: False" size="2" pos="24" show="0" value="9b8f"/>
      <field name="ip.checksum_bad" showname="Bad: False" size="2" pos="24" show="0" value="9b8f"/>
    </field>
    <field name="ip.src" showname="Source: 1.1.1.1 (1.1.1.1)" size="4" pos="26" show="1.1.1.1" value="01010101"/>
    <field name="ip.addr" showname="Source or Destination Address: 1.1.1.1 (1.1.1.1)" hide="yes" size="4" pos="26" show="1.1.1.1" value="01010101"/>
    <field name="ip.src_host" showname="Source Host: 1.1.1.1" hide="yes" size="4" pos="26" show="1.1.1.1" value="01010101"/>
    <field name="ip.host" showname="Source or Destination Host: 1.1.1.1" hide="yes" size="4" pos="26" show="1.1.1.1" value="01010101"/>
    <field name="ip.dst" showname="Destination: 172.17.0.2 (172.17.0.2)" size="4" pos="30" show="172.17.0.2" value="ac110002"/>
    <field name="ip.addr" showname="Source or Destination Address: 172.17.0.2 (172.17.0.2)" hide="yes" size="4" pos="30" show="172.17.0.2" value="ac110002"/>
    <field name="ip.dst_host" showname="Destination Host: 172.17.0.2" hide="yes" size="4" pos="30" show="172.17.0.2" value="ac110002"/>
    <field name="ip.host" showname="Source or Destination Host: 172.17.0.2" hide="yes" size="4" pos="30" show="172.17.0.2" value="ac110002"/>
  </proto>
  <proto name="tcp" showname="Transmission Control Protocol, Src Port: 853 (853), Dst Port: 59654 (59654), Seq: 1, Ack: 338, Len: 0" size="20" pos="34">
    <field name="tcp.srcport" showname="Source port: 853 (853)" size="2" pos="34" show="853" value="0355"/>
    <field name="tcp.dstport" showname="Destination port: 59654 (59654)" size="2" pos="36" show="59654" value="e906"/>
    <field name="tcp.port" showname="Source or Destination Port: 853" hide="yes" size="2" pos="34" show="853" value="0355"/>
    <field name="tcp.port" showname="Source or Destination Port: 59654" hide="yes" size="2" pos="36" show="59654" value="e906"/>
    <field name="tcp.stream" showname="Stream index: 0" size="0" pos="34" show="0"/>
    <field name="tcp.len" showname="TCP Segment Len: 0" hide="yes" size="1" pos="46" show="0" value="50"/>
    <field name="tcp.seq" showname="Sequence number: 1    (relative sequence number)" size="4" pos="38" show="1" value="5826141e"/>
    <field name="tcp.ack" showname="Acknowledgment number: 338    (relative ack number)" size="4" pos="42" show="338" value="f2f15200"/>
    <field name="tcp.hdr_len" showname="Header length: 20 bytes" size="1" pos="46" show="20" value="50"/>
    <field name="tcp.flags" showname="Flags: 0x010 (ACK)" size="2" pos="46" show="16" value="10" unmaskedvalue="5010">
      <field name="tcp.flags.res" showname="000. .... .... = Reserved: Not set" size="1" pos="46" show="0" value="0" unmaskedvalue="50"/>
      <field name="tcp.flags.ns" showname="...0 .... .... = Nonce: Not set" size="1" pos="46" show="0" value="0" unmaskedvalue="50"/>
      <field name="tcp.flags.cwr" showname=".... 0... .... = Congestion Window Reduced (CWR): Not set" size="1" pos="47" show="0" value="0" unmaskedvalue="10"/>
      <field name="tcp.flags.ecn" showname=".... .0.. .... = ECN-Echo: Not set" size="1" pos="47" show="0" value="0" unmaskedvalue="10"/>
      <field name="tcp.flags.urg" showname=".... ..0. .... = Urgent: Not set" size="1" pos="47" show="0" value="0" unmaskedvalue="10"/>
      <field name="tcp.flags.ack" showname=".... ...1 .... = Acknowledgment: Set" size="1" pos="47" show="1" value="1" unmaskedvalue="10"/>
      <field name="tcp.flags.push" showname=".... .... 0... = Push: Not set" size="1" pos="47" show="0" value="0" unmaskedvalue="10"/>
      <field name="tcp.flags.reset" showname=".... .... .0.. = Reset: Not set" size="1" pos="47" show="0" value="0" unmaskedvalue="10"/>
      <field name="tcp.flags.syn" showname=".... .... ..0. = Syn: Not set" size="1" pos="47" show="0" value="0" unmaskedvalue="10"/>
      <field name="tcp.flags.fin" showname=".... .... ...0 = Fin: Not set" size="1" pos="47" show="0" value="0" unmaskedvalue="10"/>
    </field>
    <field name="tcp.window_size_value" showname="Window size value: 30" size="2" pos="48" show="30" value="001e"/>
    <field name="tcp.window_size" showname="Calculated window size: 30720" size="2" pos="48" show="30720" value="001e"/>
    <field name="tcp.window_size_scalefactor" showname="Window size scaling factor: 1024" size="2" pos="48" show="1024" value="001e"/>
    <field name="tcp.checksum" showname="Checksum: 0x640f [validation disabled]" size="2" pos="50" show="25615" value="640f">
      <field name="tcp.checksum_good" showname="Good Checksum: False" size="2" pos="50" show="0" value="640f"/>
      <field name="tcp.checksum_bad" showname="Bad Checksum: False" size="2" pos="50" show="0" value="640f"/>
    </field>
    <field name="tcp.analysis" showname="SEQ/ACK analysis" size="0" pos="34" show="" value="">
      <field name="tcp.analysis.acks_frame" showname="This is an ACK to the segment in frame: 4" size="0" pos="34" show="4"/>
      <field name="tcp.analysis.ack_rtt" showname="The RTT to ACK the segment was: 0.003614000 seconds" size="0" pos="34" show="0.003614000"/>
    </field>
  </proto>
</packet>


<packet>
  <proto name="geninfo" pos="0" showname="General information" size="188">
    <field name="num" pos="0" show="6" showname="Number" value="6" size="188"/>
    <field name="len" pos="0" show="188" showname="Frame Length" value="bc" size="188"/>
    <field name="caplen" pos="0" show="188" showname="Captured Length" value="bc" size="188"/>
    <field name="timestamp" pos="0" show="Jun 27, 2019 12:20:56.995920000 CEST" showname="Captured Time" value="1561630856.995920000" size="188"/>
  </proto>
  <proto name="frame" showname="Frame 6: 188 bytes on wire (1504 bits), 188 bytes captured (1504 bits) on interface 0" size="188" pos="0">
    <field name="frame.interface_id" showname="Interface id: 0" size="0" pos="0" show="0"/>
    <field name="frame.encap_type" showname="Encapsulation type: Ethernet (1)" size="0" pos="0" show="1"/>
    <field name="frame.time" showname="Arrival Time: Jun 27, 2019 12:20:56.995920000 CEST" size="0" pos="0" show="&quot;Jun 27, 2019 12:20:56.995920000 CEST&quot;"/>
    <field name="frame.offset_shift" showname="Time shift for this packet: 0.000000000 seconds" size="0" pos="0" show="0.000000000"/>
    <field name="frame.time_epoch" showname="Epoch Time: 1561630856.995920000 seconds" size="0" pos="0" show="1561630856.995920000"/>
    <field name="frame.time_delta" showname="Time delta from previous captured frame: 0.000637000 seconds" size="0" pos="0" show="0.000637000"/>
    <field name="frame.time_delta_displayed" showname="Time delta from previous displayed frame: 0.000637000 seconds" size="0" pos="0" show="0.000637000"/>
    <field name="frame.time_relative" showname="Time since reference or first frame: 0.008858000 seconds" size="0" pos="0" show="0.008858000"/>
    <field name="frame.number" showname="Frame Number: 6" size="0" pos="0" show="6"/>
    <field name="frame.len" showname="Frame Length: 188 bytes (1504 bits)" size="0" pos="0" show="188"/>
    <field name="frame.cap_len" showname="Capture Length: 188 bytes (1504 bits)" size="0" pos="0" show="188"/>
    <field name="frame.marked" showname="Frame is marked: False" size="0" pos="0" show="0"/>
    <field name="frame.ignored" showname="Frame is ignored: False" size="0" pos="0" show="0"/>
    <field name="frame.protocols" showname="Protocols in frame: eth:ip:tcp:data" size="0" pos="0" show="eth:ip:tcp:data"/>
  </proto>
  <proto name="eth" showname="Ethernet II, Src: 02:42:71:12:56:af (02:42:71:12:56:af), Dst: 02:42:ac:11:00:02 (02:42:ac:11:00:02)" size="14" pos="0">
    <field name="eth.dst" showname="Destination: 02:42:ac:11:00:02 (02:42:ac:11:00:02)" size="6" pos="0" show="02:42:ac:11:00:02" value="0242ac110002">
      <field name="eth.addr" showname="Address: 02:42:ac:11:00:02 (02:42:ac:11:00:02)" size="6" pos="0" show="02:42:ac:11:00:02" value="0242ac110002"/>
      <field name="eth.lg" showname=".... ..1. .... .... .... .... = LG bit: Locally administered address (this is NOT the factory default)" size="3" pos="0" show="1" value="1" unmaskedvalue="0242ac"/>
      <field name="eth.ig" showname=".... ...0 .... .... .... .... = IG bit: Individual address (unicast)" size="3" pos="0" show="0" value="0" unmaskedvalue="0242ac"/>
    </field>
    <field name="eth.src" showname="Source: 02:42:71:12:56:af (02:42:71:12:56:af)" size="6" pos="6" show="02:42:71:12:56:af" value="0242711256af">
      <field name="eth.addr" showname="Address: 02:42:71:12:56:af (02:42:71:12:56:af)" size="6" pos="6" show="02:42:71:12:56:af" value="0242711256af"/>
      <field name="eth.lg" showname=".... ..1. .... .... .... .... = LG bit: Locally administered address (this is NOT the factory default)" size="3" pos="6" show="1" value="1" unmaskedvalue="024271"/>
      <field name="eth.ig" showname=".... ...0 .... .... .... .... = IG bit: Individual address (unicast)" size="3" pos="6" show="0" value="0" unmaskedvalue="024271"/>
    </field>
    <field name="eth.type" showname="Type: IP (0x0800)" size="2" pos="12" show="2048" value="0800"/>
  </proto>
  <proto name="ip" showname="Internet Protocol Version 4, Src: 1.1.1.1 (1.1.1.1), Dst: 172.17.0.2 (172.17.0.2)" size="20" pos="14">
    <field name="ip.version" showname="Version: 4" size="1" pos="14" show="4" value="45"/>
    <field name="ip.hdr_len" showname="Header length: 20 bytes" size="1" pos="14" show="20" value="45"/>
    <field name="ip.dsfield" showname="Differentiated Services Field: 0x00 (DSCP 0x00: Default; ECN: 0x00: Not-ECT (Not ECN-Capable Transport))" size="1" pos="15" show="0" value="00">
      <field name="ip.dsfield.dscp" showname="0000 00.. = Differentiated Services Codepoint: Default (0x00)" size="1" pos="15" show="0" value="0" unmaskedvalue="00"/>
      <field name="ip.dsfield.ecn" showname=".... ..00 = Explicit Congestion Notification: Not-ECT (Not ECN-Capable Transport) (0x00)" size="1" pos="15" show="0" value="0" unmaskedvalue="00"/>
    </field>
    <field name="ip.len" showname="Total Length: 174" size="2" pos="16" show="174" value="00ae"/>
    <field name="ip.id" showname="Identification: 0xf82c (63532)" size="2" pos="18" show="63532" value="f82c"/>
    <field name="ip.flags" showname="Flags: 0x02 (Don&apos;t Fragment)" size="1" pos="20" show="2" value="40">
      <field name="ip.flags.rb" showname="0... .... = Reserved bit: Not set" size="1" pos="20" show="0" value="40"/>
      <field name="ip.flags.df" showname=".1.. .... = Don&apos;t fragment: Set" size="1" pos="20" show="1" value="40"/>
      <field name="ip.flags.mf" showname="..0. .... = More fragments: Not set" size="1" pos="20" show="0" value="40"/>
    </field>
    <field name="ip.frag_offset" showname="Fragment offset: 0" size="2" pos="20" show="0" value="4000"/>
    <field name="ip.ttl" showname="Time to live: 57" size="1" pos="22" show="57" value="39"/>
    <field name="ip.proto" showname="Protocol: TCP (6)" size="1" pos="23" show="6" value="06"/>
    <field name="ip.checksum" showname="Header checksum: 0x9b08 [validation disabled]" size="2" pos="24" show="39688" value="9b08">
      <field name="ip.checksum_good" showname="Good: False" size="2" pos="24" show="0" value="9b08"/>
      <field name="ip.checksum_bad" showname="Bad: False" size="2" pos="24" show="0" value="9b08"/>
    </field>
    <field name="ip.src" showname="Source: 1.1.1.1 (1.1.1.1)" size="4" pos="26" show="1.1.1.1" value="01010101"/>
    <field name="ip.addr" showname="Source or Destination Address: 1.1.1.1 (1.1.1.1)" hide="yes" size="4" pos="26" show="1.1.1.1" value="01010101"/>
    <field name="ip.src_host" showname="Source Host: 1.1.1.1" hide="yes" size="4" pos="26" show="1.1.1.1" value="01010101"/>
    <field name="ip.host" showname="Source or Destination Host: 1.1.1.1" hide="yes" size="4" pos="26" show="1.1.1.1" value="01010101"/>
    <field name="ip.dst" showname="Destination: 172.17.0.2 (172.17.0.2)" size="4" pos="30" show="172.17.0.2" value="ac110002"/>
    <field name="ip.addr" showname="Source or Destination Address: 172.17.0.2 (172.17.0.2)" hide="yes" size="4" pos="30" show="172.17.0.2" value="ac110002"/>
    <field name="ip.dst_host" showname="Destination Host: 172.17.0.2" hide="yes" size="4" pos="30" show="172.17.0.2" value="ac110002"/>
    <field name="ip.host" showname="Source or Destination Host: 172.17.0.2" hide="yes" size="4" pos="30" show="172.17.0.2" value="ac110002"/>
  </proto>
  <proto name="tcp" showname="Transmission Control Protocol, Src Port: 853 (853), Dst Port: 59654 (59654), Seq: 1, Ack: 338, Len: 134" size="20" pos="34">
    <field name="tcp.srcport" showname="Source port: 853 (853)" size="2" pos="34" show="853" value="0355"/>
    <field name="tcp.dstport" showname="Destination port: 59654 (59654)" size="2" pos="36" show="59654" value="e906"/>
    <field name="tcp.port" showname="Source or Destination Port: 853" hide="yes" size="2" pos="34" show="853" value="0355"/>
    <field name="tcp.port" showname="Source or Destination Port: 59654" hide="yes" size="2" pos="36" show="59654" value="e906"/>
    <field name="tcp.stream" showname="Stream index: 0" size="0" pos="34" show="0"/>
    <field name="tcp.len" showname="TCP Segment Len: 134" hide="yes" size="1" pos="46" show="134" value="50"/>
    <field name="tcp.seq" showname="Sequence number: 1    (relative sequence number)" size="4" pos="38" show="1" value="5826141e"/>
    <field name="tcp.nxtseq" showname="Next sequence number: 135    (relative sequence number)" size="0" pos="34" show="135"/>
    <field name="tcp.ack" showname="Acknowledgment number: 338    (relative ack number)" size="4" pos="42" show="338" value="f2f15200"/>
    <field name="tcp.hdr_len" showname="Header length: 20 bytes" size="1" pos="46" show="20" value="50"/>
    <field name="tcp.flags" showname="Flags: 0x018 (PSH, ACK)" size="2" pos="46" show="24" value="18" unmaskedvalue="5018">
      <field name="tcp.flags.res" showname="000. .... .... = Reserved: Not set" size="1" pos="46" show="0" value="0" unmaskedvalue="50"/>
      <field name="tcp.flags.ns" showname="...0 .... .... = Nonce: Not set" size="1" pos="46" show="0" value="0" unmaskedvalue="50"/>
      <field name="tcp.flags.cwr" showname=".... 0... .... = Congestion Window Reduced (CWR): Not set" size="1" pos="47" show="0" value="0" unmaskedvalue="18"/>
      <field name="tcp.flags.ecn" showname=".... .0.. .... = ECN-Echo: Not set" size="1" pos="47" show="0" value="0" unmaskedvalue="18"/>
      <field name="tcp.flags.urg" showname=".... ..0. .... = Urgent: Not set" size="1" pos="47" show="0" value="0" unmaskedvalue="18"/>
      <field name="tcp.flags.ack" showname=".... ...1 .... = Acknowledgment: Set" size="1" pos="47" show="1" value="1" unmaskedvalue="18"/>
      <field name="tcp.flags.push" showname=".... .... 1... = Push: Set" size="1" pos="47" show="1" value="1" unmaskedvalue="18"/>
      <field name="tcp.flags.reset" showname=".... .... .0.. = Reset: Not set" size="1" pos="47" show="0" value="0" unmaskedvalue="18"/>
      <field name="tcp.flags.syn" showname=".... .... ..0. = Syn: Not set" size="1" pos="47" show="0" value="0" unmaskedvalue="18"/>
      <field name="tcp.flags.fin" showname=".... .... ...0 = Fin: Not set" size="1" pos="47" show="0" value="0" unmaskedvalue="18"/>
    </field>
    <field name="tcp.window_size_value" showname="Window size value: 30" size="2" pos="48" show="30" value="001e"/>
    <field name="tcp.window_size" showname="Calculated window size: 30720" size="2" pos="48" show="30720" value="001e"/>
    <field name="tcp.window_size_scalefactor" showname="Window size scaling factor: 1024" size="2" pos="48" show="1024" value="001e"/>
    <field name="tcp.checksum" showname="Checksum: 0x3fd9 [validation disabled]" size="2" pos="50" show="16345" value="3fd9">
      <field name="tcp.checksum_good" showname="Good Checksum: False" size="2" pos="50" show="0" value="3fd9"/>
      <field name="tcp.checksum_bad" showname="Bad Checksum: False" size="2" pos="50" show="0" value="3fd9"/>
    </field>
    <field name="tcp.analysis" showname="SEQ/ACK analysis" size="0" pos="34" show="" value="">
      <field name="tcp.analysis.bytes_in_flight" showname="Bytes in flight: 134" size="0" pos="34" show="134"/>
    </field>
  </proto>
  <proto name="fake-field-wrapper">
    <field name="data" value="160303007b0200007703030a2eab35081d90bafb8a42220c5d3999fc79faceaabc83a5444f574e4752440100130200004f0033004500170041049f1fcdc43874fb32667efffd1e6221bffbf7ff080f2b1b53a740147730e3d26ba2e18de41c8c67290ca696561f4c4cdcef03800bd166416aa73f1061c7fc5c76002b00020304140303000101">
      <field name="data.data" showname="Data: 160303007b0200007703030a2eab35081d90bafb8a42220c..." size="134" pos="54" show="16:03:03:00:7b:02:00:00:77:03:03:0a:2e:ab:35:08:1d:90:ba:fb:8a:42:22:0c:5d:39:99:fc:79:fa:ce:aa:bc:83:a5:44:4f:57:4e:47:52:44:01:00:13:02:00:00:4f:00:33:00:45:00:17:00:41:04:9f:1f:cd:c4:38:74:fb:32:66:7e:ff:fd:1e:62:21:bf:fb:f7:ff:08:0f:2b:1b:53:a7:40:14:77:30:e3:d2:6b:a2:e1:8d:e4:1c:8c:67:29:0c:a6:96:56:1f:4c:4c:dc:ef:03:80:0b:d1:66:41:6a:a7:3f:10:61:c7:fc:5c:76:00:2b:00:02:03:04:14:03:03:00:01:01" value="160303007b0200007703030a2eab35081d90bafb8a42220c5d3999fc79faceaabc83a5444f574e4752440100130200004f0033004500170041049f1fcdc43874fb32667efffd1e6221bffbf7ff080f2b1b53a740147730e3d26ba2e18de41c8c67290ca696561f4c4cdcef03800bd166416aa73f1061c7fc5c76002b00020304140303000101"/>
      <field name="data.len" showname="Length: 134" size="0" pos="54" show="134"/>
  </field>
</proto>
</packet>


<packet>
  <proto name="geninfo" pos="0" showname="General information" size="54">
    <field name="num" pos="0" show="7" showname="Number" value="7" size="54"/>
    <field name="len" pos="0" show="54" showname="Frame Length" value="36" size="54"/>
    <field name="caplen" pos="0" show="54" showname="Captured Length" value="36" size="54"/>
    <field name="timestamp" pos="0" show="Jun 27, 2019 12:20:56.995944000 CEST" showname="Captured Time" value="1561630856.995944000" size="54"/>
  </proto>
  <proto name="frame" showname="Frame 7: 54 bytes on wire (432 bits), 54 bytes captured (432 bits) on interface 0" size="54" pos="0">
    <field name="frame.interface_id" showname="Interface id: 0" size="0" pos="0" show="0"/>
    <field name="frame.encap_type" showname="Encapsulation type: Ethernet (1)" size="0" pos="0" show="1"/>
    <field name="frame.time" showname="Arrival Time: Jun 27, 2019 12:20:56.995944000 CEST" size="0" pos="0" show="&quot;Jun 27, 2019 12:20:56.995944000 CEST&quot;"/>
    <field name="frame.offset_shift" showname="Time shift for this packet: 0.000000000 seconds" size="0" pos="0" show="0.000000000"/>
    <field name="frame.time_epoch" showname="Epoch Time: 1561630856.995944000 seconds" size="0" pos="0" show="1561630856.995944000"/>
    <field name="frame.time_delta" showname="Time delta from previous captured frame: 0.000024000 seconds" size="0" pos="0" show="0.000024000"/>
    <field name="frame.time_delta_displayed" showname="Time delta from previous displayed frame: 0.000024000 seconds" size="0" pos="0" show="0.000024000"/>
    <field name="frame.time_relative" showname="Time since reference or first frame: 0.008882000 seconds" size="0" pos="0" show="0.008882000"/>
    <field name="frame.number" showname="Frame Number: 7" size="0" pos="0" show="7"/>
    <field name="frame.len" showname="Frame Length: 54 bytes (432 bits)" size="0" pos="0" show="54"/>
    <field name="frame.cap_len" showname="Capture Length: 54 bytes (432 bits)" size="0" pos="0" show="54"/>
    <field name="frame.marked" showname="Frame is marked: False" size="0" pos="0" show="0"/>
    <field name="frame.ignored" showname="Frame is ignored: False" size="0" pos="0" show="0"/>
    <field name="frame.protocols" showname="Protocols in frame: eth:ip:tcp" size="0" pos="0" show="eth:ip:tcp"/>
  </proto>
  <proto name="eth" showname="Ethernet II, Src: 02:42:ac:11:00:02 (02:42:ac:11:00:02), Dst: 02:42:71:12:56:af (02:42:71:12:56:af)" size="14" pos="0">
    <field name="eth.dst" showname="Destination: 02:42:71:12:56:af (02:42:71:12:56:af)" size="6" pos="0" show="02:42:71:12:56:af" value="0242711256af">
      <field name="eth.addr" showname="Address: 02:42:71:12:56:af (02:42:71:12:56:af)" size="6" pos="0" show="02:42:71:12:56:af" value="0242711256af"/>
      <field name="eth.lg" showname=".... ..1. .... .... .... .... = LG bit: Locally administered address (this is NOT the factory default)" size="3" pos="0" show="1" value="1" unmaskedvalue="024271"/>
      <field name="eth.ig" showname=".... ...0 .... .... .... .... = IG bit: Individual address (unicast)" size="3" pos="0" show="0" value="0" unmaskedvalue="024271"/>
    </field>
    <field name="eth.src" showname="Source: 02:42:ac:11:00:02 (02:42:ac:11:00:02)" size="6" pos="6" show="02:42:ac:11:00:02" value="0242ac110002">
      <field name="eth.addr" showname="Address: 02:42:ac:11:00:02 (02:42:ac:11:00:02)" size="6" pos="6" show="02:42:ac:11:00:02" value="0242ac110002"/>
      <field name="eth.lg" showname=".... ..1. .... .... .... .... = LG bit: Locally administered address (this is NOT the factory default)" size="3" pos="6" show="1" value="1" unmaskedvalue="0242ac"/>
      <field name="eth.ig" showname=".... ...0 .... .... .... .... = IG bit: Individual address (unicast)" size="3" pos="6" show="0" value="0" unmaskedvalue="0242ac"/>
    </field>
    <field name="eth.type" showname="Type: IP (0x0800)" size="2" pos="12" show="2048" value="0800"/>
  </proto>
  <proto name="ip" showname="Internet Protocol Version 4, Src: 172.17.0.2 (172.17.0.2), Dst: 1.1.1.1 (1.1.1.1)" size="20" pos="14">
    <field name="ip.version" showname="Version: 4" size="1" pos="14" show="4" value="45"/>
    <field name="ip.hdr_len" showname="Header length: 20 bytes" size="1" pos="14" show="20" value="45"/>
    <field name="ip.dsfield" showname="Differentiated Services Field: 0x00 (DSCP 0x00: Default; ECN: 0x00: Not-ECT (Not ECN-Capable Transport))" size="1" pos="15" show="0" value="00">
      <field name="ip.dsfield.dscp" showname="0000 00.. = Differentiated Services Codepoint: Default (0x00)" size="1" pos="15" show="0" value="0" unmaskedvalue="00"/>
      <field name="ip.dsfield.ecn" showname=".... ..00 = Explicit Congestion Notification: Not-ECT (Not ECN-Capable Transport) (0x00)" size="1" pos="15" show="0" value="0" unmaskedvalue="00"/>
    </field>
    <field name="ip.len" showname="Total Length: 40" size="2" pos="16" show="40" value="0028"/>
    <field name="ip.id" showname="Identification: 0x389f (14495)" size="2" pos="18" show="14495" value="389f"/>
    <field name="ip.flags" showname="Flags: 0x02 (Don&apos;t Fragment)" size="1" pos="20" show="2" value="40">
      <field name="ip.flags.rb" showname="0... .... = Reserved bit: Not set" size="1" pos="20" show="0" value="40"/>
      <field name="ip.flags.df" showname=".1.. .... = Don&apos;t fragment: Set" size="1" pos="20" show="1" value="40"/>
      <field name="ip.flags.mf" showname="..0. .... = More fragments: Not set" size="1" pos="20" show="0" value="40"/>
    </field>
    <field name="ip.frag_offset" showname="Fragment offset: 0" size="2" pos="20" show="0" value="4000"/>
    <field name="ip.ttl" showname="Time to live: 64" size="1" pos="22" show="64" value="40"/>
    <field name="ip.proto" showname="Protocol: TCP (6)" size="1" pos="23" show="6" value="06"/>
    <field name="ip.checksum" showname="Header checksum: 0x541c [validation disabled]" size="2" pos="24" show="21532" value="541c">
      <field name="ip.checksum_good" showname="Good: False" size="2" pos="24" show="0" value="541c"/>
      <field name="ip.checksum_bad" showname="Bad: False" size="2" pos="24" show="0" value="541c"/>
    </field>
    <field name="ip.src" showname="Source: 172.17.0.2 (172.17.0.2)" size="4" pos="26" show="172.17.0.2" value="ac110002"/>
    <field name="ip.addr" showname="Source or Destination Address: 172.17.0.2 (172.17.0.2)" hide="yes" size="4" pos="26" show="172.17.0.2" value="ac110002"/>
    <field name="ip.src_host" showname="Source Host: 172.17.0.2" hide="yes" size="4" pos="26" show="172.17.0.2" value="ac110002"/>
    <field name="ip.host" showname="Source or Destination Host: 172.17.0.2" hide="yes" size="4" pos="26" show="172.17.0.2" value="ac110002"/>
    <field name="ip.dst" showname="Destination: 1.1.1.1 (1.1.1.1)" size="4" pos="30" show="1.1.1.1" value="01010101"/>
    <field name="ip.addr" showname="Source or Destination Address: 1.1.1.1 (1.1.1.1)" hide="yes" size="4" pos="30" show="1.1.1.1" value="01010101"/>
    <field name="ip.dst_host" showname="Destination Host: 1.1.1.1" hide="yes" size="4" pos="30" show="1.1.1.1" value="01010101"/>
    <field name="ip.host" showname="Source or Destination Host: 1.1.1.1" hide="yes" size="4" pos="30" show="1.1.1.1" value="01010101"/>
  </proto>
  <proto name="tcp" showname="Transmission Control Protocol, Src Port: 59654 (59654), Dst Port: 853 (853), Seq: 338, Ack: 135, Len: 0" size="20" pos="34">
    <field name="tcp.srcport" showname="Source port: 59654 (59654)" size="2" pos="34" show="59654" value="e906"/>
    <field name="tcp.dstport" showname="Destination port: 853 (853)" size="2" pos="36" show="853" value="0355"/>
    <field name="tcp.port" showname="Source or Destination Port: 59654" hide="yes" size="2" pos="34" show="59654" value="e906"/>
    <field name="tcp.port" showname="Source or Destination Port: 853" hide="yes" size="2" pos="36" show="853" value="0355"/>
    <field name="tcp.stream" showname="Stream index: 0" size="0" pos="34" show="0"/>
    <field name="tcp.len" showname="TCP Segment Len: 0" hide="yes" size="1" pos="46" show="0" value="50"/>
    <field name="tcp.seq" showname="Sequence number: 338    (relative sequence number)" size="4" pos="38" show="338" value="f2f15200"/>
    <field name="tcp.ack" showname="Acknowledgment number: 135    (relative ack number)" size="4" pos="42" show="135" value="582614a4"/>
    <field name="tcp.hdr_len" showname="Header length: 20 bytes" size="1" pos="46" show="20" value="50"/>
    <field name="tcp.flags" showname="Flags: 0x010 (ACK)" size="2" pos="46" show="16" value="10" unmaskedvalue="5010">
      <field name="tcp.flags.res" showname="000. .... .... = Reserved: Not set" size="1" pos="46" show="0" value="0" unmaskedvalue="50"/>
      <field name="tcp.flags.ns" showname="...0 .... .... = Nonce: Not set" size="1" pos="46" show="0" value="0" unmaskedvalue="50"/>
      <field name="tcp.flags.cwr" showname=".... 0... .... = Congestion Window Reduced (CWR): Not set" size="1" pos="47" show="0" value="0" unmaskedvalue="10"/>
      <field name="tcp.flags.ecn" showname=".... .0.. .... = ECN-Echo: Not set" size="1" pos="47" show="0" value="0" unmaskedvalue="10"/>
      <field name="tcp.flags.urg" showname=".... ..0. .... = Urgent: Not set" size="1" pos="47" show="0" value="0" unmaskedvalue="10"/>
      <field name="tcp.flags.ack" showname=".... ...1 .... = Acknowledgment: Set" size="1" pos="47" show="1" value="1" unmaskedvalue="10"/>
      <field name="tcp.flags.push" showname=".... .... 0... = Push: Not set" size="1" pos="47" show="0" value="0" unmaskedvalue="10"/>
      <field name="tcp.flags.reset" showname=".... .... .0.. = Reset: Not set" size="1" pos="47" show="0" value="0" unmaskedvalue="10"/>
      <field name="tcp.flags.syn" showname=".... .... ..0. = Syn: Not set" size="1" pos="47" show="0" value="0" unmaskedvalue="10"/>
      <field name="tcp.flags.fin" showname=".... .... ...0 = Fin: Not set" size="1" pos="47" show="0" value="0" unmaskedvalue="10"/>
    </field>
    <field name="tcp.window_size_value" showname="Window size value: 237" size="2" pos="48" show="237" value="00ed"/>
    <field name="tcp.window_size" showname="Calculated window size: 30336" size="2" pos="48" show="30336" value="00ed"/>
    <field name="tcp.window_size_scalefactor" showname="Window size scaling factor: 128" size="2" pos="48" show="128" value="00ed"/>
    <field name="tcp.checksum" showname="Checksum: 0xae2f [validation disabled]" size="2" pos="50" show="44591" value="ae2f">
      <field name="tcp.checksum_good" showname="Good Checksum: False" size="2" pos="50" show="0" value="ae2f"/>
      <field name="tcp.checksum_bad" showname="Bad Checksum: False" size="2" pos="50" show="0" value="ae2f"/>
    </field>
    <field name="tcp.analysis" showname="SEQ/ACK analysis" size="0" pos="34" show="" value="">
      <field name="tcp.analysis.acks_frame" showname="This is an ACK to the segment in frame: 6" size="0" pos="34" show="6"/>
      <field name="tcp.analysis.ack_rtt" showname="The RTT to ACK the segment was: 0.000024000 seconds" size="0" pos="34" show="0.000024000"/>
    </field>
  </proto>
</packet>


<packet>
  <proto name="geninfo" pos="0" showname="General information" size="1514">
    <field name="num" pos="0" show="8" showname="Number" value="8" size="1514"/>
    <field name="len" pos="0" show="1514" showname="Frame Length" value="5ea" size="1514"/>
    <field name="caplen" pos="0" show="1514" showname="Captured Length" value="5ea" size="1514"/>
    <field name="timestamp" pos="0" show="Jun 27, 2019 12:20:56.996437000 CEST" showname="Captured Time" value="1561630856.996437000" size="1514"/>
  </proto>
  <proto name="frame" showname="Frame 8: 1514 bytes on wire (12112 bits), 1514 bytes captured (12112 bits) on interface 0" size="1514" pos="0">
    <field name="frame.interface_id" showname="Interface id: 0" size="0" pos="0" show="0"/>
    <field name="frame.encap_type" showname="Encapsulation type: Ethernet (1)" size="0" pos="0" show="1"/>
    <field name="frame.time" showname="Arrival Time: Jun 27, 2019 12:20:56.996437000 CEST" size="0" pos="0" show="&quot;Jun 27, 2019 12:20:56.996437000 CEST&quot;"/>
    <field name="frame.offset_shift" showname="Time shift for this packet: 0.000000000 seconds" size="0" pos="0" show="0.000000000"/>
    <field name="frame.time_epoch" showname="Epoch Time: 1561630856.996437000 seconds" size="0" pos="0" show="1561630856.996437000"/>
    <field name="frame.time_delta" showname="Time delta from previous captured frame: 0.000493000 seconds" size="0" pos="0" show="0.000493000"/>
    <field name="frame.time_delta_displayed" showname="Time delta from previous displayed frame: 0.000493000 seconds" size="0" pos="0" show="0.000493000"/>
    <field name="frame.time_relative" showname="Time since reference or first frame: 0.009375000 seconds" size="0" pos="0" show="0.009375000"/>
    <field name="frame.number" showname="Frame Number: 8" size="0" pos="0" show="8"/>
    <field name="frame.len" showname="Frame Length: 1514 bytes (12112 bits)" size="0" pos="0" show="1514"/>
    <field name="frame.cap_len" showname="Capture Length: 1514 bytes (12112 bits)" size="0" pos="0" show="1514"/>
    <field name="frame.marked" showname="Frame is marked: False" size="0" pos="0" show="0"/>
    <field name="frame.ignored" showname="Frame is ignored: False" size="0" pos="0" show="0"/>
    <field name="frame.protocols" showname="Protocols in frame: eth:ip:tcp:data" size="0" pos="0" show="eth:ip:tcp:data"/>
  </proto>
  <proto name="eth" showname="Ethernet II, Src: 02:42:71:12:56:af (02:42:71:12:56:af), Dst: 02:42:ac:11:00:02 (02:42:ac:11:00:02)" size="14" pos="0">
    <field name="eth.dst" showname="Destination: 02:42:ac:11:00:02 (02:42:ac:11:00:02)" size="6" pos="0" show="02:42:ac:11:00:02" value="0242ac110002">
      <field name="eth.addr" showname="Address: 02:42:ac:11:00:02 (02:42:ac:11:00:02)" size="6" pos="0" show="02:42:ac:11:00:02" value="0242ac110002"/>
      <field name="eth.lg" showname=".... ..1. .... .... .... .... = LG bit: Locally administered address (this is NOT the factory default)" size="3" pos="0" show="1" value="1" unmaskedvalue="0242ac"/>
      <field name="eth.ig" showname=".... ...0 .... .... .... .... = IG bit: Individual address (unicast)" size="3" pos="0" show="0" value="0" unmaskedvalue="0242ac"/>
    </field>
    <field name="eth.src" showname="Source: 02:42:71:12:56:af (02:42:71:12:56:af)" size="6" pos="6" show="02:42:71:12:56:af" value="0242711256af">
      <field name="eth.addr" showname="Address: 02:42:71:12:56:af (02:42:71:12:56:af)" size="6" pos="6" show="02:42:71:12:56:af" value="0242711256af"/>
      <field name="eth.lg" showname=".... ..1. .... .... .... .... = LG bit: Locally administered address (this is NOT the factory default)" size="3" pos="6" show="1" value="1" unmaskedvalue="024271"/>
      <field name="eth.ig" showname=".... ...0 .... .... .... .... = IG bit: Individual address (unicast)" size="3" pos="6" show="0" value="0" unmaskedvalue="024271"/>
    </field>
    <field name="eth.type" showname="Type: IP (0x0800)" size="2" pos="12" show="2048" value="0800"/>
  </proto>
  <proto name="ip" showname="Internet Protocol Version 4, Src: 1.1.1.1 (1.1.1.1), Dst: 172.17.0.2 (172.17.0.2)" size="20" pos="14">
    <field name="ip.version" showname="Version: 4" size="1" pos="14" show="4" value="45"/>
    <field name="ip.hdr_len" showname="Header length: 20 bytes" size="1" pos="14" show="20" value="45"/>
    <field name="ip.dsfield" showname="Differentiated Services Field: 0x00 (DSCP 0x00: Default; ECN: 0x00: Not-ECT (Not ECN-Capable Transport))" size="1" pos="15" show="0" value="00">
      <field name="ip.dsfield.dscp" showname="0000 00.. = Differentiated Services Codepoint: Default (0x00)" size="1" pos="15" show="0" value="0" unmaskedvalue="00"/>
      <field name="ip.dsfield.ecn" showname=".... ..00 = Explicit Congestion Notification: Not-ECT (Not ECN-Capable Transport) (0x00)" size="1" pos="15" show="0" value="0" unmaskedvalue="00"/>
    </field>
    <field name="ip.len" showname="Total Length: 1500" size="2" pos="16" show="1500" value="05dc"/>
    <field name="ip.id" showname="Identification: 0xf82d (63533)" size="2" pos="18" show="63533" value="f82d"/>
    <field name="ip.flags" showname="Flags: 0x02 (Don&apos;t Fragment)" size="1" pos="20" show="2" value="40">
      <field name="ip.flags.rb" showname="0... .... = Reserved bit: Not set" size="1" pos="20" show="0" value="40"/>
      <field name="ip.flags.df" showname=".1.. .... = Don&apos;t fragment: Set" size="1" pos="20" show="1" value="40"/>
      <field name="ip.flags.mf" showname="..0. .... = More fragments: Not set" size="1" pos="20" show="0" value="40"/>
    </field>
    <field name="ip.frag_offset" showname="Fragment offset: 0" size="2" pos="20" show="0" value="4000"/>
    <field name="ip.ttl" showname="Time to live: 57" size="1" pos="22" show="57" value="39"/>
    <field name="ip.proto" showname="Protocol: TCP (6)" size="1" pos="23" show="6" value="06"/>
    <field name="ip.checksum" showname="Header checksum: 0x95d9 [validation disabled]" size="2" pos="24" show="38361" value="95d9">
      <field name="ip.checksum_good" showname="Good: False" size="2" pos="24" show="0" value="95d9"/>
      <field name="ip.checksum_bad" showname="Bad: False" size="2" pos="24" show="0" value="95d9"/>
    </field>
    <field name="ip.src" showname="Source: 1.1.1.1 (1.1.1.1)" size="4" pos="26" show="1.1.1.1" value="01010101"/>
    <field name="ip.addr" showname="Source or Destination Address: 1.1.1.1 (1.1.1.1)" hide="yes" size="4" pos="26" show="1.1.1.1" value="01010101"/>
    <field name="ip.src_host" showname="Source Host: 1.1.1.1" hide="yes" size="4" pos="26" show="1.1.1.1" value="01010101"/>
    <field name="ip.host" showname="Source or Destination Host: 1.1.1.1" hide="yes" size="4" pos="26" show="1.1.1.1" value="01010101"/>
    <field name="ip.dst" showname="Destination: 172.17.0.2 (172.17.0.2)" size="4" pos="30" show="172.17.0.2" value="ac110002"/>
    <field name="ip.addr" showname="Source or Destination Address: 172.17.0.2 (172.17.0.2)" hide="yes" size="4" pos="30" show="172.17.0.2" value="ac110002"/>
    <field name="ip.dst_host" showname="Destination Host: 172.17.0.2" hide="yes" size="4" pos="30" show="172.17.0.2" value="ac110002"/>
    <field name="ip.host" showname="Source or Destination Host: 172.17.0.2" hide="yes" size="4" pos="30" show="172.17.0.2" value="ac110002"/>
  </proto>
  <proto name="tcp" showname="Transmission Control Protocol, Src Port: 853 (853), Dst Port: 59654 (59654), Seq: 135, Ack: 338, Len: 1460" size="20" pos="34">
    <field name="tcp.srcport" showname="Source port: 853 (853)" size="2" pos="34" show="853" value="0355"/>
    <field name="tcp.dstport" showname="Destination port: 59654 (59654)" size="2" pos="36" show="59654" value="e906"/>
    <field name="tcp.port" showname="Source or Destination Port: 853" hide="yes" size="2" pos="34" show="853" value="0355"/>
    <field name="tcp.port" showname="Source or Destination Port: 59654" hide="yes" size="2" pos="36" show="59654" value="e906"/>
    <field name="tcp.stream" showname="Stream index: 0" size="0" pos="34" show="0"/>
    <field name="tcp.len" showname="TCP Segment Len: 1460" hide="yes" size="1" pos="46" show="1460" value="50"/>
    <field name="tcp.seq" showname="Sequence number: 135    (relative sequence number)" size="4" pos="38" show="135" value="582614a4"/>
    <field name="tcp.nxtseq" showname="Next sequence number: 1595    (relative sequence number)" size="0" pos="34" show="1595"/>
    <field name="tcp.ack" showname="Acknowledgment number: 338    (relative ack number)" size="4" pos="42" show="338" value="f2f15200"/>
    <field name="tcp.hdr_len" showname="Header length: 20 bytes" size="1" pos="46" show="20" value="50"/>
    <field name="tcp.flags" showname="Flags: 0x010 (ACK)" size="2" pos="46" show="16" value="10" unmaskedvalue="5010">
      <field name="tcp.flags.res" showname="000. .... .... = Reserved: Not set" size="1" pos="46" show="0" value="0" unmaskedvalue="50"/>
      <field name="tcp.flags.ns" showname="...0 .... .... = Nonce: Not set" size="1" pos="46" show="0" value="0" unmaskedvalue="50"/>
      <field name="tcp.flags.cwr" showname=".... 0... .... = Congestion Window Reduced (CWR): Not set" size="1" pos="47" show="0" value="0" unmaskedvalue="10"/>
      <field name="tcp.flags.ecn" showname=".... .0.. .... = ECN-Echo: Not set" size="1" pos="47" show="0" value="0" unmaskedvalue="10"/>
      <field name="tcp.flags.urg" showname=".... ..0. .... = Urgent: Not set" size="1" pos="47" show="0" value="0" unmaskedvalue="10"/>
      <field name="tcp.flags.ack" showname=".... ...1 .... = Acknowledgment: Set" size="1" pos="47" show="1" value="1" unmaskedvalue="10"/>
      <field name="tcp.flags.push" showname=".... .... 0... = Push: Not set" size="1" pos="47" show="0" value="0" unmaskedvalue="10"/>
      <field name="tcp.flags.reset" showname=".... .... .0.. = Reset: Not set" size="1" pos="47" show="0" value="0" unmaskedvalue="10"/>
      <field name="tcp.flags.syn" showname=".... .... ..0. = Syn: Not set" size="1" pos="47" show="0" value="0" unmaskedvalue="10"/>
      <field name="tcp.flags.fin" showname=".... .... ...0 = Fin: Not set" size="1" pos="47" show="0" value="0" unmaskedvalue="10"/>
    </field>
    <field name="tcp.window_size_value" showname="Window size value: 30" size="2" pos="48" show="30" value="001e"/>
    <field name="tcp.window_size" showname="Calculated window size: 30720" size="2" pos="48" show="30720" value="001e"/>
    <field name="tcp.window_size_scalefactor" showname="Window size scaling factor: 1024" size="2" pos="48" show="1024" value="001e"/>
    <field name="tcp.checksum" showname="Checksum: 0x8a4f [validation disabled]" size="2" pos="50" show="35407" value="8a4f">
      <field name="tcp.checksum_good" showname="Good Checksum: False" size="2" pos="50" show="0" value="8a4f"/>
      <field name="tcp.checksum_bad" showname="Bad Checksum: False" size="2" pos="50" show="0" value="8a4f"/>
    </field>
    <field name="tcp.analysis" showname="SEQ/ACK analysis" size="0" pos="34" show="" value="">
      <field name="tcp.analysis.bytes_in_flight" showname="Bytes in flight: 1460" size="0" pos="34" show="1460"/>
    </field>
  </proto>
  <proto name="fake-field-wrapper">
    <field name="data" value="170303001d6dd06a997eefc2105ede224baae3c87164571303facf021fe57539ab4a170303099d30edf909bbec1e9051cb3551a65708e962eb03e330e2c4a2b3872559940e80305ac1a4fab236bd83c1ef0054471f695da2093d025177a59902c5331653785b6d63216db821f9965979b5c7df367c20a57e81401028ef88435ec99bad9b49cf53b7a48c8cc4f12fa4f5a30241928f23007acf918235f076d02ed8ac5ac1654fb02b6327b98171bf2d7d852b0675ca49b25d7b62588e9d00cb3dea4b4641bde050a7ac37c721fa9ca7d634f3f868aee41fa69400b01f3fa2d2cea2eda384fd682c2d14e25b491857164176f45dab7ae1a6ce31bdb208f08d5ab047a5a3d511f986b3110d22a457701d1e8321f6c5b59dac0443a21757b471ed354ba9f7419e7437f448e39636ccf4e5a2b1104748ba080f53ec330aeb56c513ed71cc15ce121ce0c7c0c1d7d89e3e8fa923cd37f782944b5c73149b586076369596eabaf97e32c8c7d79024080f38d833d46ada42fe4d9909abf38ae88f6f0172b68ad9d4c10db7537294930bc251f93c8e7e213d0f2760c623ed54f0c3beee95f28ab7d2f9ca7e6555153b6f4e72b7e2d86cefed4bad3b9cd2c2b53c7f5375555683a14b9c7b8d0a883fa16a568a0d7a2db38fa9d702585fce8ece334574fe5b2d1c90fa99cfe2cfc61f56a40649d75618f67412be355ed2a7b15ce0c76d296e472b8f77ea03eb807dd8e9c018add1406f16809cc05d301fa0c4c75e50d1f1179d6d83f473b2a1edde38836a07a2c9d6d2b420e49a828056a62332a4e5d61b86190875b3e71747105325c8487cc4d53ee8d32ad48c3202f2a58dbfae5de31262aa074c12d7daa6ddf5295f9b81bafd71d9f22ebab5b5274b66a73b6814fcd8fb0ddbf0c19c725e99ae93e89b565e67573046ef2695731e0838c8ef1f2c7502696777718926300cc6198194911ff716cbbcfdf78f69de8fd072b83dd6f383429c9152a5d36a2f403083a2123666d54cb7f661565591e4c3f1df75f4a7b8fba004debb293442269955dcb8163215fd4c4959b32ee592f25138a1a9b8ba0576605c624a246d58d1b4adb3b37e2563b34b39d49243c42717089c01521c9db6564ccafa8bed4d5ef5448d054f9cdf8512bbe76146cdb832e1d3a2c26c941ca5a5d29b81ea59d93447eb662e35cca9abe9a01380198691a5de97c19edc4a7655ed3fbd3d684eaa65675870a00474fb7d2ee4301a23553a298ae9418adb910aa78f69d1e40879f8e989f3c5b7ca4452b2124bdbf93cdef95f5685a0cfab796ed387bcb4dcd25984fc6b24eb9ec9a8fb1d33f86e4a255eb6cf01dc32cc1f043d61f5d8248ada118a0ca64ea87397cf69132f4ef25a7385ce785a50676bf8d776e5463f7e94edc3465606d47a78eed612bd985213ef3ecdb84178e01ef780f3c3b9205db7cd2439eff511b6921c9fd1cab008069f0f4630e44d63825a70c58986a806b5b7996cf6c71a0a741ea279cbe8d29ad8f9d8849cd8a3541a7c9cc65da0477adb2eaf689de8f069686af4bc2ba429d42ae22f9b9c55b4301218eb69ad9b083e78638ddc8fe3807b3555e18f9109852a948e153426ed6e71c9ec4f02f1354e8b7590ab3d2cd1bd3eaa60e458d7be13938159790e5715a0580ccb50f6a53c2c82ddae0ccb5293db765173b618e1e2d191c9294b726dd1a33bdd57384f89ac4cb65c6df4c6ae7a191ce3fe517af3161b4a05396d2fab89bcd8820c39170c2b5c50781bfbb303c620f812fa02de87aaa9215cf265f95a61a2f59281aa0074ce7714095896397228fd831149f28503273c02d2bee21a29779262fcef7c769837ae91af44eccbb87ae552222154f4353c424bf502d6f1b340038a8daf2735091abc303ee58bbc2eb2799adc8ef176d3cabf4c26ae33ea06fa926c3974298edee04bdca3d1eb378902dcdebdb766da48affc41b50f2b97696e3f5a2493a419cbe29a0f58255179243f846a97fb1a887de31ced10f149703534f149a368161e0911cda8bdbc93944e0c8728b3d283f84036512916486a52aa03">
      <field name="data.data" showname="Data: 170303001d6dd06a997eefc2105ede224baae3c871645713..." size="1460" pos="54" show="17:03:03:00:1d:6d:d0:6a:99:7e:ef:c2:10:5e:de:22:4b:aa:e3:c8:71:64:57:13:03:fa:cf:02:1f:e5:75:39:ab:4a:17:03:03:09:9d:30:ed:f9:09:bb:ec:1e:90:51:cb:35:51:a6:57:08:e9:62:eb:03:e3:30:e2:c4:a2:b3:87:25:59:94:0e:80:30:5a:c1:a4:fa:b2:36:bd:83:c1:ef:00:54:47:1f:69:5d:a2:09:3d:02:51:77:a5:99:02:c5:33:16:53:78:5b:6d:63:21:6d:b8:21:f9:96:59:79:b5:c7:df:36:7c:20:a5:7e:81:40:10:28:ef:88:43:5e:c9:9b:ad:9b:49:cf:53:b7:a4:8c:8c:c4:f1:2f:a4:f5:a3:02:41:92:8f:23:00:7a:cf:91:82:35:f0:76:d0:2e:d8:ac:5a:c1:65:4f:b0:2b:63:27:b9:81:71:bf:2d:7d:85:2b:06:75:ca:49:b2:5d:7b:62:58:8e:9d:00:cb:3d:ea:4b:46:41:bd:e0:50:a7:ac:37:c7:21:fa:9c:a7:d6:34:f3:f8:68:ae:e4:1f:a6:94:00:b0:1f:3f:a2:d2:ce:a2:ed:a3:84:fd:68:2c:2d:14:e2:5b:49:18:57:16:41:76:f4:5d:ab:7a:e1:a6:ce:31:bd:b2:08:f0:8d:5a:b0:47:a5:a3:d5:11:f9:86:b3:11:0d:22:a4:57:70:1d:1e:83:21:f6:c5:b5:9d:ac:04:43:a2:17:57:b4:71:ed:35:4b:a9:f7:41:9e:74:37:f4:48:e3:96:36:cc:f4:e5:a2:b1:10:47:48:ba:08:0f:53:ec:33:0a:eb:56:c5:13:ed:71:cc:15:ce:12:1c:e0:c7:c0:c1:d7:d8:9e:3e:8f:a9:23:cd:37:f7:82:94:4b:5c:73:14:9b:58:60:76:36:95:96:ea:ba:f9:7e:32:c8:c7:d7:90:24:08:0f:38:d8:33:d4:6a:da:42:fe:4d:99:09:ab:f3:8a:e8:8f:6f:01:72:b6:8a:d9:d4:c1:0d:b7:53:72:94:93:0b:c2:51:f9:3c:8e:7e:21:3d:0f:27:60:c6:23:ed:54:f0:c3:be:ee:95:f2:8a:b7:d2:f9:ca:7e:65:55:15:3b:6f:4e:72:b7:e2:d8:6c:ef:ed:4b:ad:3b:9c:d2:c2:b5:3c:7f:53:75:55:56:83:a1:4b:9c:7b:8d:0a:88:3f:a1:6a:56:8a:0d:7a:2d:b3:8f:a9:d7:02:58:5f:ce:8e:ce:33:45:74:fe:5b:2d:1c:90:fa:99:cf:e2:cf:c6:1f:56:a4:06:49:d7:56:18:f6:74:12:be:35:5e:d2:a7:b1:5c:e0:c7:6d:29:6e:47:2b:8f:77:ea:03:eb:80:7d:d8:e9:c0:18:ad:d1:40:6f:16:80:9c:c0:5d:30:1f:a0:c4:c7:5e:50:d1:f1:17:9d:6d:83:f4:73:b2:a1:ed:de:38:83:6a:07:a2:c9:d6:d2:b4:20:e4:9a:82:80:56:a6:23:32:a4:e5:d6:1b:86:19:08:75:b3:e7:17:47:10:53:25:c8:48:7c:c4:d5:3e:e8:d3:2a:d4:8c:32:02:f2:a5:8d:bf:ae:5d:e3:12:62:aa:07:4c:12:d7:da:a6:dd:f5:29:5f:9b:81:ba:fd:71:d9:f2:2e:ba:b5:b5:27:4b:66:a7:3b:68:14:fc:d8:fb:0d:db:f0:c1:9c:72:5e:99:ae:93:e8:9b:56:5e:67:57:30:46:ef:26:95:73:1e:08:38:c8:ef:1f:2c:75:02:69:67:77:71:89:26:30:0c:c6:19:81:94:91:1f:f7:16:cb:bc:fd:f7:8f:69:de:8f:d0:72:b8:3d:d6:f3:83:42:9c:91:52:a5:d3:6a:2f:40:30:83:a2:12:36:66:d5:4c:b7:f6:61:56:55:91:e4:c3:f1:df:75:f4:a7:b8:fb:a0:04:de:bb:29:34:42:26:99:55:dc:b8:16:32:15:fd:4c:49:59:b3:2e:e5:92:f2:51:38:a1:a9:b8:ba:05:76:60:5c:62:4a:24:6d:58:d1:b4:ad:b3:b3:7e:25:63:b3:4b:39:d4:92:43:c4:27:17:08:9c:01:52:1c:9d:b6:56:4c:ca:fa:8b:ed:4d:5e:f5:44:8d:05:4f:9c:df:85:12:bb:e7:61:46:cd:b8:32:e1:d3:a2:c2:6c:94:1c:a5:a5:d2:9b:81:ea:59:d9:34:47:eb:66:2e:35:cc:a9:ab:e9:a0:13:80:19:86:91:a5:de:97:c1:9e:dc:4a:76:55:ed:3f:bd:3d:68:4e:aa:65:67:58:70:a0:04:74:fb:7d:2e:e4:30:1a:23:55:3a:29:8a:e9:41:8a:db:91:0a:a7:8f:69:d1:e4:08:79:f8:e9:89:f3:c5:b7:ca:44:52:b2:12:4b:db:f9:3c:de:f9:5f:56:85:a0:cf:ab:79:6e:d3:87:bc:b4:dc:d2:59:84:fc:6b:24:eb:9e:c9:a8:fb:1d:33:f8:6e:4a:25:5e:b6:cf:01:dc:32:cc:1f:04:3d:61:f5:d8:24:8a:da:11:8a:0c:a6:4e:a8:73:97:cf:69:13:2f:4e:f2:5a:73:85:ce:78:5a:50:67:6b:f8:d7:76:e5:46:3f:7e:94:ed:c3:46:56:06:d4:7a:78:ee:d6:12:bd:98:52:13:ef:3e:cd:b8:41:78:e0:1e:f7:80:f3:c3:b9:20:5d:b7:cd:24:39:ef:f5:11:b6:92:1c:9f:d1:ca:b0:08:06:9f:0f:46:30:e4:4d:63:82:5a:70:c5:89:86:a8:06:b5:b7:99:6c:f6:c7:1a:0a:74:1e:a2:79:cb:e8:d2:9a:d8:f9:d8:84:9c:d8:a3:54:1a:7c:9c:c6:5d:a0:47:7a:db:2e:af:68:9d:e8:f0:69:68:6a:f4:bc:2b:a4:29:d4:2a:e2:2f:9b:9c:55:b4:30:12:18:eb:69:ad:9b:08:3e:78:63:8d:dc:8f:e3:80:7b:35:55:e1:8f:91:09:85:2a:94:8e:15:34:26:ed:6e:71:c9:ec:4f:02:f1:35:4e:8b:75:90:ab:3d:2c:d1:bd:3e:aa:60:e4:58:d7:be:13:93:81:59:79:0e:57:15:a0:58:0c:cb:50:f6:a5:3c:2c:82:dd:ae:0c:cb:52:93:db:76:51:73:b6:18:e1:e2:d1:91:c9:29:4b:72:6d:d1:a3:3b:dd:57:38:4f:89:ac:4c:b6:5c:6d:f4:c6:ae:7a:19:1c:e3:fe:51:7a:f3:16:1b:4a:05:39:6d:2f:ab:89:bc:d8:82:0c:39:17:0c:2b:5c:50:78:1b:fb:b3:03:c6:20:f8:12:fa:02:de:87:aa:a9:21:5c:f2:65:f9:5a:61:a2:f5:92:81:aa:00:74:ce:77:14:09:58:96:39:72:28:fd:83:11:49:f2:85:03:27:3c:02:d2:be:e2:1a:29:77:92:62:fc:ef:7c:76:98:37:ae:91:af:44:ec:cb:b8:7a:e5:52:22:21:54:f4:35:3c:42:4b:f5:02:d6:f1:b3:40:03:8a:8d:af:27:35:09:1a:bc:30:3e:e5:8b:bc:2e:b2:79:9a:dc:8e:f1:76:d3:ca:bf:4c:26:ae:33:ea:06:fa:92:6c:39:74:29:8e:de:e0:4b:dc:a3:d1:eb:37:89:02:dc:de:bd:b7:66:da:48:af:fc:41:b5:0f:2b:97:69:6e:3f:5a:24:93:a4:19:cb:e2:9a:0f:58:25:51:79:24:3f:84:6a:97:fb:1a:88:7d:e3:1c:ed:10:f1:49:70:35:34:f1:49:a3:68:16:1e:09:11:cd:a8:bd:bc:93:94:4e:0c:87:28:b3:d2:83:f8:40:36:51:29:16:48:6a:52:aa:03" value="170303001d6dd06a997eefc2105ede224baae3c87164571303facf021fe57539ab4a170303099d30edf909bbec1e9051cb3551a65708e962eb03e330e2c4a2b3872559940e80305ac1a4fab236bd83c1ef0054471f695da2093d025177a59902c5331653785b6d63216db821f9965979b5c7df367c20a57e81401028ef88435ec99bad9b49cf53b7a48c8cc4f12fa4f5a30241928f23007acf918235f076d02ed8ac5ac1654fb02b6327b98171bf2d7d852b0675ca49b25d7b62588e9d00cb3dea4b4641bde050a7ac37c721fa9ca7d634f3f868aee41fa69400b01f3fa2d2cea2eda384fd682c2d14e25b491857164176f45dab7ae1a6ce31bdb208f08d5ab047a5a3d511f986b3110d22a457701d1e8321f6c5b59dac0443a21757b471ed354ba9f7419e7437f448e39636ccf4e5a2b1104748ba080f53ec330aeb56c513ed71cc15ce121ce0c7c0c1d7d89e3e8fa923cd37f782944b5c73149b586076369596eabaf97e32c8c7d79024080f38d833d46ada42fe4d9909abf38ae88f6f0172b68ad9d4c10db7537294930bc251f93c8e7e213d0f2760c623ed54f0c3beee95f28ab7d2f9ca7e6555153b6f4e72b7e2d86cefed4bad3b9cd2c2b53c7f5375555683a14b9c7b8d0a883fa16a568a0d7a2db38fa9d702585fce8ece334574fe5b2d1c90fa99cfe2cfc61f56a40649d75618f67412be355ed2a7b15ce0c76d296e472b8f77ea03eb807dd8e9c018add1406f16809cc05d301fa0c4c75e50d1f1179d6d83f473b2a1edde38836a07a2c9d6d2b420e49a828056a62332a4e5d61b86190875b3e71747105325c8487cc4d53ee8d32ad48c3202f2a58dbfae5de31262aa074c12d7daa6ddf5295f9b81bafd71d9f22ebab5b5274b66a73b6814fcd8fb0ddbf0c19c725e99ae93e89b565e67573046ef2695731e0838c8ef1f2c7502696777718926300cc6198194911ff716cbbcfdf78f69de8fd072b83dd6f383429c9152a5d36a2f403083a2123666d54cb7f661565591e4c3f1df75f4a7b8fba004debb293442269955dcb8163215fd4c4959b32ee592f25138a1a9b8ba0576605c624a246d58d1b4adb3b37e2563b34b39d49243c42717089c01521c9db6564ccafa8bed4d5ef5448d054f9cdf8512bbe76146cdb832e1d3a2c26c941ca5a5d29b81ea59d93447eb662e35cca9abe9a01380198691a5de97c19edc4a7655ed3fbd3d684eaa65675870a00474fb7d2ee4301a23553a298ae9418adb910aa78f69d1e40879f8e989f3c5b7ca4452b2124bdbf93cdef95f5685a0cfab796ed387bcb4dcd25984fc6b24eb9ec9a8fb1d33f86e4a255eb6cf01dc32cc1f043d61f5d8248ada118a0ca64ea87397cf69132f4ef25a7385ce785a50676bf8d776e5463f7e94edc3465606d47a78eed612bd985213ef3ecdb84178e01ef780f3c3b9205db7cd2439eff511b6921c9fd1cab008069f0f4630e44d63825a70c58986a806b5b7996cf6c71a0a741ea279cbe8d29ad8f9d8849cd8a3541a7c9cc65da0477adb2eaf689de8f069686af4bc2ba429d42ae22f9b9c55b4301218eb69ad9b083e78638ddc8fe3807b3555e18f9109852a948e153426ed6e71c9ec4f02f1354e8b7590ab3d2cd1bd3eaa60e458d7be13938159790e5715a0580ccb50f6a53c2c82ddae0ccb5293db765173b618e1e2d191c9294b726dd1a33bdd57384f89ac4cb65c6df4c6ae7a191ce3fe517af3161b4a05396d2fab89bcd8820c39170c2b5c50781bfbb303c620f812fa02de87aaa9215cf265f95a61a2f59281aa0074ce7714095896397228fd831149f28503273c02d2bee21a29779262fcef7c769837ae91af44eccbb87ae552222154f4353c424bf502d6f1b340038a8daf2735091abc303ee58bbc2eb2799adc8ef176d3cabf4c26ae33ea06fa926c3974298edee04bdca3d1eb378902dcdebdb766da48affc41b50f2b97696e3f5a2493a419cbe29a0f58255179243f846a97fb1a887de31ced10f149703534f149a368161e0911cda8bdbc93944e0c8728b3d283f84036512916486a52aa03"/>
      <field name="data.len" showname="Length: 1460" size="0" pos="54" show="1460"/>
  </field>
</proto>
</packet>


<packet>
  <proto name="geninfo" pos="0" showname="General information" size="54">
    <field name="num" pos="0" show="9" showname="Number" value="9" size="54"/>
    <field name="len" pos="0" show="54" showname="Frame Length" value="36" size="54"/>
    <field name="caplen" pos="0" show="54" showname="Captured Length" value="36" size="54"/>
    <field name="timestamp" pos="0" show="Jun 27, 2019 12:20:56.996456000 CEST" showname="Captured Time" value="1561630856.996456000" size="54"/>
  </proto>
  <proto name="frame" showname="Frame 9: 54 bytes on wire (432 bits), 54 bytes captured (432 bits) on interface 0" size="54" pos="0">
    <field name="frame.interface_id" showname="Interface id: 0" size="0" pos="0" show="0"/>
    <field name="frame.encap_type" showname="Encapsulation type: Ethernet (1)" size="0" pos="0" show="1"/>
    <field name="frame.time" showname="Arrival Time: Jun 27, 2019 12:20:56.996456000 CEST" size="0" pos="0" show="&quot;Jun 27, 2019 12:20:56.996456000 CEST&quot;"/>
    <field name="frame.offset_shift" showname="Time shift for this packet: 0.000000000 seconds" size="0" pos="0" show="0.000000000"/>
    <field name="frame.time_epoch" showname="Epoch Time: 1561630856.996456000 seconds" size="0" pos="0" show="1561630856.996456000"/>
    <field name="frame.time_delta" showname="Time delta from previous captured frame: 0.000019000 seconds" size="0" pos="0" show="0.000019000"/>
    <field name="frame.time_delta_displayed" showname="Time delta from previous displayed frame: 0.000019000 seconds" size="0" pos="0" show="0.000019000"/>
    <field name="frame.time_relative" showname="Time since reference or first frame: 0.009394000 seconds" size="0" pos="0" show="0.009394000"/>
    <field name="frame.number" showname="Frame Number: 9" size="0" pos="0" show="9"/>
    <field name="frame.len" showname="Frame Length: 54 bytes (432 bits)" size="0" pos="0" show="54"/>
    <field name="frame.cap_len" showname="Capture Length: 54 bytes (432 bits)" size="0" pos="0" show="54"/>
    <field name="frame.marked" showname="Frame is marked: False" size="0" pos="0" show="0"/>
    <field name="frame.ignored" showname="Frame is ignored: False" size="0" pos="0" show="0"/>
    <field name="frame.protocols" showname="Protocols in frame: eth:ip:tcp" size="0" pos="0" show="eth:ip:tcp"/>
  </proto>
  <proto name="eth" showname="Ethernet II, Src: 02:42:ac:11:00:02 (02:42:ac:11:00:02), Dst: 02:42:71:12:56:af (02:42:71:12:56:af)" size="14" pos="0">
    <field name="eth.dst" showname="Destination: 02:42:71:12:56:af (02:42:71:12:56:af)" size="6" pos="0" show="02:42:71:12:56:af" value="0242711256af">
      <field name="eth.addr" showname="Address: 02:42:71:12:56:af (02:42:71:12:56:af)" size="6" pos="0" show="02:42:71:12:56:af" value="0242711256af"/>
      <field name="eth.lg" showname=".... ..1. .... .... .... .... = LG bit: Locally administered address (this is NOT the factory default)" size="3" pos="0" show="1" value="1" unmaskedvalue="024271"/>
      <field name="eth.ig" showname=".... ...0 .... .... .... .... = IG bit: Individual address (unicast)" size="3" pos="0" show="0" value="0" unmaskedvalue="024271"/>
    </field>
    <field name="eth.src" showname="Source: 02:42:ac:11:00:02 (02:42:ac:11:00:02)" size="6" pos="6" show="02:42:ac:11:00:02" value="0242ac110002">
      <field name="eth.addr" showname="Address: 02:42:ac:11:00:02 (02:42:ac:11:00:02)" size="6" pos="6" show="02:42:ac:11:00:02" value="0242ac110002"/>
      <field name="eth.lg" showname=".... ..1. .... .... .... .... = LG bit: Locally administered address (this is NOT the factory default)" size="3" pos="6" show="1" value="1" unmaskedvalue="0242ac"/>
      <field name="eth.ig" showname=".... ...0 .... .... .... .... = IG bit: Individual address (unicast)" size="3" pos="6" show="0" value="0" unmaskedvalue="0242ac"/>
    </field>
    <field name="eth.type" showname="Type: IP (0x0800)" size="2" pos="12" show="2048" value="0800"/>
  </proto>
  <proto name="ip" showname="Internet Protocol Version 4, Src: 172.17.0.2 (172.17.0.2), Dst: 1.1.1.1 (1.1.1.1)" size="20" pos="14">
    <field name="ip.version" showname="Version: 4" size="1" pos="14" show="4" value="45"/>
    <field name="ip.hdr_len" showname="Header length: 20 bytes" size="1" pos="14" show="20" value="45"/>
    <field name="ip.dsfield" showname="Differentiated Services Field: 0x00 (DSCP 0x00: Default; ECN: 0x00: Not-ECT (Not ECN-Capable Transport))" size="1" pos="15" show="0" value="00">
      <field name="ip.dsfield.dscp" showname="0000 00.. = Differentiated Services Codepoint: Default (0x00)" size="1" pos="15" show="0" value="0" unmaskedvalue="00"/>
      <field name="ip.dsfield.ecn" showname=".... ..00 = Explicit Congestion Notification: Not-ECT (Not ECN-Capable Transport) (0x00)" size="1" pos="15" show="0" value="0" unmaskedvalue="00"/>
    </field>
    <field name="ip.len" showname="Total Length: 40" size="2" pos="16" show="40" value="0028"/>
    <field name="ip.id" showname="Identification: 0x38a0 (14496)" size="2" pos="18" show="14496" value="38a0"/>
    <field name="ip.flags" showname="Flags: 0x02 (Don&apos;t Fragment)" size="1" pos="20" show="2" value="40">
      <field name="ip.flags.rb" showname="0... .... = Reserved bit: Not set" size="1" pos="20" show="0" value="40"/>
      <field name="ip.flags.df" showname=".1.. .... = Don&apos;t fragment: Set" size="1" pos="20" show="1" value="40"/>
      <field name="ip.flags.mf" showname="..0. .... = More fragments: Not set" size="1" pos="20" show="0" value="40"/>
    </field>
    <field name="ip.frag_offset" showname="Fragment offset: 0" size="2" pos="20" show="0" value="4000"/>
    <field name="ip.ttl" showname="Time to live: 64" size="1" pos="22" show="64" value="40"/>
    <field name="ip.proto" showname="Protocol: TCP (6)" size="1" pos="23" show="6" value="06"/>
    <field name="ip.checksum" showname="Header checksum: 0x541b [validation disabled]" size="2" pos="24" show="21531" value="541b">
      <field name="ip.checksum_good" showname="Good: False" size="2" pos="24" show="0" value="541b"/>
      <field name="ip.checksum_bad" showname="Bad: False" size="2" pos="24" show="0" value="541b"/>
    </field>
    <field name="ip.src" showname="Source: 172.17.0.2 (172.17.0.2)" size="4" pos="26" show="172.17.0.2" value="ac110002"/>
    <field name="ip.addr" showname="Source or Destination Address: 172.17.0.2 (172.17.0.2)" hide="yes" size="4" pos="26" show="172.17.0.2" value="ac110002"/>
    <field name="ip.src_host" showname="Source Host: 172.17.0.2" hide="yes" size="4" pos="26" show="172.17.0.2" value="ac110002"/>
    <field name="ip.host" showname="Source or Destination Host: 172.17.0.2" hide="yes" size="4" pos="26" show="172.17.0.2" value="ac110002"/>
    <field name="ip.dst" showname="Destination: 1.1.1.1 (1.1.1.1)" size="4" pos="30" show="1.1.1.1" value="01010101"/>
    <field name="ip.addr" showname="Source or Destination Address: 1.1.1.1 (1.1.1.1)" hide="yes" size="4" pos="30" show="1.1.1.1" value="01010101"/>
    <field name="ip.dst_host" showname="Destination Host: 1.1.1.1" hide="yes" size="4" pos="30" show="1.1.1.1" value="01010101"/>
    <field name="ip.host" showname="Source or Destination Host: 1.1.1.1" hide="yes" size="4" pos="30" show="1.1.1.1" value="01010101"/>
  </proto>
  <proto name="tcp" showname="Transmission Control Protocol, Src Port: 59654 (59654), Dst Port: 853 (853), Seq: 338, Ack: 1595, Len: 0" size="20" pos="34">
    <field name="tcp.srcport" showname="Source port: 59654 (59654)" size="2" pos="34" show="59654" value="e906"/>
    <field name="tcp.dstport" showname="Destination port: 853 (853)" size="2" pos="36" show="853" value="0355"/>
    <field name="tcp.port" showname="Source or Destination Port: 59654" hide="yes" size="2" pos="34" show="59654" value="e906"/>
    <field name="tcp.port" showname="Source or Destination Port: 853" hide="yes" size="2" pos="36" show="853" value="0355"/>
    <field name="tcp.stream" showname="Stream index: 0" size="0" pos="34" show="0"/>
    <field name="tcp.len" showname="TCP Segment Len: 0" hide="yes" size="1" pos="46" show="0" value="50"/>
    <field name="tcp.seq" showname="Sequence number: 338    (relative sequence number)" size="4" pos="38" show="338" value="f2f15200"/>
    <field name="tcp.ack" showname="Acknowledgment number: 1595    (relative ack number)" size="4" pos="42" show="1595" value="58261a58"/>
    <field name="tcp.hdr_len" showname="Header length: 20 bytes" size="1" pos="46" show="20" value="50"/>
    <field name="tcp.flags" showname="Flags: 0x010 (ACK)" size="2" pos="46" show="16" value="10" unmaskedvalue="5010">
      <field name="tcp.flags.res" showname="000. .... .... = Reserved: Not set" size="1" pos="46" show="0" value="0" unmaskedvalue="50"/>
      <field name="tcp.flags.ns" showname="...0 .... .... = Nonce: Not set" size="1" pos="46" show="0" value="0" unmaskedvalue="50"/>
      <field name="tcp.flags.cwr" showname=".... 0... .... = Congestion Window Reduced (CWR): Not set" size="1" pos="47" show="0" value="0" unmaskedvalue="10"/>
      <field name="tcp.flags.ecn" showname=".... .0.. .... = ECN-Echo: Not set" size="1" pos="47" show="0" value="0" unmaskedvalue="10"/>
      <field name="tcp.flags.urg" showname=".... ..0. .... = Urgent: Not set" size="1" pos="47" show="0" value="0" unmaskedvalue="10"/>
      <field name="tcp.flags.ack" showname=".... ...1 .... = Acknowledgment: Set" size="1" pos="47" show="1" value="1" unmaskedvalue="10"/>
      <field name="tcp.flags.push" showname=".... .... 0... = Push: Not set" size="1" pos="47" show="0" value="0" unmaskedvalue="10"/>
      <field name="tcp.flags.reset" showname=".... .... .0.. = Reset: Not set" size="1" pos="47" show="0" value="0" unmaskedvalue="10"/>
      <field name="tcp.flags.syn" showname=".... .... ..0. = Syn: Not set" size="1" pos="47" show="0" value="0" unmaskedvalue="10"/>
      <field name="tcp.flags.fin" showname=".... .... ...0 = Fin: Not set" size="1" pos="47" show="0" value="0" unmaskedvalue="10"/>
    </field>
    <field name="tcp.window_size_value" showname="Window size value: 260" size="2" pos="48" show="260" value="0104"/>
    <field name="tcp.window_size" showname="Calculated window size: 33280" size="2" pos="48" show="33280" value="0104"/>
    <field name="tcp.window_size_scalefactor" showname="Window size scaling factor: 128" size="2" pos="48" show="128" value="0104"/>
    <field name="tcp.checksum" showname="Checksum: 0xae2f [validation disabled]" size="2" pos="50" show="44591" value="ae2f">
      <field name="tcp.checksum_good" showname="Good Checksum: False" size="2" pos="50" show="0" value="ae2f"/>
      <field name="tcp.checksum_bad" showname="Bad Checksum: False" size="2" pos="50" show="0" value="ae2f"/>
    </field>
    <field name="tcp.analysis" showname="SEQ/ACK analysis" size="0" pos="34" show="" value="">
      <field name="tcp.analysis.acks_frame" showname="This is an ACK to the segment in frame: 8" size="0" pos="34" show="8"/>
      <field name="tcp.analysis.ack_rtt" showname="The RTT to ACK the segment was: 0.000019000 seconds" size="0" pos="34" show="0.000019000"/>
    </field>
  </proto>
</packet>


<packet>
  <proto name="geninfo" pos="0" showname="General information" size="1269">
    <field name="num" pos="0" show="10" showname="Number" value="a" size="1269"/>
    <field name="len" pos="0" show="1269" showname="Frame Length" value="4f5" size="1269"/>
    <field name="caplen" pos="0" show="1269" showname="Captured Length" value="4f5" size="1269"/>
    <field name="timestamp" pos="0" show="Jun 27, 2019 12:20:56.996489000 CEST" showname="Captured Time" value="1561630856.996489000" size="1269"/>
  </proto>
  <proto name="frame" showname="Frame 10: 1269 bytes on wire (10152 bits), 1269 bytes captured (10152 bits) on interface 0" size="1269" pos="0">
    <field name="frame.interface_id" showname="Interface id: 0" size="0" pos="0" show="0"/>
    <field name="frame.encap_type" showname="Encapsulation type: Ethernet (1)" size="0" pos="0" show="1"/>
    <field name="frame.time" showname="Arrival Time: Jun 27, 2019 12:20:56.996489000 CEST" size="0" pos="0" show="&quot;Jun 27, 2019 12:20:56.996489000 CEST&quot;"/>
    <field name="frame.offset_shift" showname="Time shift for this packet: 0.000000000 seconds" size="0" pos="0" show="0.000000000"/>
    <field name="frame.time_epoch" showname="Epoch Time: 1561630856.996489000 seconds" size="0" pos="0" show="1561630856.996489000"/>
    <field name="frame.time_delta" showname="Time delta from previous captured frame: 0.000033000 seconds" size="0" pos="0" show="0.000033000"/>
    <field name="frame.time_delta_displayed" showname="Time delta from previous displayed frame: 0.000033000 seconds" size="0" pos="0" show="0.000033000"/>
    <field name="frame.time_relative" showname="Time since reference or first frame: 0.009427000 seconds" size="0" pos="0" show="0.009427000"/>
    <field name="frame.number" showname="Frame Number: 10" size="0" pos="0" show="10"/>
    <field name="frame.len" showname="Frame Length: 1269 bytes (10152 bits)" size="0" pos="0" show="1269"/>
    <field name="frame.cap_len" showname="Capture Length: 1269 bytes (10152 bits)" size="0" pos="0" show="1269"/>
    <field name="frame.marked" showname="Frame is marked: False" size="0" pos="0" show="0"/>
    <field name="frame.ignored" showname="Frame is ignored: False" size="0" pos="0" show="0"/>
    <field name="frame.protocols" showname="Protocols in frame: eth:ip:tcp:data" size="0" pos="0" show="eth:ip:tcp:data"/>
  </proto>
  <proto name="eth" showname="Ethernet II, Src: 02:42:71:12:56:af (02:42:71:12:56:af), Dst: 02:42:ac:11:00:02 (02:42:ac:11:00:02)" size="14" pos="0">
    <field name="eth.dst" showname="Destination: 02:42:ac:11:00:02 (02:42:ac:11:00:02)" size="6" pos="0" show="02:42:ac:11:00:02" value="0242ac110002">
      <field name="eth.addr" showname="Address: 02:42:ac:11:00:02 (02:42:ac:11:00:02)" size="6" pos="0" show="02:42:ac:11:00:02" value="0242ac110002"/>
      <field name="eth.lg" showname=".... ..1. .... .... .... .... = LG bit: Locally administered address (this is NOT the factory default)" size="3" pos="0" show="1" value="1" unmaskedvalue="0242ac"/>
      <field name="eth.ig" showname=".... ...0 .... .... .... .... = IG bit: Individual address (unicast)" size="3" pos="0" show="0" value="0" unmaskedvalue="0242ac"/>
    </field>
    <field name="eth.src" showname="Source: 02:42:71:12:56:af (02:42:71:12:56:af)" size="6" pos="6" show="02:42:71:12:56:af" value="0242711256af">
      <field name="eth.addr" showname="Address: 02:42:71:12:56:af (02:42:71:12:56:af)" size="6" pos="6" show="02:42:71:12:56:af" value="0242711256af"/>
      <field name="eth.lg" showname=".... ..1. .... .... .... .... = LG bit: Locally administered address (this is NOT the factory default)" size="3" pos="6" show="1" value="1" unmaskedvalue="024271"/>
      <field name="eth.ig" showname=".... ...0 .... .... .... .... = IG bit: Individual address (unicast)" size="3" pos="6" show="0" value="0" unmaskedvalue="024271"/>
    </field>
    <field name="eth.type" showname="Type: IP (0x0800)" size="2" pos="12" show="2048" value="0800"/>
  </proto>
  <proto name="ip" showname="Internet Protocol Version 4, Src: 1.1.1.1 (1.1.1.1), Dst: 172.17.0.2 (172.17.0.2)" size="20" pos="14">
    <field name="ip.version" showname="Version: 4" size="1" pos="14" show="4" value="45"/>
    <field name="ip.hdr_len" showname="Header length: 20 bytes" size="1" pos="14" show="20" value="45"/>
    <field name="ip.dsfield" showname="Differentiated Services Field: 0x00 (DSCP 0x00: Default; ECN: 0x00: Not-ECT (Not ECN-Capable Transport))" size="1" pos="15" show="0" value="00">
      <field name="ip.dsfield.dscp" showname="0000 00.. = Differentiated Services Codepoint: Default (0x00)" size="1" pos="15" show="0" value="0" unmaskedvalue="00"/>
      <field name="ip.dsfield.ecn" showname=".... ..00 = Explicit Congestion Notification: Not-ECT (Not ECN-Capable Transport) (0x00)" size="1" pos="15" show="0" value="0" unmaskedvalue="00"/>
    </field>
    <field name="ip.len" showname="Total Length: 1255" size="2" pos="16" show="1255" value="04e7"/>
    <field name="ip.id" showname="Identification: 0xf82e (63534)" size="2" pos="18" show="63534" value="f82e"/>
    <field name="ip.flags" showname="Flags: 0x02 (Don&apos;t Fragment)" size="1" pos="20" show="2" value="40">
      <field name="ip.flags.rb" showname="0... .... = Reserved bit: Not set" size="1" pos="20" show="0" value="40"/>
      <field name="ip.flags.df" showname=".1.. .... = Don&apos;t fragment: Set" size="1" pos="20" show="1" value="40"/>
      <field name="ip.flags.mf" showname="..0. .... = More fragments: Not set" size="1" pos="20" show="0" value="40"/>
    </field>
    <field name="ip.frag_offset" showname="Fragment offset: 0" size="2" pos="20" show="0" value="4000"/>
    <field name="ip.ttl" showname="Time to live: 57" size="1" pos="22" show="57" value="39"/>
    <field name="ip.proto" showname="Protocol: TCP (6)" size="1" pos="23" show="6" value="06"/>
    <field name="ip.checksum" showname="Header checksum: 0x96cd [validation disabled]" size="2" pos="24" show="38605" value="96cd">
      <field name="ip.checksum_good" showname="Good: False" size="2" pos="24" show="0" value="96cd"/>
      <field name="ip.checksum_bad" showname="Bad: False" size="2" pos="24" show="0" value="96cd"/>
    </field>
    <field name="ip.src" showname="Source: 1.1.1.1 (1.1.1.1)" size="4" pos="26" show="1.1.1.1" value="01010101"/>
    <field name="ip.addr" showname="Source or Destination Address: 1.1.1.1 (1.1.1.1)" hide="yes" size="4" pos="26" show="1.1.1.1" value="01010101"/>
    <field name="ip.src_host" showname="Source Host: 1.1.1.1" hide="yes" size="4" pos="26" show="1.1.1.1" value="01010101"/>
    <field name="ip.host" showname="Source or Destination Host: 1.1.1.1" hide="yes" size="4" pos="26" show="1.1.1.1" value="01010101"/>
    <field name="ip.dst" showname="Destination: 172.17.0.2 (172.17.0.2)" size="4" pos="30" show="172.17.0.2" value="ac110002"/>
    <field name="ip.addr" showname="Source or Destination Address: 172.17.0.2 (172.17.0.2)" hide="yes" size="4" pos="30" show="172.17.0.2" value="ac110002"/>
    <field name="ip.dst_host" showname="Destination Host: 172.17.0.2" hide="yes" size="4" pos="30" show="172.17.0.2" value="ac110002"/>
    <field name="ip.host" showname="Source or Destination Host: 172.17.0.2" hide="yes" size="4" pos="30" show="172.17.0.2" value="ac110002"/>
  </proto>
  <proto name="tcp" showname="Transmission Control Protocol, Src Port: 853 (853), Dst Port: 59654 (59654), Seq: 1595, Ack: 338, Len: 1215" size="20" pos="34">
    <field name="tcp.srcport" showname="Source port: 853 (853)" size="2" pos="34" show="853" value="0355"/>
    <field name="tcp.dstport" showname="Destination port: 59654 (59654)" size="2" pos="36" show="59654" value="e906"/>
    <field name="tcp.port" showname="Source or Destination Port: 853" hide="yes" size="2" pos="34" show="853" value="0355"/>
    <field name="tcp.port" showname="Source or Destination Port: 59654" hide="yes" size="2" pos="36" show="59654" value="e906"/>
    <field name="tcp.stream" showname="Stream index: 0" size="0" pos="34" show="0"/>
    <field name="tcp.len" showname="TCP Segment Len: 1215" hide="yes" size="1" pos="46" show="1215" value="50"/>
    <field name="tcp.seq" showname="Sequence number: 1595    (relative sequence number)" size="4" pos="38" show="1595" value="58261a58"/>
    <field name="tcp.nxtseq" showname="Next sequence number: 2810    (relative sequence number)" size="0" pos="34" show="2810"/>
    <field name="tcp.ack" showname="Acknowledgment number: 338    (relative ack number)" size="4" pos="42" show="338" value="f2f15200"/>
    <field name="tcp.hdr_len" showname="Header length: 20 bytes" size="1" pos="46" show="20" value="50"/>
    <field name="tcp.flags" showname="Flags: 0x018 (PSH, ACK)" size="2" pos="46" show="24" value="18" unmaskedvalue="5018">
      <field name="tcp.flags.res" showname="000. .... .... = Reserved: Not set" size="1" pos="46" show="0" value="0" unmaskedvalue="50"/>
      <field name="tcp.flags.ns" showname="...0 .... .... = Nonce: Not set" size="1" pos="46" show="0" value="0" unmaskedvalue="50"/>
      <field name="tcp.flags.cwr" showname=".... 0... .... = Congestion Window Reduced (CWR): Not set" size="1" pos="47" show="0" value="0" unmaskedvalue="18"/>
      <field name="tcp.flags.ecn" showname=".... .0.. .... = ECN-Echo: Not set" size="1" pos="47" show="0" value="0" unmaskedvalue="18"/>
      <field name="tcp.flags.urg" showname=".... ..0. .... = Urgent: Not set" size="1" pos="47" show="0" value="0" unmaskedvalue="18"/>
      <field name="tcp.flags.ack" showname=".... ...1 .... = Acknowledgment: Set" size="1" pos="47" show="1" value="1" unmaskedvalue="18"/>
      <field name="tcp.flags.push" showname=".... .... 1... = Push: Set" size="1" pos="47" show="1" value="1" unmaskedvalue="18"/>
      <field name="tcp.flags.reset" showname=".... .... .0.. = Reset: Not set" size="1" pos="47" show="0" value="0" unmaskedvalue="18"/>
      <field name="tcp.flags.syn" showname=".... .... ..0. = Syn: Not set" size="1" pos="47" show="0" value="0" unmaskedvalue="18"/>
      <field name="tcp.flags.fin" showname=".... .... ...0 = Fin: Not set" size="1" pos="47" show="0" value="0" unmaskedvalue="18"/>
    </field>
    <field name="tcp.window_size_value" showname="Window size value: 30" size="2" pos="48" show="30" value="001e"/>
    <field name="tcp.window_size" showname="Calculated window size: 30720" size="2" pos="48" show="30720" value="001e"/>
    <field name="tcp.window_size_scalefactor" showname="Window size scaling factor: 1024" size="2" pos="48" show="1024" value="001e"/>
    <field name="tcp.checksum" showname="Checksum: 0x24ec [validation disabled]" size="2" pos="50" show="9452" value="24ec">
      <field name="tcp.checksum_good" showname="Good Checksum: False" size="2" pos="50" show="0" value="24ec"/>
      <field name="tcp.checksum_bad" showname="Bad Checksum: False" size="2" pos="50" show="0" value="24ec"/>
    </field>
    <field name="tcp.analysis" showname="SEQ/ACK analysis" size="0" pos="34" show="" value="">
      <field name="tcp.analysis.bytes_in_flight" showname="Bytes in flight: 1215" size="0" pos="34" show="1215"/>
    </field>
  </proto>
  <proto name="fake-field-wrapper">
    <field name="data" value="81e187779e7461d1a139e286f28d3ec6e13334970cc0fe89601f13802bd64fe4ccf4695eb3e7d238ef43adaa8a3b2d3b9cb94696f409b971914126e13563cdb930d86cdbe48576c9fa5adc14ebf7116437a99a07e610c70f839eb32b8983d21ab7c727b854d044bcf979fcff2c03165f66afdd5d5875ffe13c87f9d25dad60e75d48cc28ccaccb228ffd95a9e9a652e7b0cb3c2ea51df7c51685bb7635c1ca936c8b2bfc405eafda517db87eb9a424cad61b85f8288d4ce475073584a3611ba4ed7a3985b170847540674c9aacd6170344c96a19c27c70eb9120d4d5859567ccaf5995cf234e6a4fbffa4a405abec7514e01407198e86236a4e01a5972b23c7bbaa82f0eaea41c9e9c00523c268dfe3ff994da3b47a0d2ddceea9e7f790cface2fdeae76a579e576de79b4d424f356d779a6d0245d58e98c15b0d78ac12ccbbd88c40f4e00a2db25f9638f20e76a297d28ca95b43fd246facdffe726920321f90dd7b10dbcbe8edd113525cca2f3a6b62e8a2a2dcbf0a5798c2ace8bffc200c1013873bba3a877e153afcea6e3f9335464d0f6e77db612badbc5bdafa1902ef4875418a815286f1a59fd8488ab7736ec03dc06cad95969eb36222c40f863b9d4418291f15f2562f2dfd737ef51f4b11a82597bce59958a87dbb9ea322ff827fe1f957dd96689506764128698c336d08c4873aee4a705328a0b34d96f6c81cc071a491e1a6c147dc640de7bdc066a576191e5e5307c2e9212e7ba0ccd1ea868fd8b5ac814568afad72abb764c2b72f38295152b97c09267f752799f3b2ea21f7325c68647d54b2b7923b6572e58ac988c03244838312fc7536cad7ae0151e65859246b43a720ab45a7bd6df1a23fd5f1e4fb5b1581eded1f4a4a8e04a2343d98440295763f9464d8836f59e4da778a812eda284506dd6c1451fa550a663030d5df7873ce9b6640b7d9afdd9a035bcee02c3f4c7bcdeb5ab5bc1e505c3858fb4c0b958c105464ee415ad3aab2ff0b1d2bf138dfa8ba2f304907b332b900aabc72401da87180f070148aba87f6b45f2442b53eb6dbf58ac3b655cee0ad5c89dc2097b275bb9f7024e65edbf75e0902f6a85a9c2ddd061d0b8b70f6cff19a292decf055a13d82c8aa1df13759287bc3f9e8e631bd153cb0a3f6538b1a92d23ea8c9591ab469b5db7f8f2feeb3e1c44bb6fb6947d84df1989a9b3fdc1c52b61a0938c906ff6ba5eee31c4532be0c58da22f4111b33922fbd3562e44be373018bde658730e94802db31528dad898853785d98bc61a916da2124f11f46969888a6dc27abcdfca80b6af0f95a07d6c7965957f9a448d613b229fe46127c8dd73b72ae0a8cd7a2bca8c60ae723a22f9d8173aea437bc8157795c3a3276453110d5c1361368504e7f84f21e878f90df0ace960efc1c712b8c14a1995aebb31d6800efb3fd0eb1b5abbb2524c7cd5a57dcf15a8d5e91703030060debc58a2505cf606ae722b6d5a7a1a17b8bcae6f379d312e335052dd3e558e1f1cb22154132840af6d235ef024cfa99e139a8d4c4c3854cf7ef64e23f453fe6830decd65957ce7a2f895192ad56bb48423f631e67abc5277d1f1037b08f4ac9517030300450133acbba606966b82eee1816ffebdd920d35205403581de80f13f343f73732dc356d69f5970a43900d25b5207b2763726eebc47c98ac2e24211ce19630e15f72399e65149">
      <field name="data.data" showname="Data: 81e187779e7461d1a139e286f28d3ec6e13334970cc0fe89..." size="1215" pos="54" show="81:e1:87:77:9e:74:61:d1:a1:39:e2:86:f2:8d:3e:c6:e1:33:34:97:0c:c0:fe:89:60:1f:13:80:2b:d6:4f:e4:cc:f4:69:5e:b3:e7:d2:38:ef:43:ad:aa:8a:3b:2d:3b:9c:b9:46:96:f4:09:b9:71:91:41:26:e1:35:63:cd:b9:30:d8:6c:db:e4:85:76:c9:fa:5a:dc:14:eb:f7:11:64:37:a9:9a:07:e6:10:c7:0f:83:9e:b3:2b:89:83:d2:1a:b7:c7:27:b8:54:d0:44:bc:f9:79:fc:ff:2c:03:16:5f:66:af:dd:5d:58:75:ff:e1:3c:87:f9:d2:5d:ad:60:e7:5d:48:cc:28:cc:ac:cb:22:8f:fd:95:a9:e9:a6:52:e7:b0:cb:3c:2e:a5:1d:f7:c5:16:85:bb:76:35:c1:ca:93:6c:8b:2b:fc:40:5e:af:da:51:7d:b8:7e:b9:a4:24:ca:d6:1b:85:f8:28:8d:4c:e4:75:07:35:84:a3:61:1b:a4:ed:7a:39:85:b1:70:84:75:40:67:4c:9a:ac:d6:17:03:44:c9:6a:19:c2:7c:70:eb:91:20:d4:d5:85:95:67:cc:af:59:95:cf:23:4e:6a:4f:bf:fa:4a:40:5a:be:c7:51:4e:01:40:71:98:e8:62:36:a4:e0:1a:59:72:b2:3c:7b:ba:a8:2f:0e:ae:a4:1c:9e:9c:00:52:3c:26:8d:fe:3f:f9:94:da:3b:47:a0:d2:dd:ce:ea:9e:7f:79:0c:fa:ce:2f:de:ae:76:a5:79:e5:76:de:79:b4:d4:24:f3:56:d7:79:a6:d0:24:5d:58:e9:8c:15:b0:d7:8a:c1:2c:cb:bd:88:c4:0f:4e:00:a2:db:25:f9:63:8f:20:e7:6a:29:7d:28:ca:95:b4:3f:d2:46:fa:cd:ff:e7:26:92:03:21:f9:0d:d7:b1:0d:bc:be:8e:dd:11:35:25:cc:a2:f3:a6:b6:2e:8a:2a:2d:cb:f0:a5:79:8c:2a:ce:8b:ff:c2:00:c1:01:38:73:bb:a3:a8:77:e1:53:af:ce:a6:e3:f9:33:54:64:d0:f6:e7:7d:b6:12:ba:db:c5:bd:af:a1:90:2e:f4:87:54:18:a8:15:28:6f:1a:59:fd:84:88:ab:77:36:ec:03:dc:06:ca:d9:59:69:eb:36:22:2c:40:f8:63:b9:d4:41:82:91:f1:5f:25:62:f2:df:d7:37:ef:51:f4:b1:1a:82:59:7b:ce:59:95:8a:87:db:b9:ea:32:2f:f8:27:fe:1f:95:7d:d9:66:89:50:67:64:12:86:98:c3:36:d0:8c:48:73:ae:e4:a7:05:32:8a:0b:34:d9:6f:6c:81:cc:07:1a:49:1e:1a:6c:14:7d:c6:40:de:7b:dc:06:6a:57:61:91:e5:e5:30:7c:2e:92:12:e7:ba:0c:cd:1e:a8:68:fd:8b:5a:c8:14:56:8a:fa:d7:2a:bb:76:4c:2b:72:f3:82:95:15:2b:97:c0:92:67:f7:52:79:9f:3b:2e:a2:1f:73:25:c6:86:47:d5:4b:2b:79:23:b6:57:2e:58:ac:98:8c:03:24:48:38:31:2f:c7:53:6c:ad:7a:e0:15:1e:65:85:92:46:b4:3a:72:0a:b4:5a:7b:d6:df:1a:23:fd:5f:1e:4f:b5:b1:58:1e:de:d1:f4:a4:a8:e0:4a:23:43:d9:84:40:29:57:63:f9:46:4d:88:36:f5:9e:4d:a7:78:a8:12:ed:a2:84:50:6d:d6:c1:45:1f:a5:50:a6:63:03:0d:5d:f7:87:3c:e9:b6:64:0b:7d:9a:fd:d9:a0:35:bc:ee:02:c3:f4:c7:bc:de:b5:ab:5b:c1:e5:05:c3:85:8f:b4:c0:b9:58:c1:05:46:4e:e4:15:ad:3a:ab:2f:f0:b1:d2:bf:13:8d:fa:8b:a2:f3:04:90:7b:33:2b:90:0a:ab:c7:24:01:da:87:18:0f:07:01:48:ab:a8:7f:6b:45:f2:44:2b:53:eb:6d:bf:58:ac:3b:65:5c:ee:0a:d5:c8:9d:c2:09:7b:27:5b:b9:f7:02:4e:65:ed:bf:75:e0:90:2f:6a:85:a9:c2:dd:d0:61:d0:b8:b7:0f:6c:ff:19:a2:92:de:cf:05:5a:13:d8:2c:8a:a1:df:13:75:92:87:bc:3f:9e:8e:63:1b:d1:53:cb:0a:3f:65:38:b1:a9:2d:23:ea:8c:95:91:ab:46:9b:5d:b7:f8:f2:fe:eb:3e:1c:44:bb:6f:b6:94:7d:84:df:19:89:a9:b3:fd:c1:c5:2b:61:a0:93:8c:90:6f:f6:ba:5e:ee:31:c4:53:2b:e0:c5:8d:a2:2f:41:11:b3:39:22:fb:d3:56:2e:44:be:37:30:18:bd:e6:58:73:0e:94:80:2d:b3:15:28:da:d8:98:85:37:85:d9:8b:c6:1a:91:6d:a2:12:4f:11:f4:69:69:88:8a:6d:c2:7a:bc:df:ca:80:b6:af:0f:95:a0:7d:6c:79:65:95:7f:9a:44:8d:61:3b:22:9f:e4:61:27:c8:dd:73:b7:2a:e0:a8:cd:7a:2b:ca:8c:60:ae:72:3a:22:f9:d8:17:3a:ea:43:7b:c8:15:77:95:c3:a3:27:64:53:11:0d:5c:13:61:36:85:04:e7:f8:4f:21:e8:78:f9:0d:f0:ac:e9:60:ef:c1:c7:12:b8:c1:4a:19:95:ae:bb:31:d6:80:0e:fb:3f:d0:eb:1b:5a:bb:b2:52:4c:7c:d5:a5:7d:cf:15:a8:d5:e9:17:03:03:00:60:de:bc:58:a2:50:5c:f6:06:ae:72:2b:6d:5a:7a:1a:17:b8:bc:ae:6f:37:9d:31:2e:33:50:52:dd:3e:55:8e:1f:1c:b2:21:54:13:28:40:af:6d:23:5e:f0:24:cf:a9:9e:13:9a:8d:4c:4c:38:54:cf:7e:f6:4e:23:f4:53:fe:68:30:de:cd:65:95:7c:e7:a2:f8:95:19:2a:d5:6b:b4:84:23:f6:31:e6:7a:bc:52:77:d1:f1:03:7b:08:f4:ac:95:17:03:03:00:45:01:33:ac:bb:a6:06:96:6b:82:ee:e1:81:6f:fe:bd:d9:20:d3:52:05:40:35:81:de:80:f1:3f:34:3f:73:73:2d:c3:56:d6:9f:59:70:a4:39:00:d2:5b:52:07:b2:76:37:26:ee:bc:47:c9:8a:c2:e2:42:11:ce:19:63:0e:15:f7:23:99:e6:51:49" value="81e187779e7461d1a139e286f28d3ec6e13334970cc0fe89601f13802bd64fe4ccf4695eb3e7d238ef43adaa8a3b2d3b9cb94696f409b971914126e13563cdb930d86cdbe48576c9fa5adc14ebf7116437a99a07e610c70f839eb32b8983d21ab7c727b854d044bcf979fcff2c03165f66afdd5d5875ffe13c87f9d25dad60e75d48cc28ccaccb228ffd95a9e9a652e7b0cb3c2ea51df7c51685bb7635c1ca936c8b2bfc405eafda517db87eb9a424cad61b85f8288d4ce475073584a3611ba4ed7a3985b170847540674c9aacd6170344c96a19c27c70eb9120d4d5859567ccaf5995cf234e6a4fbffa4a405abec7514e01407198e86236a4e01a5972b23c7bbaa82f0eaea41c9e9c00523c268dfe3ff994da3b47a0d2ddceea9e7f790cface2fdeae76a579e576de79b4d424f356d779a6d0245d58e98c15b0d78ac12ccbbd88c40f4e00a2db25f9638f20e76a297d28ca95b43fd246facdffe726920321f90dd7b10dbcbe8edd113525cca2f3a6b62e8a2a2dcbf0a5798c2ace8bffc200c1013873bba3a877e153afcea6e3f9335464d0f6e77db612badbc5bdafa1902ef4875418a815286f1a59fd8488ab7736ec03dc06cad95969eb36222c40f863b9d4418291f15f2562f2dfd737ef51f4b11a82597bce59958a87dbb9ea322ff827fe1f957dd96689506764128698c336d08c4873aee4a705328a0b34d96f6c81cc071a491e1a6c147dc640de7bdc066a576191e5e5307c2e9212e7ba0ccd1ea868fd8b5ac814568afad72abb764c2b72f38295152b97c09267f752799f3b2ea21f7325c68647d54b2b7923b6572e58ac988c03244838312fc7536cad7ae0151e65859246b43a720ab45a7bd6df1a23fd5f1e4fb5b1581eded1f4a4a8e04a2343d98440295763f9464d8836f59e4da778a812eda284506dd6c1451fa550a663030d5df7873ce9b6640b7d9afdd9a035bcee02c3f4c7bcdeb5ab5bc1e505c3858fb4c0b958c105464ee415ad3aab2ff0b1d2bf138dfa8ba2f304907b332b900aabc72401da87180f070148aba87f6b45f2442b53eb6dbf58ac3b655cee0ad5c89dc2097b275bb9f7024e65edbf75e0902f6a85a9c2ddd061d0b8b70f6cff19a292decf055a13d82c8aa1df13759287bc3f9e8e631bd153cb0a3f6538b1a92d23ea8c9591ab469b5db7f8f2feeb3e1c44bb6fb6947d84df1989a9b3fdc1c52b61a0938c906ff6ba5eee31c4532be0c58da22f4111b33922fbd3562e44be373018bde658730e94802db31528dad898853785d98bc61a916da2124f11f46969888a6dc27abcdfca80b6af0f95a07d6c7965957f9a448d613b229fe46127c8dd73b72ae0a8cd7a2bca8c60ae723a22f9d8173aea437bc8157795c3a3276453110d5c1361368504e7f84f21e878f90df0ace960efc1c712b8c14a1995aebb31d6800efb3fd0eb1b5abbb2524c7cd5a57dcf15a8d5e91703030060debc58a2505cf606ae722b6d5a7a1a17b8bcae6f379d312e335052dd3e558e1f1cb22154132840af6d235ef024cfa99e139a8d4c4c3854cf7ef64e23f453fe6830decd65957ce7a2f895192ad56bb48423f631e67abc5277d1f1037b08f4ac9517030300450133acbba606966b82eee1816ffebdd920d35205403581de80f13f343f73732dc356d69f5970a43900d25b5207b2763726eebc47c98ac2e24211ce19630e15f72399e65149"/>
      <field name="data.len" showname="Length: 1215" size="0" pos="54" show="1215"/>
  </field>
</proto>
</packet>


<packet>
  <proto name="geninfo" pos="0" showname="General information" size="54">
    <field name="num" pos="0" show="11" showname="Number" value="b" size="54"/>
    <field name="len" pos="0" show="54" showname="Frame Length" value="36" size="54"/>
    <field name="caplen" pos="0" show="54" showname="Captured Length" value="36" size="54"/>
    <field name="timestamp" pos="0" show="Jun 27, 2019 12:20:56.996502000 CEST" showname="Captured Time" value="1561630856.996502000" size="54"/>
  </proto>
  <proto name="frame" showname="Frame 11: 54 bytes on wire (432 bits), 54 bytes captured (432 bits) on interface 0" size="54" pos="0">
    <field name="frame.interface_id" showname="Interface id: 0" size="0" pos="0" show="0"/>
    <field name="frame.encap_type" showname="Encapsulation type: Ethernet (1)" size="0" pos="0" show="1"/>
    <field name="frame.time" showname="Arrival Time: Jun 27, 2019 12:20:56.996502000 CEST" size="0" pos="0" show="&quot;Jun 27, 2019 12:20:56.996502000 CEST&quot;"/>
    <field name="frame.offset_shift" showname="Time shift for this packet: 0.000000000 seconds" size="0" pos="0" show="0.000000000"/>
    <field name="frame.time_epoch" showname="Epoch Time: 1561630856.996502000 seconds" size="0" pos="0" show="1561630856.996502000"/>
    <field name="frame.time_delta" showname="Time delta from previous captured frame: 0.000013000 seconds" size="0" pos="0" show="0.000013000"/>
    <field name="frame.time_delta_displayed" showname="Time delta from previous displayed frame: 0.000013000 seconds" size="0" pos="0" show="0.000013000"/>
    <field name="frame.time_relative" showname="Time since reference or first frame: 0.009440000 seconds" size="0" pos="0" show="0.009440000"/>
    <field name="frame.number" showname="Frame Number: 11" size="0" pos="0" show="11"/>
    <field name="frame.len" showname="Frame Length: 54 bytes (432 bits)" size="0" pos="0" show="54"/>
    <field name="frame.cap_len" showname="Capture Length: 54 bytes (432 bits)" size="0" pos="0" show="54"/>
    <field name="frame.marked" showname="Frame is marked: False" size="0" pos="0" show="0"/>
    <field name="frame.ignored" showname="Frame is ignored: False" size="0" pos="0" show="0"/>
    <field name="frame.protocols" showname="Protocols in frame: eth:ip:tcp" size="0" pos="0" show="eth:ip:tcp"/>
  </proto>
  <proto name="eth" showname="Ethernet II, Src: 02:42:ac:11:00:02 (02:42:ac:11:00:02), Dst: 02:42:71:12:56:af (02:42:71:12:56:af)" size="14" pos="0">
    <field name="eth.dst" showname="Destination: 02:42:71:12:56:af (02:42:71:12:56:af)" size="6" pos="0" show="02:42:71:12:56:af" value="0242711256af">
      <field name="eth.addr" showname="Address: 02:42:71:12:56:af (02:42:71:12:56:af)" size="6" pos="0" show="02:42:71:12:56:af" value="0242711256af"/>
      <field name="eth.lg" showname=".... ..1. .... .... .... .... = LG bit: Locally administered address (this is NOT the factory default)" size="3" pos="0" show="1" value="1" unmaskedvalue="024271"/>
      <field name="eth.ig" showname=".... ...0 .... .... .... .... = IG bit: Individual address (unicast)" size="3" pos="0" show="0" value="0" unmaskedvalue="024271"/>
    </field>
    <field name="eth.src" showname="Source: 02:42:ac:11:00:02 (02:42:ac:11:00:02)" size="6" pos="6" show="02:42:ac:11:00:02" value="0242ac110002">
      <field name="eth.addr" showname="Address: 02:42:ac:11:00:02 (02:42:ac:11:00:02)" size="6" pos="6" show="02:42:ac:11:00:02" value="0242ac110002"/>
      <field name="eth.lg" showname=".... ..1. .... .... .... .... = LG bit: Locally administered address (this is NOT the factory default)" size="3" pos="6" show="1" value="1" unmaskedvalue="0242ac"/>
      <field name="eth.ig" showname=".... ...0 .... .... .... .... = IG bit: Individual address (unicast)" size="3" pos="6" show="0" value="0" unmaskedvalue="0242ac"/>
    </field>
    <field name="eth.type" showname="Type: IP (0x0800)" size="2" pos="12" show="2048" value="0800"/>
  </proto>
  <proto name="ip" showname="Internet Protocol Version 4, Src: 172.17.0.2 (172.17.0.2), Dst: 1.1.1.1 (1.1.1.1)" size="20" pos="14">
    <field name="ip.version" showname="Version: 4" size="1" pos="14" show="4" value="45"/>
    <field name="ip.hdr_len" showname="Header length: 20 bytes" size="1" pos="14" show="20" value="45"/>
    <field name="ip.dsfield" showname="Differentiated Services Field: 0x00 (DSCP 0x00: Default; ECN: 0x00: Not-ECT (Not ECN-Capable Transport))" size="1" pos="15" show="0" value="00">
      <field name="ip.dsfield.dscp" showname="0000 00.. = Differentiated Services Codepoint: Default (0x00)" size="1" pos="15" show="0" value="0" unmaskedvalue="00"/>
      <field name="ip.dsfield.ecn" showname=".... ..00 = Explicit Congestion Notification: Not-ECT (Not ECN-Capable Transport) (0x00)" size="1" pos="15" show="0" value="0" unmaskedvalue="00"/>
    </field>
    <field name="ip.len" showname="Total Length: 40" size="2" pos="16" show="40" value="0028"/>
    <field name="ip.id" showname="Identification: 0x38a1 (14497)" size="2" pos="18" show="14497" value="38a1"/>
    <field name="ip.flags" showname="Flags: 0x02 (Don&apos;t Fragment)" size="1" pos="20" show="2" value="40">
      <field name="ip.flags.rb" showname="0... .... = Reserved bit: Not set" size="1" pos="20" show="0" value="40"/>
      <field name="ip.flags.df" showname=".1.. .... = Don&apos;t fragment: Set" size="1" pos="20" show="1" value="40"/>
      <field name="ip.flags.mf" showname="..0. .... = More fragments: Not set" size="1" pos="20" show="0" value="40"/>
    </field>
    <field name="ip.frag_offset" showname="Fragment offset: 0" size="2" pos="20" show="0" value="4000"/>
    <field name="ip.ttl" showname="Time to live: 64" size="1" pos="22" show="64" value="40"/>
    <field name="ip.proto" showname="Protocol: TCP (6)" size="1" pos="23" show="6" value="06"/>
    <field name="ip.checksum" showname="Header checksum: 0x541a [validation disabled]" size="2" pos="24" show="21530" value="541a">
      <field name="ip.checksum_good" showname="Good: False" size="2" pos="24" show="0" value="541a"/>
      <field name="ip.checksum_bad" showname="Bad: False" size="2" pos="24" show="0" value="541a"/>
    </field>
    <field name="ip.src" showname="Source: 172.17.0.2 (172.17.0.2)" size="4" pos="26" show="172.17.0.2" value="ac110002"/>
    <field name="ip.addr" showname="Source or Destination Address: 172.17.0.2 (172.17.0.2)" hide="yes" size="4" pos="26" show="172.17.0.2" value="ac110002"/>
    <field name="ip.src_host" showname="Source Host: 172.17.0.2" hide="yes" size="4" pos="26" show="172.17.0.2" value="ac110002"/>
    <field name="ip.host" showname="Source or Destination Host: 172.17.0.2" hide="yes" size="4" pos="26" show="172.17.0.2" value="ac110002"/>
    <field name="ip.dst" showname="Destination: 1.1.1.1 (1.1.1.1)" size="4" pos="30" show="1.1.1.1" value="01010101"/>
    <field name="ip.addr" showname="Source or Destination Address: 1.1.1.1 (1.1.1.1)" hide="yes" size="4" pos="30" show="1.1.1.1" value="01010101"/>
    <field name="ip.dst_host" showname="Destination Host: 1.1.1.1" hide="yes" size="4" pos="30" show="1.1.1.1" value="01010101"/>
    <field name="ip.host" showname="Source or Destination Host: 1.1.1.1" hide="yes" size="4" pos="30" show="1.1.1.1" value="01010101"/>
  </proto>
  <proto name="tcp" showname="Transmission Control Protocol, Src Port: 59654 (59654), Dst Port: 853 (853), Seq: 338, Ack: 2810, Len: 0" size="20" pos="34">
    <field name="tcp.srcport" showname="Source port: 59654 (59654)" size="2" pos="34" show="59654" value="e906"/>
    <field name="tcp.dstport" showname="Destination port: 853 (853)" size="2" pos="36" show="853" value="0355"/>
    <field name="tcp.port" showname="Source or Destination Port: 59654" hide="yes" size="2" pos="34" show="59654" value="e906"/>
    <field name="tcp.port" showname="Source or Destination Port: 853" hide="yes" size="2" pos="36" show="853" value="0355"/>
    <field name="tcp.stream" showname="Stream index: 0" size="0" pos="34" show="0"/>
    <field name="tcp.len" showname="TCP Segment Len: 0" hide="yes" size="1" pos="46" show="0" value="50"/>
    <field name="tcp.seq" showname="Sequence number: 338    (relative sequence number)" size="4" pos="38" show="338" value="f2f15200"/>
    <field name="tcp.ack" showname="Acknowledgment number: 2810    (relative ack number)" size="4" pos="42" show="2810" value="58261f17"/>
    <field name="tcp.hdr_len" showname="Header length: 20 bytes" size="1" pos="46" show="20" value="50"/>
    <field name="tcp.flags" showname="Flags: 0x010 (ACK)" size="2" pos="46" show="16" value="10" unmaskedvalue="5010">
      <field name="tcp.flags.res" showname="000. .... .... = Reserved: Not set" size="1" pos="46" show="0" value="0" unmaskedvalue="50"/>
      <field name="tcp.flags.ns" showname="...0 .... .... = Nonce: Not set" size="1" pos="46" show="0" value="0" unmaskedvalue="50"/>
      <field name="tcp.flags.cwr" showname=".... 0... .... = Congestion Window Reduced (CWR): Not set" size="1" pos="47" show="0" value="0" unmaskedvalue="10"/>
      <field name="tcp.flags.ecn" showname=".... .0.. .... = ECN-Echo: Not set" size="1" pos="47" show="0" value="0" unmaskedvalue="10"/>
      <field name="tcp.flags.urg" showname=".... ..0. .... = Urgent: Not set" size="1" pos="47" show="0" value="0" unmaskedvalue="10"/>
      <field name="tcp.flags.ack" showname=".... ...1 .... = Acknowledgment: Set" size="1" pos="47" show="1" value="1" unmaskedvalue="10"/>
      <field name="tcp.flags.push" showname=".... .... 0... = Push: Not set" size="1" pos="47" show="0" value="0" unmaskedvalue="10"/>
      <field name="tcp.flags.reset" showname=".... .... .0.. = Reset: Not set" size="1" pos="47" show="0" value="0" unmaskedvalue="10"/>
      <field name="tcp.flags.syn" showname=".... .... ..0. = Syn: Not set" size="1" pos="47" show="0" value="0" unmaskedvalue="10"/>
      <field name="tcp.flags.fin" showname=".... .... ...0 = Fin: Not set" size="1" pos="47" show="0" value="0" unmaskedvalue="10"/>
    </field>
    <field name="tcp.window_size_value" showname="Window size value: 283" size="2" pos="48" show="283" value="011b"/>
    <field name="tcp.window_size" showname="Calculated window size: 36224" size="2" pos="48" show="36224" value="011b"/>
    <field name="tcp.window_size_scalefactor" showname="Window size scaling factor: 128" size="2" pos="48" show="128" value="011b"/>
    <field name="tcp.checksum" showname="Checksum: 0xae2f [validation disabled]" size="2" pos="50" show="44591" value="ae2f">
      <field name="tcp.checksum_good" showname="Good Checksum: False" size="2" pos="50" show="0" value="ae2f"/>
      <field name="tcp.checksum_bad" showname="Bad Checksum: False" size="2" pos="50" show="0" value="ae2f"/>
    </field>
    <field name="tcp.analysis" showname="SEQ/ACK analysis" size="0" pos="34" show="" value="">
      <field name="tcp.analysis.acks_frame" showname="This is an ACK to the segment in frame: 10" size="0" pos="34" show="10"/>
      <field name="tcp.analysis.ack_rtt" showname="The RTT to ACK the segment was: 0.000013000 seconds" size="0" pos="34" show="0.000013000"/>
    </field>
  </proto>
</packet>


<packet>
  <proto name="geninfo" pos="0" showname="General information" size="295">
    <field name="num" pos="0" show="12" showname="Number" value="c" size="295"/>
    <field name="len" pos="0" show="295" showname="Frame Length" value="127" size="295"/>
    <field name="caplen" pos="0" show="295" showname="Captured Length" value="127" size="295"/>
    <field name="timestamp" pos="0" show="Jun 27, 2019 12:20:56.996591000 CEST" showname="Captured Time" value="1561630856.996591000" size="295"/>
  </proto>
  <proto name="frame" showname="Frame 12: 295 bytes on wire (2360 bits), 295 bytes captured (2360 bits) on interface 0" size="295" pos="0">
    <field name="frame.interface_id" showname="Interface id: 0" size="0" pos="0" show="0"/>
    <field name="frame.encap_type" showname="Encapsulation type: Ethernet (1)" size="0" pos="0" show="1"/>
    <field name="frame.time" showname="Arrival Time: Jun 27, 2019 12:20:56.996591000 CEST" size="0" pos="0" show="&quot;Jun 27, 2019 12:20:56.996591000 CEST&quot;"/>
    <field name="frame.offset_shift" showname="Time shift for this packet: 0.000000000 seconds" size="0" pos="0" show="0.000000000"/>
    <field name="frame.time_epoch" showname="Epoch Time: 1561630856.996591000 seconds" size="0" pos="0" show="1561630856.996591000"/>
    <field name="frame.time_delta" showname="Time delta from previous captured frame: 0.000089000 seconds" size="0" pos="0" show="0.000089000"/>
    <field name="frame.time_delta_displayed" showname="Time delta from previous displayed frame: 0.000089000 seconds" size="0" pos="0" show="0.000089000"/>
    <field name="frame.time_relative" showname="Time since reference or first frame: 0.009529000 seconds" size="0" pos="0" show="0.009529000"/>
    <field name="frame.number" showname="Frame Number: 12" size="0" pos="0" show="12"/>
    <field name="frame.len" showname="Frame Length: 295 bytes (2360 bits)" size="0" pos="0" show="295"/>
    <field name="frame.cap_len" showname="Capture Length: 295 bytes (2360 bits)" size="0" pos="0" show="295"/>
    <field name="frame.marked" showname="Frame is marked: False" size="0" pos="0" show="0"/>
    <field name="frame.ignored" showname="Frame is ignored: False" size="0" pos="0" show="0"/>
    <field name="frame.protocols" showname="Protocols in frame: eth:ip:tcp:data" size="0" pos="0" show="eth:ip:tcp:data"/>
  </proto>
  <proto name="eth" showname="Ethernet II, Src: 02:42:71:12:56:af (02:42:71:12:56:af), Dst: 02:42:ac:11:00:02 (02:42:ac:11:00:02)" size="14" pos="0">
    <field name="eth.dst" showname="Destination: 02:42:ac:11:00:02 (02:42:ac:11:00:02)" size="6" pos="0" show="02:42:ac:11:00:02" value="0242ac110002">
      <field name="eth.addr" showname="Address: 02:42:ac:11:00:02 (02:42:ac:11:00:02)" size="6" pos="0" show="02:42:ac:11:00:02" value="0242ac110002"/>
      <field name="eth.lg" showname=".... ..1. .... .... .... .... = LG bit: Locally administered address (this is NOT the factory default)" size="3" pos="0" show="1" value="1" unmaskedvalue="0242ac"/>
      <field name="eth.ig" showname=".... ...0 .... .... .... .... = IG bit: Individual address (unicast)" size="3" pos="0" show="0" value="0" unmaskedvalue="0242ac"/>
    </field>
    <field name="eth.src" showname="Source: 02:42:71:12:56:af (02:42:71:12:56:af)" size="6" pos="6" show="02:42:71:12:56:af" value="0242711256af">
      <field name="eth.addr" showname="Address: 02:42:71:12:56:af (02:42:71:12:56:af)" size="6" pos="6" show="02:42:71:12:56:af" value="0242711256af"/>
      <field name="eth.lg" showname=".... ..1. .... .... .... .... = LG bit: Locally administered address (this is NOT the factory default)" size="3" pos="6" show="1" value="1" unmaskedvalue="024271"/>
      <field name="eth.ig" showname=".... ...0 .... .... .... .... = IG bit: Individual address (unicast)" size="3" pos="6" show="0" value="0" unmaskedvalue="024271"/>
    </field>
    <field name="eth.type" showname="Type: IP (0x0800)" size="2" pos="12" show="2048" value="0800"/>
  </proto>
  <proto name="ip" showname="Internet Protocol Version 4, Src: 1.1.1.1 (1.1.1.1), Dst: 172.17.0.2 (172.17.0.2)" size="20" pos="14">
    <field name="ip.version" showname="Version: 4" size="1" pos="14" show="4" value="45"/>
    <field name="ip.hdr_len" showname="Header length: 20 bytes" size="1" pos="14" show="20" value="45"/>
    <field name="ip.dsfield" showname="Differentiated Services Field: 0x00 (DSCP 0x00: Default; ECN: 0x00: Not-ECT (Not ECN-Capable Transport))" size="1" pos="15" show="0" value="00">
      <field name="ip.dsfield.dscp" showname="0000 00.. = Differentiated Services Codepoint: Default (0x00)" size="1" pos="15" show="0" value="0" unmaskedvalue="00"/>
      <field name="ip.dsfield.ecn" showname=".... ..00 = Explicit Congestion Notification: Not-ECT (Not ECN-Capable Transport) (0x00)" size="1" pos="15" show="0" value="0" unmaskedvalue="00"/>
    </field>
    <field name="ip.len" showname="Total Length: 281" size="2" pos="16" show="281" value="0119"/>
    <field name="ip.id" showname="Identification: 0xf82f (63535)" size="2" pos="18" show="63535" value="f82f"/>
    <field name="ip.flags" showname="Flags: 0x02 (Don&apos;t Fragment)" size="1" pos="20" show="2" value="40">
      <field name="ip.flags.rb" showname="0... .... = Reserved bit: Not set" size="1" pos="20" show="0" value="40"/>
      <field name="ip.flags.df" showname=".1.. .... = Don&apos;t fragment: Set" size="1" pos="20" show="1" value="40"/>
      <field name="ip.flags.mf" showname="..0. .... = More fragments: Not set" size="1" pos="20" show="0" value="40"/>
    </field>
    <field name="ip.frag_offset" showname="Fragment offset: 0" size="2" pos="20" show="0" value="4000"/>
    <field name="ip.ttl" showname="Time to live: 57" size="1" pos="22" show="57" value="39"/>
    <field name="ip.proto" showname="Protocol: TCP (6)" size="1" pos="23" show="6" value="06"/>
    <field name="ip.checksum" showname="Header checksum: 0x9a9a [validation disabled]" size="2" pos="24" show="39578" value="9a9a">
      <field name="ip.checksum_good" showname="Good: False" size="2" pos="24" show="0" value="9a9a"/>
      <field name="ip.checksum_bad" showname="Bad: False" size="2" pos="24" show="0" value="9a9a"/>
    </field>
    <field name="ip.src" showname="Source: 1.1.1.1 (1.1.1.1)" size="4" pos="26" show="1.1.1.1" value="01010101"/>
    <field name="ip.addr" showname="Source or Destination Address: 1.1.1.1 (1.1.1.1)" hide="yes" size="4" pos="26" show="1.1.1.1" value="01010101"/>
    <field name="ip.src_host" showname="Source Host: 1.1.1.1" hide="yes" size="4" pos="26" show="1.1.1.1" value="01010101"/>
    <field name="ip.host" showname="Source or Destination Host: 1.1.1.1" hide="yes" size="4" pos="26" show="1.1.1.1" value="01010101"/>
    <field name="ip.dst" showname="Destination: 172.17.0.2 (172.17.0.2)" size="4" pos="30" show="172.17.0.2" value="ac110002"/>
    <field name="ip.addr" showname="Source or Destination Address: 172.17.0.2 (172.17.0.2)" hide="yes" size="4" pos="30" show="172.17.0.2" value="ac110002"/>
    <field name="ip.dst_host" showname="Destination Host: 172.17.0.2" hide="yes" size="4" pos="30" show="172.17.0.2" value="ac110002"/>
    <field name="ip.host" showname="Source or Destination Host: 172.17.0.2" hide="yes" size="4" pos="30" show="172.17.0.2" value="ac110002"/>
  </proto>
  <proto name="tcp" showname="Transmission Control Protocol, Src Port: 853 (853), Dst Port: 59654 (59654), Seq: 2810, Ack: 338, Len: 241" size="20" pos="34">
    <field name="tcp.srcport" showname="Source port: 853 (853)" size="2" pos="34" show="853" value="0355"/>
    <field name="tcp.dstport" showname="Destination port: 59654 (59654)" size="2" pos="36" show="59654" value="e906"/>
    <field name="tcp.port" showname="Source or Destination Port: 853" hide="yes" size="2" pos="34" show="853" value="0355"/>
    <field name="tcp.port" showname="Source or Destination Port: 59654" hide="yes" size="2" pos="36" show="59654" value="e906"/>
    <field name="tcp.stream" showname="Stream index: 0" size="0" pos="34" show="0"/>
    <field name="tcp.len" showname="TCP Segment Len: 241" hide="yes" size="1" pos="46" show="241" value="50"/>
    <field name="tcp.seq" showname="Sequence number: 2810    (relative sequence number)" size="4" pos="38" show="2810" value="58261f17"/>
    <field name="tcp.nxtseq" showname="Next sequence number: 3051    (relative sequence number)" size="0" pos="34" show="3051"/>
    <field name="tcp.ack" showname="Acknowledgment number: 338    (relative ack number)" size="4" pos="42" show="338" value="f2f15200"/>
    <field name="tcp.hdr_len" showname="Header length: 20 bytes" size="1" pos="46" show="20" value="50"/>
    <field name="tcp.flags" showname="Flags: 0x018 (PSH, ACK)" size="2" pos="46" show="24" value="18" unmaskedvalue="5018">
      <field name="tcp.flags.res" showname="000. .... .... = Reserved: Not set" size="1" pos="46" show="0" value="0" unmaskedvalue="50"/>
      <field name="tcp.flags.ns" showname="...0 .... .... = Nonce: Not set" size="1" pos="46" show="0" value="0" unmaskedvalue="50"/>
      <field name="tcp.flags.cwr" showname=".... 0... .... = Congestion Window Reduced (CWR): Not set" size="1" pos="47" show="0" value="0" unmaskedvalue="18"/>
      <field name="tcp.flags.ecn" showname=".... .0.. .... = ECN-Echo: Not set" size="1" pos="47" show="0" value="0" unmaskedvalue="18"/>
      <field name="tcp.flags.urg" showname=".... ..0. .... = Urgent: Not set" size="1" pos="47" show="0" value="0" unmaskedvalue="18"/>
      <field name="tcp.flags.ack" showname=".... ...1 .... = Acknowledgment: Set" size="1" pos="47" show="1" value="1" unmaskedvalue="18"/>
      <field name="tcp.flags.push" showname=".... .... 1... = Push: Set" size="1" pos="47" show="1" value="1" unmaskedvalue="18"/>
      <field name="tcp.flags.reset" showname=".... .... .0.. = Reset: Not set" size="1" pos="47" show="0" value="0" unmaskedvalue="18"/>
      <field name="tcp.flags.syn" showname=".... .... ..0. = Syn: Not set" size="1" pos="47" show="0" value="0" unmaskedvalue="18"/>
      <field name="tcp.flags.fin" showname=".... .... ...0 = Fin: Not set" size="1" pos="47" show="0" value="0" unmaskedvalue="18"/>
    </field>
    <field name="tcp.window_size_value" showname="Window size value: 30" size="2" pos="48" show="30" value="001e"/>
    <field name="tcp.window_size" showname="Calculated window size: 30720" size="2" pos="48" show="30720" value="001e"/>
    <field name="tcp.window_size_scalefactor" showname="Window size scaling factor: 1024" size="2" pos="48" show="1024" value="001e"/>
    <field name="tcp.checksum" showname="Checksum: 0x42af [validation disabled]" size="2" pos="50" show="17071" value="42af">
      <field name="tcp.checksum_good" showname="Good Checksum: False" size="2" pos="50" show="0" value="42af"/>
      <field name="tcp.checksum_bad" showname="Bad Checksum: False" size="2" pos="50" show="0" value="42af"/>
    </field>
    <field name="tcp.analysis" showname="SEQ/ACK analysis" size="0" pos="34" show="" value="">
      <field name="tcp.analysis.bytes_in_flight" showname="Bytes in flight: 241" size="0" pos="34" show="241"/>
    </field>
  </proto>
  <proto name="fake-field-wrapper">
    <field name="data" value="17030300ec9dd536f9f1d9a26dd6135b378baa2b0243feadd604eb762c1c894e6b426444b0e5d865ecfc0d0fdee2ec0f31e1c4ba6c8c9c8f48168ae1c911e38b3b021fc53177ecfc889c59da93878d2c8920a02523eb0fc33cdd129c6daaf9f141c65b142d7c1041513fd250eeb5381a97289322ad8a001b11ff40fa5c2108725ea802387d32497fed95cf56e5bfbdb84057152ab63cfd9316f683b9ce36f58a269014c10f90fe65cbdb6a90bd783e7271e4593c63dc22a5afcfe50612450be66e21d2c19fea61862e5bf06fea5a0a1b888b2f5dc171f1f059c70b546bb72e6ce6de043f23d88b5a99298bd58934a89a88">
      <field name="data.data" showname="Data: 17030300ec9dd536f9f1d9a26dd6135b378baa2b0243fead..." size="241" pos="54" show="17:03:03:00:ec:9d:d5:36:f9:f1:d9:a2:6d:d6:13:5b:37:8b:aa:2b:02:43:fe:ad:d6:04:eb:76:2c:1c:89:4e:6b:42:64:44:b0:e5:d8:65:ec:fc:0d:0f:de:e2:ec:0f:31:e1:c4:ba:6c:8c:9c:8f:48:16:8a:e1:c9:11:e3:8b:3b:02:1f:c5:31:77:ec:fc:88:9c:59:da:93:87:8d:2c:89:20:a0:25:23:eb:0f:c3:3c:dd:12:9c:6d:aa:f9:f1:41:c6:5b:14:2d:7c:10:41:51:3f:d2:50:ee:b5:38:1a:97:28:93:22:ad:8a:00:1b:11:ff:40:fa:5c:21:08:72:5e:a8:02:38:7d:32:49:7f:ed:95:cf:56:e5:bf:bd:b8:40:57:15:2a:b6:3c:fd:93:16:f6:83:b9:ce:36:f5:8a:26:90:14:c1:0f:90:fe:65:cb:db:6a:90:bd:78:3e:72:71:e4:59:3c:63:dc:22:a5:af:cf:e5:06:12:45:0b:e6:6e:21:d2:c1:9f:ea:61:86:2e:5b:f0:6f:ea:5a:0a:1b:88:8b:2f:5d:c1:71:f1:f0:59:c7:0b:54:6b:b7:2e:6c:e6:de:04:3f:23:d8:8b:5a:99:29:8b:d5:89:34:a8:9a:88" value="17030300ec9dd536f9f1d9a26dd6135b378baa2b0243feadd604eb762c1c894e6b426444b0e5d865ecfc0d0fdee2ec0f31e1c4ba6c8c9c8f48168ae1c911e38b3b021fc53177ecfc889c59da93878d2c8920a02523eb0fc33cdd129c6daaf9f141c65b142d7c1041513fd250eeb5381a97289322ad8a001b11ff40fa5c2108725ea802387d32497fed95cf56e5bfbdb84057152ab63cfd9316f683b9ce36f58a269014c10f90fe65cbdb6a90bd783e7271e4593c63dc22a5afcfe50612450be66e21d2c19fea61862e5bf06fea5a0a1b888b2f5dc171f1f059c70b546bb72e6ce6de043f23d88b5a99298bd58934a89a88"/>
      <field name="data.len" showname="Length: 241" size="0" pos="54" show="241"/>
  </field>
</proto>
</packet>


<packet>
  <proto name="geninfo" pos="0" showname="General information" size="54">
    <field name="num" pos="0" show="13" showname="Number" value="d" size="54"/>
    <field name="len" pos="0" show="54" showname="Frame Length" value="36" size="54"/>
    <field name="caplen" pos="0" show="54" showname="Captured Length" value="36" size="54"/>
    <field name="timestamp" pos="0" show="Jun 27, 2019 12:20:56.996603000 CEST" showname="Captured Time" value="1561630856.996603000" size="54"/>
  </proto>
  <proto name="frame" showname="Frame 13: 54 bytes on wire (432 bits), 54 bytes captured (432 bits) on interface 0" size="54" pos="0">
    <field name="frame.interface_id" showname="Interface id: 0" size="0" pos="0" show="0"/>
    <field name="frame.encap_type" showname="Encapsulation type: Ethernet (1)" size="0" pos="0" show="1"/>
    <field name="frame.time" showname="Arrival Time: Jun 27, 2019 12:20:56.996603000 CEST" size="0" pos="0" show="&quot;Jun 27, 2019 12:20:56.996603000 CEST&quot;"/>
    <field name="frame.offset_shift" showname="Time shift for this packet: 0.000000000 seconds" size="0" pos="0" show="0.000000000"/>
    <field name="frame.time_epoch" showname="Epoch Time: 1561630856.996603000 seconds" size="0" pos="0" show="1561630856.996603000"/>
    <field name="frame.time_delta" showname="Time delta from previous captured frame: 0.000012000 seconds" size="0" pos="0" show="0.000012000"/>
    <field name="frame.time_delta_displayed" showname="Time delta from previous displayed frame: 0.000012000 seconds" size="0" pos="0" show="0.000012000"/>
    <field name="frame.time_relative" showname="Time since reference or first frame: 0.009541000 seconds" size="0" pos="0" show="0.009541000"/>
    <field name="frame.number" showname="Frame Number: 13" size="0" pos="0" show="13"/>
    <field name="frame.len" showname="Frame Length: 54 bytes (432 bits)" size="0" pos="0" show="54"/>
    <field name="frame.cap_len" showname="Capture Length: 54 bytes (432 bits)" size="0" pos="0" show="54"/>
    <field name="frame.marked" showname="Frame is marked: False" size="0" pos="0" show="0"/>
    <field name="frame.ignored" showname="Frame is ignored: False" size="0" pos="0" show="0"/>
    <field name="frame.protocols" showname="Protocols in frame: eth:ip:tcp" size="0" pos="0" show="eth:ip:tcp"/>
  </proto>
  <proto name="eth" showname="Ethernet II, Src: 02:42:ac:11:00:02 (02:42:ac:11:00:02), Dst: 02:42:71:12:56:af (02:42:71:12:56:af)" size="14" pos="0">
    <field name="eth.dst" showname="Destination: 02:42:71:12:56:af (02:42:71:12:56:af)" size="6" pos="0" show="02:42:71:12:56:af" value="0242711256af">
      <field name="eth.addr" showname="Address: 02:42:71:12:56:af (02:42:71:12:56:af)" size="6" pos="0" show="02:42:71:12:56:af" value="0242711256af"/>
      <field name="eth.lg" showname=".... ..1. .... .... .... .... = LG bit: Locally administered address (this is NOT the factory default)" size="3" pos="0" show="1" value="1" unmaskedvalue="024271"/>
      <field name="eth.ig" showname=".... ...0 .... .... .... .... = IG bit: Individual address (unicast)" size="3" pos="0" show="0" value="0" unmaskedvalue="024271"/>
    </field>
    <field name="eth.src" showname="Source: 02:42:ac:11:00:02 (02:42:ac:11:00:02)" size="6" pos="6" show="02:42:ac:11:00:02" value="0242ac110002">
      <field name="eth.addr" showname="Address: 02:42:ac:11:00:02 (02:42:ac:11:00:02)" size="6" pos="6" show="02:42:ac:11:00:02" value="0242ac110002"/>
      <field name="eth.lg" showname=".... ..1. .... .... .... .... = LG bit: Locally administered address (this is NOT the factory default)" size="3" pos="6" show="1" value="1" unmaskedvalue="0242ac"/>
      <field name="eth.ig" showname=".... ...0 .... .... .... .... = IG bit: Individual address (unicast)" size="3" pos="6" show="0" value="0" unmaskedvalue="0242ac"/>
    </field>
    <field name="eth.type" showname="Type: IP (0x0800)" size="2" pos="12" show="2048" value="0800"/>
  </proto>
  <proto name="ip" showname="Internet Protocol Version 4, Src: 172.17.0.2 (172.17.0.2), Dst: 1.1.1.1 (1.1.1.1)" size="20" pos="14">
    <field name="ip.version" showname="Version: 4" size="1" pos="14" show="4" value="45"/>
    <field name="ip.hdr_len" showname="Header length: 20 bytes" size="1" pos="14" show="20" value="45"/>
    <field name="ip.dsfield" showname="Differentiated Services Field: 0x00 (DSCP 0x00: Default; ECN: 0x00: Not-ECT (Not ECN-Capable Transport))" size="1" pos="15" show="0" value="00">
      <field name="ip.dsfield.dscp" showname="0000 00.. = Differentiated Services Codepoint: Default (0x00)" size="1" pos="15" show="0" value="0" unmaskedvalue="00"/>
      <field name="ip.dsfield.ecn" showname=".... ..00 = Explicit Congestion Notification: Not-ECT (Not ECN-Capable Transport) (0x00)" size="1" pos="15" show="0" value="0" unmaskedvalue="00"/>
    </field>
    <field name="ip.len" showname="Total Length: 40" size="2" pos="16" show="40" value="0028"/>
    <field name="ip.id" showname="Identification: 0x38a2 (14498)" size="2" pos="18" show="14498" value="38a2"/>
    <field name="ip.flags" showname="Flags: 0x02 (Don&apos;t Fragment)" size="1" pos="20" show="2" value="40">
      <field name="ip.flags.rb" showname="0... .... = Reserved bit: Not set" size="1" pos="20" show="0" value="40"/>
      <field name="ip.flags.df" showname=".1.. .... = Don&apos;t fragment: Set" size="1" pos="20" show="1" value="40"/>
      <field name="ip.flags.mf" showname="..0. .... = More fragments: Not set" size="1" pos="20" show="0" value="40"/>
    </field>
    <field name="ip.frag_offset" showname="Fragment offset: 0" size="2" pos="20" show="0" value="4000"/>
    <field name="ip.ttl" showname="Time to live: 64" size="1" pos="22" show="64" value="40"/>
    <field name="ip.proto" showname="Protocol: TCP (6)" size="1" pos="23" show="6" value="06"/>
    <field name="ip.checksum" showname="Header checksum: 0x5419 [validation disabled]" size="2" pos="24" show="21529" value="5419">
      <field name="ip.checksum_good" showname="Good: False" size="2" pos="24" show="0" value="5419"/>
      <field name="ip.checksum_bad" showname="Bad: False" size="2" pos="24" show="0" value="5419"/>
    </field>
    <field name="ip.src" showname="Source: 172.17.0.2 (172.17.0.2)" size="4" pos="26" show="172.17.0.2" value="ac110002"/>
    <field name="ip.addr" showname="Source or Destination Address: 172.17.0.2 (172.17.0.2)" hide="yes" size="4" pos="26" show="172.17.0.2" value="ac110002"/>
    <field name="ip.src_host" showname="Source Host: 172.17.0.2" hide="yes" size="4" pos="26" show="172.17.0.2" value="ac110002"/>
    <field name="ip.host" showname="Source or Destination Host: 172.17.0.2" hide="yes" size="4" pos="26" show="172.17.0.2" value="ac110002"/>
    <field name="ip.dst" showname="Destination: 1.1.1.1 (1.1.1.1)" size="4" pos="30" show="1.1.1.1" value="01010101"/>
    <field name="ip.addr" showname="Source or Destination Address: 1.1.1.1 (1.1.1.1)" hide="yes" size="4" pos="30" show="1.1.1.1" value="01010101"/>
    <field name="ip.dst_host" showname="Destination Host: 1.1.1.1" hide="yes" size="4" pos="30" show="1.1.1.1" value="01010101"/>
    <field name="ip.host" showname="Source or Destination Host: 1.1.1.1" hide="yes" size="4" pos="30" show="1.1.1.1" value="01010101"/>
  </proto>
  <proto name="tcp" showname="Transmission Control Protocol, Src Port: 59654 (59654), Dst Port: 853 (853), Seq: 338, Ack: 3051, Len: 0" size="20" pos="34">
    <field name="tcp.srcport" showname="Source port: 59654 (59654)" size="2" pos="34" show="59654" value="e906"/>
    <field name="tcp.dstport" showname="Destination port: 853 (853)" size="2" pos="36" show="853" value="0355"/>
    <field name="tcp.port" showname="Source or Destination Port: 59654" hide="yes" size="2" pos="34" show="59654" value="e906"/>
    <field name="tcp.port" showname="Source or Destination Port: 853" hide="yes" size="2" pos="36" show="853" value="0355"/>
    <field name="tcp.stream" showname="Stream index: 0" size="0" pos="34" show="0"/>
    <field name="tcp.len" showname="TCP Segment Len: 0" hide="yes" size="1" pos="46" show="0" value="50"/>
    <field name="tcp.seq" showname="Sequence number: 338    (relative sequence number)" size="4" pos="38" show="338" value="f2f15200"/>
    <field name="tcp.ack" showname="Acknowledgment number: 3051    (relative ack number)" size="4" pos="42" show="3051" value="58262008"/>
    <field name="tcp.hdr_len" showname="Header length: 20 bytes" size="1" pos="46" show="20" value="50"/>
    <field name="tcp.flags" showname="Flags: 0x010 (ACK)" size="2" pos="46" show="16" value="10" unmaskedvalue="5010">
      <field name="tcp.flags.res" showname="000. .... .... = Reserved: Not set" size="1" pos="46" show="0" value="0" unmaskedvalue="50"/>
      <field name="tcp.flags.ns" showname="...0 .... .... = Nonce: Not set" size="1" pos="46" show="0" value="0" unmaskedvalue="50"/>
      <field name="tcp.flags.cwr" showname=".... 0... .... = Congestion Window Reduced (CWR): Not set" size="1" pos="47" show="0" value="0" unmaskedvalue="10"/>
      <field name="tcp.flags.ecn" showname=".... .0.. .... = ECN-Echo: Not set" size="1" pos="47" show="0" value="0" unmaskedvalue="10"/>
      <field name="tcp.flags.urg" showname=".... ..0. .... = Urgent: Not set" size="1" pos="47" show="0" value="0" unmaskedvalue="10"/>
      <field name="tcp.flags.ack" showname=".... ...1 .... = Acknowledgment: Set" size="1" pos="47" show="1" value="1" unmaskedvalue="10"/>
      <field name="tcp.flags.push" showname=".... .... 0... = Push: Not set" size="1" pos="47" show="0" value="0" unmaskedvalue="10"/>
      <field name="tcp.flags.reset" showname=".... .... .0.. = Reset: Not set" size="1" pos="47" show="0" value="0" unmaskedvalue="10"/>
      <field name="tcp.flags.syn" showname=".... .... ..0. = Syn: Not set" size="1" pos="47" show="0" value="0" unmaskedvalue="10"/>
      <field name="tcp.flags.fin" showname=".... .... ...0 = Fin: Not set" size="1" pos="47" show="0" value="0" unmaskedvalue="10"/>
    </field>
    <field name="tcp.window_size_value" showname="Window size value: 305" size="2" pos="48" show="305" value="0131"/>
    <field name="tcp.window_size" showname="Calculated window size: 39040" size="2" pos="48" show="39040" value="0131"/>
    <field name="tcp.window_size_scalefactor" showname="Window size scaling factor: 128" size="2" pos="48" show="128" value="0131"/>
    <field name="tcp.checksum" showname="Checksum: 0xae2f [validation disabled]" size="2" pos="50" show="44591" value="ae2f">
      <field name="tcp.checksum_good" showname="Good Checksum: False" size="2" pos="50" show="0" value="ae2f"/>
      <field name="tcp.checksum_bad" showname="Bad Checksum: False" size="2" pos="50" show="0" value="ae2f"/>
    </field>
    <field name="tcp.analysis" showname="SEQ/ACK analysis" size="0" pos="34" show="" value="">
      <field name="tcp.analysis.acks_frame" showname="This is an ACK to the segment in frame: 12" size="0" pos="34" show="12"/>
      <field name="tcp.analysis.ack_rtt" showname="The RTT to ACK the segment was: 0.000012000 seconds" size="0" pos="34" show="0.000012000"/>
    </field>
  </proto>
</packet>


<packet>
  <proto name="geninfo" pos="0" showname="General information" size="60">
    <field name="num" pos="0" show="14" showname="Number" value="e" size="60"/>
    <field name="len" pos="0" show="60" showname="Frame Length" value="3c" size="60"/>
    <field name="caplen" pos="0" show="60" showname="Captured Length" value="3c" size="60"/>
    <field name="timestamp" pos="0" show="Jun 27, 2019 12:20:56.996908000 CEST" showname="Captured Time" value="1561630856.996908000" size="60"/>
  </proto>
  <proto name="frame" showname="Frame 14: 60 bytes on wire (480 bits), 60 bytes captured (480 bits) on interface 0" size="60" pos="0">
    <field name="frame.interface_id" showname="Interface id: 0" size="0" pos="0" show="0"/>
    <field name="frame.encap_type" showname="Encapsulation type: Ethernet (1)" size="0" pos="0" show="1"/>
    <field name="frame.time" showname="Arrival Time: Jun 27, 2019 12:20:56.996908000 CEST" size="0" pos="0" show="&quot;Jun 27, 2019 12:20:56.996908000 CEST&quot;"/>
    <field name="frame.offset_shift" showname="Time shift for this packet: 0.000000000 seconds" size="0" pos="0" show="0.000000000"/>
    <field name="frame.time_epoch" showname="Epoch Time: 1561630856.996908000 seconds" size="0" pos="0" show="1561630856.996908000"/>
    <field name="frame.time_delta" showname="Time delta from previous captured frame: 0.000305000 seconds" size="0" pos="0" show="0.000305000"/>
    <field name="frame.time_delta_displayed" showname="Time delta from previous displayed frame: 0.000305000 seconds" size="0" pos="0" show="0.000305000"/>
    <field name="frame.time_relative" showname="Time since reference or first frame: 0.009846000 seconds" size="0" pos="0" show="0.009846000"/>
    <field name="frame.number" showname="Frame Number: 14" size="0" pos="0" show="14"/>
    <field name="frame.len" showname="Frame Length: 60 bytes (480 bits)" size="0" pos="0" show="60"/>
    <field name="frame.cap_len" showname="Capture Length: 60 bytes (480 bits)" size="0" pos="0" show="60"/>
    <field name="frame.marked" showname="Frame is marked: False" size="0" pos="0" show="0"/>
    <field name="frame.ignored" showname="Frame is ignored: False" size="0" pos="0" show="0"/>
    <field name="frame.protocols" showname="Protocols in frame: eth:ip:tcp:data" size="0" pos="0" show="eth:ip:tcp:data"/>
  </proto>
  <proto name="eth" showname="Ethernet II, Src: 02:42:ac:11:00:02 (02:42:ac:11:00:02), Dst: 02:42:71:12:56:af (02:42:71:12:56:af)" size="14" pos="0">
    <field name="eth.dst" showname="Destination: 02:42:71:12:56:af (02:42:71:12:56:af)" size="6" pos="0" show="02:42:71:12:56:af" value="0242711256af">
      <field name="eth.addr" showname="Address: 02:42:71:12:56:af (02:42:71:12:56:af)" size="6" pos="0" show="02:42:71:12:56:af" value="0242711256af"/>
      <field name="eth.lg" showname=".... ..1. .... .... .... .... = LG bit: Locally administered address (this is NOT the factory default)" size="3" pos="0" show="1" value="1" unmaskedvalue="024271"/>
      <field name="eth.ig" showname=".... ...0 .... .... .... .... = IG bit: Individual address (unicast)" size="3" pos="0" show="0" value="0" unmaskedvalue="024271"/>
    </field>
    <field name="eth.src" showname="Source: 02:42:ac:11:00:02 (02:42:ac:11:00:02)" size="6" pos="6" show="02:42:ac:11:00:02" value="0242ac110002">
      <field name="eth.addr" showname="Address: 02:42:ac:11:00:02 (02:42:ac:11:00:02)" size="6" pos="6" show="02:42:ac:11:00:02" value="0242ac110002"/>
      <field name="eth.lg" showname=".... ..1. .... .... .... .... = LG bit: Locally administered address (this is NOT the factory default)" size="3" pos="6" show="1" value="1" unmaskedvalue="0242ac"/>
      <field name="eth.ig" showname=".... ...0 .... .... .... .... = IG bit: Individual address (unicast)" size="3" pos="6" show="0" value="0" unmaskedvalue="0242ac"/>
    </field>
    <field name="eth.type" showname="Type: IP (0x0800)" size="2" pos="12" show="2048" value="0800"/>
  </proto>
  <proto name="ip" showname="Internet Protocol Version 4, Src: 172.17.0.2 (172.17.0.2), Dst: 1.1.1.1 (1.1.1.1)" size="20" pos="14">
    <field name="ip.version" showname="Version: 4" size="1" pos="14" show="4" value="45"/>
    <field name="ip.hdr_len" showname="Header length: 20 bytes" size="1" pos="14" show="20" value="45"/>
    <field name="ip.dsfield" showname="Differentiated Services Field: 0x00 (DSCP 0x00: Default; ECN: 0x00: Not-ECT (Not ECN-Capable Transport))" size="1" pos="15" show="0" value="00">
      <field name="ip.dsfield.dscp" showname="0000 00.. = Differentiated Services Codepoint: Default (0x00)" size="1" pos="15" show="0" value="0" unmaskedvalue="00"/>
      <field name="ip.dsfield.ecn" showname=".... ..00 = Explicit Congestion Notification: Not-ECT (Not ECN-Capable Transport) (0x00)" size="1" pos="15" show="0" value="0" unmaskedvalue="00"/>
    </field>
    <field name="ip.len" showname="Total Length: 46" size="2" pos="16" show="46" value="002e"/>
    <field name="ip.id" showname="Identification: 0x38a3 (14499)" size="2" pos="18" show="14499" value="38a3"/>
    <field name="ip.flags" showname="Flags: 0x02 (Don&apos;t Fragment)" size="1" pos="20" show="2" value="40">
      <field name="ip.flags.rb" showname="0... .... = Reserved bit: Not set" size="1" pos="20" show="0" value="40"/>
      <field name="ip.flags.df" showname=".1.. .... = Don&apos;t fragment: Set" size="1" pos="20" show="1" value="40"/>
      <field name="ip.flags.mf" showname="..0. .... = More fragments: Not set" size="1" pos="20" show="0" value="40"/>
    </field>
    <field name="ip.frag_offset" showname="Fragment offset: 0" size="2" pos="20" show="0" value="4000"/>
    <field name="ip.ttl" showname="Time to live: 64" size="1" pos="22" show="64" value="40"/>
    <field name="ip.proto" showname="Protocol: TCP (6)" size="1" pos="23" show="6" value="06"/>
    <field name="ip.checksum" showname="Header checksum: 0x5412 [validation disabled]" size="2" pos="24" show="21522" value="5412">
      <field name="ip.checksum_good" showname="Good: False" size="2" pos="24" show="0" value="5412"/>
      <field name="ip.checksum_bad" showname="Bad: False" size="2" pos="24" show="0" value="5412"/>
    </field>
    <field name="ip.src" showname="Source: 172.17.0.2 (172.17.0.2)" size="4" pos="26" show="172.17.0.2" value="ac110002"/>
    <field name="ip.addr" showname="Source or Destination Address: 172.17.0.2 (172.17.0.2)" hide="yes" size="4" pos="26" show="172.17.0.2" value="ac110002"/>
    <field name="ip.src_host" showname="Source Host: 172.17.0.2" hide="yes" size="4" pos="26" show="172.17.0.2" value="ac110002"/>
    <field name="ip.host" showname="Source or Destination Host: 172.17.0.2" hide="yes" size="4" pos="26" show="172.17.0.2" value="ac110002"/>
    <field name="ip.dst" showname="Destination: 1.1.1.1 (1.1.1.1)" size="4" pos="30" show="1.1.1.1" value="01010101"/>
    <field name="ip.addr" showname="Source or Destination Address: 1.1.1.1 (1.1.1.1)" hide="yes" size="4" pos="30" show="1.1.1.1" value="01010101"/>
    <field name="ip.dst_host" showname="Destination Host: 1.1.1.1" hide="yes" size="4" pos="30" show="1.1.1.1" value="01010101"/>
    <field name="ip.host" showname="Source or Destination Host: 1.1.1.1" hide="yes" size="4" pos="30" show="1.1.1.1" value="01010101"/>
  </proto>
  <proto name="tcp" showname="Transmission Control Protocol, Src Port: 59654 (59654), Dst Port: 853 (853), Seq: 338, Ack: 3051, Len: 6" size="20" pos="34">
    <field name="tcp.srcport" showname="Source port: 59654 (59654)" size="2" pos="34" show="59654" value="e906"/>
    <field name="tcp.dstport" showname="Destination port: 853 (853)" size="2" pos="36" show="853" value="0355"/>
    <field name="tcp.port" showname="Source or Destination Port: 59654" hide="yes" size="2" pos="34" show="59654" value="e906"/>
    <field name="tcp.port" showname="Source or Destination Port: 853" hide="yes" size="2" pos="36" show="853" value="0355"/>
    <field name="tcp.stream" showname="Stream index: 0" size="0" pos="34" show="0"/>
    <field name="tcp.len" showname="TCP Segment Len: 6" hide="yes" size="1" pos="46" show="6" value="50"/>
    <field name="tcp.seq" showname="Sequence number: 338    (relative sequence number)" size="4" pos="38" show="338" value="f2f15200"/>
    <field name="tcp.nxtseq" showname="Next sequence number: 344    (relative sequence number)" size="0" pos="34" show="344"/>
    <field name="tcp.ack" showname="Acknowledgment number: 3051    (relative ack number)" size="4" pos="42" show="3051" value="58262008"/>
    <field name="tcp.hdr_len" showname="Header length: 20 bytes" size="1" pos="46" show="20" value="50"/>
    <field name="tcp.flags" showname="Flags: 0x018 (PSH, ACK)" size="2" pos="46" show="24" value="18" unmaskedvalue="5018">
      <field name="tcp.flags.res" showname="000. .... .... = Reserved: Not set" size="1" pos="46" show="0" value="0" unmaskedvalue="50"/>
      <field name="tcp.flags.ns" showname="...0 .... .... = Nonce: Not set" size="1" pos="46" show="0" value="0" unmaskedvalue="50"/>
      <field name="tcp.flags.cwr" showname=".... 0... .... = Congestion Window Reduced (CWR): Not set" size="1" pos="47" show="0" value="0" unmaskedvalue="18"/>
      <field name="tcp.flags.ecn" showname=".... .0.. .... = ECN-Echo: Not set" size="1" pos="47" show="0" value="0" unmaskedvalue="18"/>
      <field name="tcp.flags.urg" showname=".... ..0. .... = Urgent: Not set" size="1" pos="47" show="0" value="0" unmaskedvalue="18"/>
      <field name="tcp.flags.ack" showname=".... ...1 .... = Acknowledgment: Set" size="1" pos="47" show="1" value="1" unmaskedvalue="18"/>
      <field name="tcp.flags.push" showname=".... .... 1... = Push: Set" size="1" pos="47" show="1" value="1" unmaskedvalue="18"/>
      <field name="tcp.flags.reset" showname=".... .... .0.. = Reset: Not set" size="1" pos="47" show="0" value="0" unmaskedvalue="18"/>
      <field name="tcp.flags.syn" showname=".... .... ..0. = Syn: Not set" size="1" pos="47" show="0" value="0" unmaskedvalue="18"/>
      <field name="tcp.flags.fin" showname=".... .... ...0 = Fin: Not set" size="1" pos="47" show="0" value="0" unmaskedvalue="18"/>
    </field>
    <field name="tcp.window_size_value" showname="Window size value: 305" size="2" pos="48" show="305" value="0131"/>
    <field name="tcp.window_size" showname="Calculated window size: 39040" size="2" pos="48" show="39040" value="0131"/>
    <field name="tcp.window_size_scalefactor" showname="Window size scaling factor: 128" size="2" pos="48" show="128" value="0131"/>
    <field name="tcp.checksum" showname="Checksum: 0xae35 [validation disabled]" size="2" pos="50" show="44597" value="ae35">
      <field name="tcp.checksum_good" showname="Good Checksum: False" size="2" pos="50" show="0" value="ae35"/>
      <field name="tcp.checksum_bad" showname="Bad Checksum: False" size="2" pos="50" show="0" value="ae35"/>
    </field>
    <field name="tcp.analysis" showname="SEQ/ACK analysis" size="0" pos="34" show="" value="">
      <field name="tcp.analysis.bytes_in_flight" showname="Bytes in flight: 6" size="0" pos="34" show="6"/>
    </field>
  </proto>
  <proto name="fake-field-wrapper">
    <field name="data" value="140303000101">
      <field name="data.data" showname="Data: 140303000101" size="6" pos="54" show="14:03:03:00:01:01" value="140303000101"/>
      <field name="data.len" showname="Length: 6" size="0" pos="54" show="6"/>
  </field>
</proto>
</packet>


<packet>
  <proto name="geninfo" pos="0" showname="General information" size="54">
    <field name="num" pos="0" show="15" showname="Number" value="f" size="54"/>
    <field name="len" pos="0" show="54" showname="Frame Length" value="36" size="54"/>
    <field name="caplen" pos="0" show="54" showname="Captured Length" value="36" size="54"/>
    <field name="timestamp" pos="0" show="Jun 27, 2019 12:20:57.041049000 CEST" showname="Captured Time" value="1561630857.041049000" size="54"/>
  </proto>
  <proto name="frame" showname="Frame 15: 54 bytes on wire (432 bits), 54 bytes captured (432 bits) on interface 0" size="54" pos="0">
    <field name="frame.interface_id" showname="Interface id: 0" size="0" pos="0" show="0"/>
    <field name="frame.encap_type" showname="Encapsulation type: Ethernet (1)" size="0" pos="0" show="1"/>
    <field name="frame.time" showname="Arrival Time: Jun 27, 2019 12:20:57.041049000 CEST" size="0" pos="0" show="&quot;Jun 27, 2019 12:20:57.041049000 CEST&quot;"/>
    <field name="frame.offset_shift" showname="Time shift for this packet: 0.000000000 seconds" size="0" pos="0" show="0.000000000"/>
    <field name="frame.time_epoch" showname="Epoch Time: 1561630857.041049000 seconds" size="0" pos="0" show="1561630857.041049000"/>
    <field name="frame.time_delta" showname="Time delta from previous captured frame: 0.044141000 seconds" size="0" pos="0" show="0.044141000"/>
    <field name="frame.time_delta_displayed" showname="Time delta from previous displayed frame: 0.044141000 seconds" size="0" pos="0" show="0.044141000"/>
    <field name="frame.time_relative" showname="Time since reference or first frame: 0.053987000 seconds" size="0" pos="0" show="0.053987000"/>
    <field name="frame.number" showname="Frame Number: 15" size="0" pos="0" show="15"/>
    <field name="frame.len" showname="Frame Length: 54 bytes (432 bits)" size="0" pos="0" show="54"/>
    <field name="frame.cap_len" showname="Capture Length: 54 bytes (432 bits)" size="0" pos="0" show="54"/>
    <field name="frame.marked" showname="Frame is marked: False" size="0" pos="0" show="0"/>
    <field name="frame.ignored" showname="Frame is ignored: False" size="0" pos="0" show="0"/>
    <field name="frame.protocols" showname="Protocols in frame: eth:ip:tcp" size="0" pos="0" show="eth:ip:tcp"/>
  </proto>
  <proto name="eth" showname="Ethernet II, Src: 02:42:71:12:56:af (02:42:71:12:56:af), Dst: 02:42:ac:11:00:02 (02:42:ac:11:00:02)" size="14" pos="0">
    <field name="eth.dst" showname="Destination: 02:42:ac:11:00:02 (02:42:ac:11:00:02)" size="6" pos="0" show="02:42:ac:11:00:02" value="0242ac110002">
      <field name="eth.addr" showname="Address: 02:42:ac:11:00:02 (02:42:ac:11:00:02)" size="6" pos="0" show="02:42:ac:11:00:02" value="0242ac110002"/>
      <field name="eth.lg" showname=".... ..1. .... .... .... .... = LG bit: Locally administered address (this is NOT the factory default)" size="3" pos="0" show="1" value="1" unmaskedvalue="0242ac"/>
      <field name="eth.ig" showname=".... ...0 .... .... .... .... = IG bit: Individual address (unicast)" size="3" pos="0" show="0" value="0" unmaskedvalue="0242ac"/>
    </field>
    <field name="eth.src" showname="Source: 02:42:71:12:56:af (02:42:71:12:56:af)" size="6" pos="6" show="02:42:71:12:56:af" value="0242711256af">
      <field name="eth.addr" showname="Address: 02:42:71:12:56:af (02:42:71:12:56:af)" size="6" pos="6" show="02:42:71:12:56:af" value="0242711256af"/>
      <field name="eth.lg" showname=".... ..1. .... .... .... .... = LG bit: Locally administered address (this is NOT the factory default)" size="3" pos="6" show="1" value="1" unmaskedvalue="024271"/>
      <field name="eth.ig" showname=".... ...0 .... .... .... .... = IG bit: Individual address (unicast)" size="3" pos="6" show="0" value="0" unmaskedvalue="024271"/>
    </field>
    <field name="eth.type" showname="Type: IP (0x0800)" size="2" pos="12" show="2048" value="0800"/>
  </proto>
  <proto name="ip" showname="Internet Protocol Version 4, Src: 1.1.1.1 (1.1.1.1), Dst: 172.17.0.2 (172.17.0.2)" size="20" pos="14">
    <field name="ip.version" showname="Version: 4" size="1" pos="14" show="4" value="45"/>
    <field name="ip.hdr_len" showname="Header length: 20 bytes" size="1" pos="14" show="20" value="45"/>
    <field name="ip.dsfield" showname="Differentiated Services Field: 0x00 (DSCP 0x00: Default; ECN: 0x00: Not-ECT (Not ECN-Capable Transport))" size="1" pos="15" show="0" value="00">
      <field name="ip.dsfield.dscp" showname="0000 00.. = Differentiated Services Codepoint: Default (0x00)" size="1" pos="15" show="0" value="0" unmaskedvalue="00"/>
      <field name="ip.dsfield.ecn" showname=".... ..00 = Explicit Congestion Notification: Not-ECT (Not ECN-Capable Transport) (0x00)" size="1" pos="15" show="0" value="0" unmaskedvalue="00"/>
    </field>
    <field name="ip.len" showname="Total Length: 40" size="2" pos="16" show="40" value="0028"/>
    <field name="ip.id" showname="Identification: 0xf830 (63536)" size="2" pos="18" show="63536" value="f830"/>
    <field name="ip.flags" showname="Flags: 0x02 (Don&apos;t Fragment)" size="1" pos="20" show="2" value="40">
      <field name="ip.flags.rb" showname="0... .... = Reserved bit: Not set" size="1" pos="20" show="0" value="40"/>
      <field name="ip.flags.df" showname=".1.. .... = Don&apos;t fragment: Set" size="1" pos="20" show="1" value="40"/>
      <field name="ip.flags.mf" showname="..0. .... = More fragments: Not set" size="1" pos="20" show="0" value="40"/>
    </field>
    <field name="ip.frag_offset" showname="Fragment offset: 0" size="2" pos="20" show="0" value="4000"/>
    <field name="ip.ttl" showname="Time to live: 57" size="1" pos="22" show="57" value="39"/>
    <field name="ip.proto" showname="Protocol: TCP (6)" size="1" pos="23" show="6" value="06"/>
    <field name="ip.checksum" showname="Header checksum: 0x9b8a [validation disabled]" size="2" pos="24" show="39818" value="9b8a">
      <field name="ip.checksum_good" showname="Good: False" size="2" pos="24" show="0" value="9b8a"/>
      <field name="ip.checksum_bad" showname="Bad: False" size="2" pos="24" show="0" value="9b8a"/>
    </field>
    <field name="ip.src" showname="Source: 1.1.1.1 (1.1.1.1)" size="4" pos="26" show="1.1.1.1" value="01010101"/>
    <field name="ip.addr" showname="Source or Destination Address: 1.1.1.1 (1.1.1.1)" hide="yes" size="4" pos="26" show="1.1.1.1" value="01010101"/>
    <field name="ip.src_host" showname="Source Host: 1.1.1.1" hide="yes" size="4" pos="26" show="1.1.1.1" value="01010101"/>
    <field name="ip.host" showname="Source or Destination Host: 1.1.1.1" hide="yes" size="4" pos="26" show="1.1.1.1" value="01010101"/>
    <field name="ip.dst" showname="Destination: 172.17.0.2 (172.17.0.2)" size="4" pos="30" show="172.17.0.2" value="ac110002"/>
    <field name="ip.addr" showname="Source or Destination Address: 172.17.0.2 (172.17.0.2)" hide="yes" size="4" pos="30" show="172.17.0.2" value="ac110002"/>
    <field name="ip.dst_host" showname="Destination Host: 172.17.0.2" hide="yes" size="4" pos="30" show="172.17.0.2" value="ac110002"/>
    <field name="ip.host" showname="Source or Destination Host: 172.17.0.2" hide="yes" size="4" pos="30" show="172.17.0.2" value="ac110002"/>
  </proto>
  <proto name="tcp" showname="Transmission Control Protocol, Src Port: 853 (853), Dst Port: 59654 (59654), Seq: 3051, Ack: 344, Len: 0" size="20" pos="34">
    <field name="tcp.srcport" showname="Source port: 853 (853)" size="2" pos="34" show="853" value="0355"/>
    <field name="tcp.dstport" showname="Destination port: 59654 (59654)" size="2" pos="36" show="59654" value="e906"/>
    <field name="tcp.port" showname="Source or Destination Port: 853" hide="yes" size="2" pos="34" show="853" value="0355"/>
    <field name="tcp.port" showname="Source or Destination Port: 59654" hide="yes" size="2" pos="36" show="59654" value="e906"/>
    <field name="tcp.stream" showname="Stream index: 0" size="0" pos="34" show="0"/>
    <field name="tcp.len" showname="TCP Segment Len: 0" hide="yes" size="1" pos="46" show="0" value="50"/>
    <field name="tcp.seq" showname="Sequence number: 3051    (relative sequence number)" size="4" pos="38" show="3051" value="58262008"/>
    <field name="tcp.ack" showname="Acknowledgment number: 344    (relative ack number)" size="4" pos="42" show="344" value="f2f15206"/>
    <field name="tcp.hdr_len" showname="Header length: 20 bytes" size="1" pos="46" show="20" value="50"/>
    <field name="tcp.flags" showname="Flags: 0x010 (ACK)" size="2" pos="46" show="16" value="10" unmaskedvalue="5010">
      <field name="tcp.flags.res" showname="000. .... .... = Reserved: Not set" size="1" pos="46" show="0" value="0" unmaskedvalue="50"/>
      <field name="tcp.flags.ns" showname="...0 .... .... = Nonce: Not set" size="1" pos="46" show="0" value="0" unmaskedvalue="50"/>
      <field name="tcp.flags.cwr" showname=".... 0... .... = Congestion Window Reduced (CWR): Not set" size="1" pos="47" show="0" value="0" unmaskedvalue="10"/>
      <field name="tcp.flags.ecn" showname=".... .0.. .... = ECN-Echo: Not set" size="1" pos="47" show="0" value="0" unmaskedvalue="10"/>
      <field name="tcp.flags.urg" showname=".... ..0. .... = Urgent: Not set" size="1" pos="47" show="0" value="0" unmaskedvalue="10"/>
      <field name="tcp.flags.ack" showname=".... ...1 .... = Acknowledgment: Set" size="1" pos="47" show="1" value="1" unmaskedvalue="10"/>
      <field name="tcp.flags.push" showname=".... .... 0... = Push: Not set" size="1" pos="47" show="0" value="0" unmaskedvalue="10"/>
      <field name="tcp.flags.reset" showname=".... .... .0.. = Reset: Not set" size="1" pos="47" show="0" value="0" unmaskedvalue="10"/>
      <field name="tcp.flags.syn" showname=".... .... ..0. = Syn: Not set" size="1" pos="47" show="0" value="0" unmaskedvalue="10"/>
      <field name="tcp.flags.fin" showname=".... .... ...0 = Fin: Not set" size="1" pos="47" show="0" value="0" unmaskedvalue="10"/>
    </field>
    <field name="tcp.window_size_value" showname="Window size value: 30" size="2" pos="48" show="30" value="001e"/>
    <field name="tcp.window_size" showname="Calculated window size: 30720" size="2" pos="48" show="30720" value="001e"/>
    <field name="tcp.window_size_scalefactor" showname="Window size scaling factor: 1024" size="2" pos="48" show="1024" value="001e"/>
    <field name="tcp.checksum" showname="Checksum: 0x581f [validation disabled]" size="2" pos="50" show="22559" value="581f">
      <field name="tcp.checksum_good" showname="Good Checksum: False" size="2" pos="50" show="0" value="581f"/>
      <field name="tcp.checksum_bad" showname="Bad Checksum: False" size="2" pos="50" show="0" value="581f"/>
    </field>
    <field name="tcp.analysis" showname="SEQ/ACK analysis" size="0" pos="34" show="" value="">
      <field name="tcp.analysis.acks_frame" showname="This is an ACK to the segment in frame: 14" size="0" pos="34" show="14"/>
      <field name="tcp.analysis.ack_rtt" showname="The RTT to ACK the segment was: 0.044141000 seconds" size="0" pos="34" show="0.044141000"/>
    </field>
  </proto>
</packet>


<packet>
  <proto name="geninfo" pos="0" showname="General information" size="280">
    <field name="num" pos="0" show="16" showname="Number" value="10" size="280"/>
    <field name="len" pos="0" show="280" showname="Frame Length" value="118" size="280"/>
    <field name="caplen" pos="0" show="280" showname="Captured Length" value="118" size="280"/>
    <field name="timestamp" pos="0" show="Jun 27, 2019 12:20:57.041074000 CEST" showname="Captured Time" value="1561630857.041074000" size="280"/>
  </proto>
  <proto name="frame" showname="Frame 16: 280 bytes on wire (2240 bits), 280 bytes captured (2240 bits) on interface 0" size="280" pos="0">
    <field name="frame.interface_id" showname="Interface id: 0" size="0" pos="0" show="0"/>
    <field name="frame.encap_type" showname="Encapsulation type: Ethernet (1)" size="0" pos="0" show="1"/>
    <field name="frame.time" showname="Arrival Time: Jun 27, 2019 12:20:57.041074000 CEST" size="0" pos="0" show="&quot;Jun 27, 2019 12:20:57.041074000 CEST&quot;"/>
    <field name="frame.offset_shift" showname="Time shift for this packet: 0.000000000 seconds" size="0" pos="0" show="0.000000000"/>
    <field name="frame.time_epoch" showname="Epoch Time: 1561630857.041074000 seconds" size="0" pos="0" show="1561630857.041074000"/>
    <field name="frame.time_delta" showname="Time delta from previous captured frame: 0.000025000 seconds" size="0" pos="0" show="0.000025000"/>
    <field name="frame.time_delta_displayed" showname="Time delta from previous displayed frame: 0.000025000 seconds" size="0" pos="0" show="0.000025000"/>
    <field name="frame.time_relative" showname="Time since reference or first frame: 0.054012000 seconds" size="0" pos="0" show="0.054012000"/>
    <field name="frame.number" showname="Frame Number: 16" size="0" pos="0" show="16"/>
    <field name="frame.len" showname="Frame Length: 280 bytes (2240 bits)" size="0" pos="0" show="280"/>
    <field name="frame.cap_len" showname="Capture Length: 280 bytes (2240 bits)" size="0" pos="0" show="280"/>
    <field name="frame.marked" showname="Frame is marked: False" size="0" pos="0" show="0"/>
    <field name="frame.ignored" showname="Frame is ignored: False" size="0" pos="0" show="0"/>
    <field name="frame.protocols" showname="Protocols in frame: eth:ip:tcp:data" size="0" pos="0" show="eth:ip:tcp:data"/>
  </proto>
  <proto name="eth" showname="Ethernet II, Src: 02:42:ac:11:00:02 (02:42:ac:11:00:02), Dst: 02:42:71:12:56:af (02:42:71:12:56:af)" size="14" pos="0">
    <field name="eth.dst" showname="Destination: 02:42:71:12:56:af (02:42:71:12:56:af)" size="6" pos="0" show="02:42:71:12:56:af" value="0242711256af">
      <field name="eth.addr" showname="Address: 02:42:71:12:56:af (02:42:71:12:56:af)" size="6" pos="0" show="02:42:71:12:56:af" value="0242711256af"/>
      <field name="eth.lg" showname=".... ..1. .... .... .... .... = LG bit: Locally administered address (this is NOT the factory default)" size="3" pos="0" show="1" value="1" unmaskedvalue="024271"/>
      <field name="eth.ig" showname=".... ...0 .... .... .... .... = IG bit: Individual address (unicast)" size="3" pos="0" show="0" value="0" unmaskedvalue="024271"/>
    </field>
    <field name="eth.src" showname="Source: 02:42:ac:11:00:02 (02:42:ac:11:00:02)" size="6" pos="6" show="02:42:ac:11:00:02" value="0242ac110002">
      <field name="eth.addr" showname="Address: 02:42:ac:11:00:02 (02:42:ac:11:00:02)" size="6" pos="6" show="02:42:ac:11:00:02" value="0242ac110002"/>
      <field name="eth.lg" showname=".... ..1. .... .... .... .... = LG bit: Locally administered address (this is NOT the factory default)" size="3" pos="6" show="1" value="1" unmaskedvalue="0242ac"/>
      <field name="eth.ig" showname=".... ...0 .... .... .... .... = IG bit: Individual address (unicast)" size="3" pos="6" show="0" value="0" unmaskedvalue="0242ac"/>
    </field>
    <field name="eth.type" showname="Type: IP (0x0800)" size="2" pos="12" show="2048" value="0800"/>
  </proto>
  <proto name="ip" showname="Internet Protocol Version 4, Src: 172.17.0.2 (172.17.0.2), Dst: 1.1.1.1 (1.1.1.1)" size="20" pos="14">
    <field name="ip.version" showname="Version: 4" size="1" pos="14" show="4" value="45"/>
    <field name="ip.hdr_len" showname="Header length: 20 bytes" size="1" pos="14" show="20" value="45"/>
    <field name="ip.dsfield" showname="Differentiated Services Field: 0x00 (DSCP 0x00: Default; ECN: 0x00: Not-ECT (Not ECN-Capable Transport))" size="1" pos="15" show="0" value="00">
      <field name="ip.dsfield.dscp" showname="0000 00.. = Differentiated Services Codepoint: Default (0x00)" size="1" pos="15" show="0" value="0" unmaskedvalue="00"/>
      <field name="ip.dsfield.ecn" showname=".... ..00 = Explicit Congestion Notification: Not-ECT (Not ECN-Capable Transport) (0x00)" size="1" pos="15" show="0" value="0" unmaskedvalue="00"/>
    </field>
    <field name="ip.len" showname="Total Length: 266" size="2" pos="16" show="266" value="010a"/>
    <field name="ip.id" showname="Identification: 0x38a4 (14500)" size="2" pos="18" show="14500" value="38a4"/>
    <field name="ip.flags" showname="Flags: 0x02 (Don&apos;t Fragment)" size="1" pos="20" show="2" value="40">
      <field name="ip.flags.rb" showname="0... .... = Reserved bit: Not set" size="1" pos="20" show="0" value="40"/>
      <field name="ip.flags.df" showname=".1.. .... = Don&apos;t fragment: Set" size="1" pos="20" show="1" value="40"/>
      <field name="ip.flags.mf" showname="..0. .... = More fragments: Not set" size="1" pos="20" show="0" value="40"/>
    </field>
    <field name="ip.frag_offset" showname="Fragment offset: 0" size="2" pos="20" show="0" value="4000"/>
    <field name="ip.ttl" showname="Time to live: 64" size="1" pos="22" show="64" value="40"/>
    <field name="ip.proto" showname="Protocol: TCP (6)" size="1" pos="23" show="6" value="06"/>
    <field name="ip.checksum" showname="Header checksum: 0x5335 [validation disabled]" size="2" pos="24" show="21301" value="5335">
      <field name="ip.checksum_good" showname="Good: False" size="2" pos="24" show="0" value="5335"/>
      <field name="ip.checksum_bad" showname="Bad: False" size="2" pos="24" show="0" value="5335"/>
    </field>
    <field name="ip.src" showname="Source: 172.17.0.2 (172.17.0.2)" size="4" pos="26" show="172.17.0.2" value="ac110002"/>
    <field name="ip.addr" showname="Source or Destination Address: 172.17.0.2 (172.17.0.2)" hide="yes" size="4" pos="26" show="172.17.0.2" value="ac110002"/>
    <field name="ip.src_host" showname="Source Host: 172.17.0.2" hide="yes" size="4" pos="26" show="172.17.0.2" value="ac110002"/>
    <field name="ip.host" showname="Source or Destination Host: 172.17.0.2" hide="yes" size="4" pos="26" show="172.17.0.2" value="ac110002"/>
    <field name="ip.dst" showname="Destination: 1.1.1.1 (1.1.1.1)" size="4" pos="30" show="1.1.1.1" value="01010101"/>
    <field name="ip.addr" showname="Source or Destination Address: 1.1.1.1 (1.1.1.1)" hide="yes" size="4" pos="30" show="1.1.1.1" value="01010101"/>
    <field name="ip.dst_host" showname="Destination Host: 1.1.1.1" hide="yes" size="4" pos="30" show="1.1.1.1" value="01010101"/>
    <field name="ip.host" showname="Source or Destination Host: 1.1.1.1" hide="yes" size="4" pos="30" show="1.1.1.1" value="01010101"/>
  </proto>
  <proto name="tcp" showname="Transmission Control Protocol, Src Port: 59654 (59654), Dst Port: 853 (853), Seq: 344, Ack: 3051, Len: 226" size="20" pos="34">
    <field name="tcp.srcport" showname="Source port: 59654 (59654)" size="2" pos="34" show="59654" value="e906"/>
    <field name="tcp.dstport" showname="Destination port: 853 (853)" size="2" pos="36" show="853" value="0355"/>
    <field name="tcp.port" showname="Source or Destination Port: 59654" hide="yes" size="2" pos="34" show="59654" value="e906"/>
    <field name="tcp.port" showname="Source or Destination Port: 853" hide="yes" size="2" pos="36" show="853" value="0355"/>
    <field name="tcp.stream" showname="Stream index: 0" size="0" pos="34" show="0"/>
    <field name="tcp.len" showname="TCP Segment Len: 226" hide="yes" size="1" pos="46" show="226" value="50"/>
    <field name="tcp.seq" showname="Sequence number: 344    (relative sequence number)" size="4" pos="38" show="344" value="f2f15206"/>
    <field name="tcp.nxtseq" showname="Next sequence number: 570    (relative sequence number)" size="0" pos="34" show="570"/>
    <field name="tcp.ack" showname="Acknowledgment number: 3051    (relative ack number)" size="4" pos="42" show="3051" value="58262008"/>
    <field name="tcp.hdr_len" showname="Header length: 20 bytes" size="1" pos="46" show="20" value="50"/>
    <field name="tcp.flags" showname="Flags: 0x018 (PSH, ACK)" size="2" pos="46" show="24" value="18" unmaskedvalue="5018">
      <field name="tcp.flags.res" showname="000. .... .... = Reserved: Not set" size="1" pos="46" show="0" value="0" unmaskedvalue="50"/>
      <field name="tcp.flags.ns" showname="...0 .... .... = Nonce: Not set" size="1" pos="46" show="0" value="0" unmaskedvalue="50"/>
      <field name="tcp.flags.cwr" showname=".... 0... .... = Congestion Window Reduced (CWR): Not set" size="1" pos="47" show="0" value="0" unmaskedvalue="18"/>
      <field name="tcp.flags.ecn" showname=".... .0.. .... = ECN-Echo: Not set" size="1" pos="47" show="0" value="0" unmaskedvalue="18"/>
      <field name="tcp.flags.urg" showname=".... ..0. .... = Urgent: Not set" size="1" pos="47" show="0" value="0" unmaskedvalue="18"/>
      <field name="tcp.flags.ack" showname=".... ...1 .... = Acknowledgment: Set" size="1" pos="47" show="1" value="1" unmaskedvalue="18"/>
      <field name="tcp.flags.push" showname=".... .... 1... = Push: Set" size="1" pos="47" show="1" value="1" unmaskedvalue="18"/>
      <field name="tcp.flags.reset" showname=".... .... .0.. = Reset: Not set" size="1" pos="47" show="0" value="0" unmaskedvalue="18"/>
      <field name="tcp.flags.syn" showname=".... .... ..0. = Syn: Not set" size="1" pos="47" show="0" value="0" unmaskedvalue="18"/>
      <field name="tcp.flags.fin" showname=".... .... ...0 = Fin: Not set" size="1" pos="47" show="0" value="0" unmaskedvalue="18"/>
    </field>
    <field name="tcp.window_size_value" showname="Window size value: 305" size="2" pos="48" show="305" value="0131"/>
    <field name="tcp.window_size" showname="Calculated window size: 39040" size="2" pos="48" show="39040" value="0131"/>
    <field name="tcp.window_size_scalefactor" showname="Window size scaling factor: 128" size="2" pos="48" show="128" value="0131"/>
    <field name="tcp.checksum" showname="Checksum: 0xaf11 [validation disabled]" size="2" pos="50" show="44817" value="af11">
      <field name="tcp.checksum_good" showname="Good Checksum: False" size="2" pos="50" show="0" value="af11"/>
      <field name="tcp.checksum_bad" showname="Bad Checksum: False" size="2" pos="50" show="0" value="af11"/>
    </field>
    <field name="tcp.analysis" showname="SEQ/ACK analysis" size="0" pos="34" show="" value="">
      <field name="tcp.analysis.bytes_in_flight" showname="Bytes in flight: 226" size="0" pos="34" show="226"/>
    </field>
  </proto>
  <proto name="fake-field-wrapper">
    <field name="data" value="17030300457d74bf24fa06eae6f50b805c8bf9300caa064ca62f0c66211a3c1dfae9f8386af02340d71efb8094e39b84ca37c750d1c778ae3a78f5690f0ee3649bdc7a9ef1afbed8aa24170303009326ee2397d24b40b575cafcdfccda0f0c58a86b0d0e77e7321ad9e50423e61211d97dd79ec451e110aaf81cb0905f5aa3362e2d7544afa758d519d732c274f06e8effa46582b11bc5610daa834a0c4131b7571c2f079e9bcb6a1160e61a700ceee57f9d751a291d51c7548509c91d42978ff5d82b2e2e4b85e6b5c55e901da02e558b2a30f046ff28e6685ccc1a4964cb1a1dc1">
      <field name="data.data" showname="Data: 17030300457d74bf24fa06eae6f50b805c8bf9300caa064c..." size="226" pos="54" show="17:03:03:00:45:7d:74:bf:24:fa:06:ea:e6:f5:0b:80:5c:8b:f9:30:0c:aa:06:4c:a6:2f:0c:66:21:1a:3c:1d:fa:e9:f8:38:6a:f0:23:40:d7:1e:fb:80:94:e3:9b:84:ca:37:c7:50:d1:c7:78:ae:3a:78:f5:69:0f:0e:e3:64:9b:dc:7a:9e:f1:af:be:d8:aa:24:17:03:03:00:93:26:ee:23:97:d2:4b:40:b5:75:ca:fc:df:cc:da:0f:0c:58:a8:6b:0d:0e:77:e7:32:1a:d9:e5:04:23:e6:12:11:d9:7d:d7:9e:c4:51:e1:10:aa:f8:1c:b0:90:5f:5a:a3:36:2e:2d:75:44:af:a7:58:d5:19:d7:32:c2:74:f0:6e:8e:ff:a4:65:82:b1:1b:c5:61:0d:aa:83:4a:0c:41:31:b7:57:1c:2f:07:9e:9b:cb:6a:11:60:e6:1a:70:0c:ee:e5:7f:9d:75:1a:29:1d:51:c7:54:85:09:c9:1d:42:97:8f:f5:d8:2b:2e:2e:4b:85:e6:b5:c5:5e:90:1d:a0:2e:55:8b:2a:30:f0:46:ff:28:e6:68:5c:cc:1a:49:64:cb:1a:1d:c1" value="17030300457d74bf24fa06eae6f50b805c8bf9300caa064ca62f0c66211a3c1dfae9f8386af02340d71efb8094e39b84ca37c750d1c778ae3a78f5690f0ee3649bdc7a9ef1afbed8aa24170303009326ee2397d24b40b575cafcdfccda0f0c58a86b0d0e77e7321ad9e50423e61211d97dd79ec451e110aaf81cb0905f5aa3362e2d7544afa758d519d732c274f06e8effa46582b11bc5610daa834a0c4131b7571c2f079e9bcb6a1160e61a700ceee57f9d751a291d51c7548509c91d42978ff5d82b2e2e4b85e6b5c55e901da02e558b2a30f046ff28e6685ccc1a4964cb1a1dc1"/>
      <field name="data.len" showname="Length: 226" size="0" pos="54" show="226"/>
  </field>
</proto>
</packet>


<packet>
  <proto name="geninfo" pos="0" showname="General information" size="54">
    <field name="num" pos="0" show="17" showname="Number" value="11" size="54"/>
    <field name="len" pos="0" show="54" showname="Frame Length" value="36" size="54"/>
    <field name="caplen" pos="0" show="54" showname="Captured Length" value="36" size="54"/>
    <field name="timestamp" pos="0" show="Jun 27, 2019 12:20:57.044690000 CEST" showname="Captured Time" value="1561630857.044690000" size="54"/>
  </proto>
  <proto name="frame" showname="Frame 17: 54 bytes on wire (432 bits), 54 bytes captured (432 bits) on interface 0" size="54" pos="0">
    <field name="frame.interface_id" showname="Interface id: 0" size="0" pos="0" show="0"/>
    <field name="frame.encap_type" showname="Encapsulation type: Ethernet (1)" size="0" pos="0" show="1"/>
    <field name="frame.time" showname="Arrival Time: Jun 27, 2019 12:20:57.044690000 CEST" size="0" pos="0" show="&quot;Jun 27, 2019 12:20:57.044690000 CEST&quot;"/>
    <field name="frame.offset_shift" showname="Time shift for this packet: 0.000000000 seconds" size="0" pos="0" show="0.000000000"/>
    <field name="frame.time_epoch" showname="Epoch Time: 1561630857.044690000 seconds" size="0" pos="0" show="1561630857.044690000"/>
    <field name="frame.time_delta" showname="Time delta from previous captured frame: 0.003616000 seconds" size="0" pos="0" show="0.003616000"/>
    <field name="frame.time_delta_displayed" showname="Time delta from previous displayed frame: 0.003616000 seconds" size="0" pos="0" show="0.003616000"/>
    <field name="frame.time_relative" showname="Time since reference or first frame: 0.057628000 seconds" size="0" pos="0" show="0.057628000"/>
    <field name="frame.number" showname="Frame Number: 17" size="0" pos="0" show="17"/>
    <field name="frame.len" showname="Frame Length: 54 bytes (432 bits)" size="0" pos="0" show="54"/>
    <field name="frame.cap_len" showname="Capture Length: 54 bytes (432 bits)" size="0" pos="0" show="54"/>
    <field name="frame.marked" showname="Frame is marked: False" size="0" pos="0" show="0"/>
    <field name="frame.ignored" showname="Frame is ignored: False" size="0" pos="0" show="0"/>
    <field name="frame.protocols" showname="Protocols in frame: eth:ip:tcp" size="0" pos="0" show="eth:ip:tcp"/>
  </proto>
  <proto name="eth" showname="Ethernet II, Src: 02:42:71:12:56:af (02:42:71:12:56:af), Dst: 02:42:ac:11:00:02 (02:42:ac:11:00:02)" size="14" pos="0">
    <field name="eth.dst" showname="Destination: 02:42:ac:11:00:02 (02:42:ac:11:00:02)" size="6" pos="0" show="02:42:ac:11:00:02" value="0242ac110002">
      <field name="eth.addr" showname="Address: 02:42:ac:11:00:02 (02:42:ac:11:00:02)" size="6" pos="0" show="02:42:ac:11:00:02" value="0242ac110002"/>
      <field name="eth.lg" showname=".... ..1. .... .... .... .... = LG bit: Locally administered address (this is NOT the factory default)" size="3" pos="0" show="1" value="1" unmaskedvalue="0242ac"/>
      <field name="eth.ig" showname=".... ...0 .... .... .... .... = IG bit: Individual address (unicast)" size="3" pos="0" show="0" value="0" unmaskedvalue="0242ac"/>
    </field>
    <field name="eth.src" showname="Source: 02:42:71:12:56:af (02:42:71:12:56:af)" size="6" pos="6" show="02:42:71:12:56:af" value="0242711256af">
      <field name="eth.addr" showname="Address: 02:42:71:12:56:af (02:42:71:12:56:af)" size="6" pos="6" show="02:42:71:12:56:af" value="0242711256af"/>
      <field name="eth.lg" showname=".... ..1. .... .... .... .... = LG bit: Locally administered address (this is NOT the factory default)" size="3" pos="6" show="1" value="1" unmaskedvalue="024271"/>
      <field name="eth.ig" showname=".... ...0 .... .... .... .... = IG bit: Individual address (unicast)" size="3" pos="6" show="0" value="0" unmaskedvalue="024271"/>
    </field>
    <field name="eth.type" showname="Type: IP (0x0800)" size="2" pos="12" show="2048" value="0800"/>
  </proto>
  <proto name="ip" showname="Internet Protocol Version 4, Src: 1.1.1.1 (1.1.1.1), Dst: 172.17.0.2 (172.17.0.2)" size="20" pos="14">
    <field name="ip.version" showname="Version: 4" size="1" pos="14" show="4" value="45"/>
    <field name="ip.hdr_len" showname="Header length: 20 bytes" size="1" pos="14" show="20" value="45"/>
    <field name="ip.dsfield" showname="Differentiated Services Field: 0x00 (DSCP 0x00: Default; ECN: 0x00: Not-ECT (Not ECN-Capable Transport))" size="1" pos="15" show="0" value="00">
      <field name="ip.dsfield.dscp" showname="0000 00.. = Differentiated Services Codepoint: Default (0x00)" size="1" pos="15" show="0" value="0" unmaskedvalue="00"/>
      <field name="ip.dsfield.ecn" showname=".... ..00 = Explicit Congestion Notification: Not-ECT (Not ECN-Capable Transport) (0x00)" size="1" pos="15" show="0" value="0" unmaskedvalue="00"/>
    </field>
    <field name="ip.len" showname="Total Length: 40" size="2" pos="16" show="40" value="0028"/>
    <field name="ip.id" showname="Identification: 0xf831 (63537)" size="2" pos="18" show="63537" value="f831"/>
    <field name="ip.flags" showname="Flags: 0x02 (Don&apos;t Fragment)" size="1" pos="20" show="2" value="40">
      <field name="ip.flags.rb" showname="0... .... = Reserved bit: Not set" size="1" pos="20" show="0" value="40"/>
      <field name="ip.flags.df" showname=".1.. .... = Don&apos;t fragment: Set" size="1" pos="20" show="1" value="40"/>
      <field name="ip.flags.mf" showname="..0. .... = More fragments: Not set" size="1" pos="20" show="0" value="40"/>
    </field>
    <field name="ip.frag_offset" showname="Fragment offset: 0" size="2" pos="20" show="0" value="4000"/>
    <field name="ip.ttl" showname="Time to live: 57" size="1" pos="22" show="57" value="39"/>
    <field name="ip.proto" showname="Protocol: TCP (6)" size="1" pos="23" show="6" value="06"/>
    <field name="ip.checksum" showname="Header checksum: 0x9b89 [validation disabled]" size="2" pos="24" show="39817" value="9b89">
      <field name="ip.checksum_good" showname="Good: False" size="2" pos="24" show="0" value="9b89"/>
      <field name="ip.checksum_bad" showname="Bad: False" size="2" pos="24" show="0" value="9b89"/>
    </field>
    <field name="ip.src" showname="Source: 1.1.1.1 (1.1.1.1)" size="4" pos="26" show="1.1.1.1" value="01010101"/>
    <field name="ip.addr" showname="Source or Destination Address: 1.1.1.1 (1.1.1.1)" hide="yes" size="4" pos="26" show="1.1.1.1" value="01010101"/>
    <field name="ip.src_host" showname="Source Host: 1.1.1.1" hide="yes" size="4" pos="26" show="1.1.1.1" value="01010101"/>
    <field name="ip.host" showname="Source or Destination Host: 1.1.1.1" hide="yes" size="4" pos="26" show="1.1.1.1" value="01010101"/>
    <field name="ip.dst" showname="Destination: 172.17.0.2 (172.17.0.2)" size="4" pos="30" show="172.17.0.2" value="ac110002"/>
    <field name="ip.addr" showname="Source or Destination Address: 172.17.0.2 (172.17.0.2)" hide="yes" size="4" pos="30" show="172.17.0.2" value="ac110002"/>
    <field name="ip.dst_host" showname="Destination Host: 172.17.0.2" hide="yes" size="4" pos="30" show="172.17.0.2" value="ac110002"/>
    <field name="ip.host" showname="Source or Destination Host: 172.17.0.2" hide="yes" size="4" pos="30" show="172.17.0.2" value="ac110002"/>
  </proto>
  <proto name="tcp" showname="Transmission Control Protocol, Src Port: 853 (853), Dst Port: 59654 (59654), Seq: 3051, Ack: 570, Len: 0" size="20" pos="34">
    <field name="tcp.srcport" showname="Source port: 853 (853)" size="2" pos="34" show="853" value="0355"/>
    <field name="tcp.dstport" showname="Destination port: 59654 (59654)" size="2" pos="36" show="59654" value="e906"/>
    <field name="tcp.port" showname="Source or Destination Port: 853" hide="yes" size="2" pos="34" show="853" value="0355"/>
    <field name="tcp.port" showname="Source or Destination Port: 59654" hide="yes" size="2" pos="36" show="59654" value="e906"/>
    <field name="tcp.stream" showname="Stream index: 0" size="0" pos="34" show="0"/>
    <field name="tcp.len" showname="TCP Segment Len: 0" hide="yes" size="1" pos="46" show="0" value="50"/>
    <field name="tcp.seq" showname="Sequence number: 3051    (relative sequence number)" size="4" pos="38" show="3051" value="58262008"/>
    <field name="tcp.ack" showname="Acknowledgment number: 570    (relative ack number)" size="4" pos="42" show="570" value="f2f152e8"/>
    <field name="tcp.hdr_len" showname="Header length: 20 bytes" size="1" pos="46" show="20" value="50"/>
    <field name="tcp.flags" showname="Flags: 0x010 (ACK)" size="2" pos="46" show="16" value="10" unmaskedvalue="5010">
      <field name="tcp.flags.res" showname="000. .... .... = Reserved: Not set" size="1" pos="46" show="0" value="0" unmaskedvalue="50"/>
      <field name="tcp.flags.ns" showname="...0 .... .... = Nonce: Not set" size="1" pos="46" show="0" value="0" unmaskedvalue="50"/>
      <field name="tcp.flags.cwr" showname=".... 0... .... = Congestion Window Reduced (CWR): Not set" size="1" pos="47" show="0" value="0" unmaskedvalue="10"/>
      <field name="tcp.flags.ecn" showname=".... .0.. .... = ECN-Echo: Not set" size="1" pos="47" show="0" value="0" unmaskedvalue="10"/>
      <field name="tcp.flags.urg" showname=".... ..0. .... = Urgent: Not set" size="1" pos="47" show="0" value="0" unmaskedvalue="10"/>
      <field name="tcp.flags.ack" showname=".... ...1 .... = Acknowledgment: Set" size="1" pos="47" show="1" value="1" unmaskedvalue="10"/>
      <field name="tcp.flags.push" showname=".... .... 0... = Push: Not set" size="1" pos="47" show="0" value="0" unmaskedvalue="10"/>
      <field name="tcp.flags.reset" showname=".... .... .0.. = Reset: Not set" size="1" pos="47" show="0" value="0" unmaskedvalue="10"/>
      <field name="tcp.flags.syn" showname=".... .... ..0. = Syn: Not set" size="1" pos="47" show="0" value="0" unmaskedvalue="10"/>
      <field name="tcp.flags.fin" showname=".... .... ...0 = Fin: Not set" size="1" pos="47" show="0" value="0" unmaskedvalue="10"/>
    </field>
    <field name="tcp.window_size_value" showname="Window size value: 31" size="2" pos="48" show="31" value="001f"/>
    <field name="tcp.window_size" showname="Calculated window size: 31744" size="2" pos="48" show="31744" value="001f"/>
    <field name="tcp.window_size_scalefactor" showname="Window size scaling factor: 1024" size="2" pos="48" show="1024" value="001f"/>
    <field name="tcp.checksum" showname="Checksum: 0x573c [validation disabled]" size="2" pos="50" show="22332" value="573c">
      <field name="tcp.checksum_good" showname="Good Checksum: False" size="2" pos="50" show="0" value="573c"/>
      <field name="tcp.checksum_bad" showname="Bad Checksum: False" size="2" pos="50" show="0" value="573c"/>
    </field>
    <field name="tcp.analysis" showname="SEQ/ACK analysis" size="0" pos="34" show="" value="">
      <field name="tcp.analysis.acks_frame" showname="This is an ACK to the segment in frame: 16" size="0" pos="34" show="16"/>
      <field name="tcp.analysis.ack_rtt" showname="The RTT to ACK the segment was: 0.003616000 seconds" size="0" pos="34" show="0.003616000"/>
    </field>
  </proto>
</packet>


<packet>
  <proto name="geninfo" pos="0" showname="General information" size="206">
    <field name="num" pos="0" show="18" showname="Number" value="12" size="206"/>
    <field name="len" pos="0" show="206" showname="Frame Length" value="ce" size="206"/>
    <field name="caplen" pos="0" show="206" showname="Captured Length" value="ce" size="206"/>
    <field name="timestamp" pos="0" show="Jun 27, 2019 12:20:57.045399000 CEST" showname="Captured Time" value="1561630857.045399000" size="206"/>
  </proto>
  <proto name="frame" showname="Frame 18: 206 bytes on wire (1648 bits), 206 bytes captured (1648 bits) on interface 0" size="206" pos="0">
    <field name="frame.interface_id" showname="Interface id: 0" size="0" pos="0" show="0"/>
    <field name="frame.encap_type" showname="Encapsulation type: Ethernet (1)" size="0" pos="0" show="1"/>
    <field name="frame.time" showname="Arrival Time: Jun 27, 2019 12:20:57.045399000 CEST" size="0" pos="0" show="&quot;Jun 27, 2019 12:20:57.045399000 CEST&quot;"/>
    <field name="frame.offset_shift" showname="Time shift for this packet: 0.000000000 seconds" size="0" pos="0" show="0.000000000"/>
    <field name="frame.time_epoch" showname="Epoch Time: 1561630857.045399000 seconds" size="0" pos="0" show="1561630857.045399000"/>
    <field name="frame.time_delta" showname="Time delta from previous captured frame: 0.000709000 seconds" size="0" pos="0" show="0.000709000"/>
    <field name="frame.time_delta_displayed" showname="Time delta from previous displayed frame: 0.000709000 seconds" size="0" pos="0" show="0.000709000"/>
    <field name="frame.time_relative" showname="Time since reference or first frame: 0.058337000 seconds" size="0" pos="0" show="0.058337000"/>
    <field name="frame.number" showname="Frame Number: 18" size="0" pos="0" show="18"/>
    <field name="frame.len" showname="Frame Length: 206 bytes (1648 bits)" size="0" pos="0" show="206"/>
    <field name="frame.cap_len" showname="Capture Length: 206 bytes (1648 bits)" size="0" pos="0" show="206"/>
    <field name="frame.marked" showname="Frame is marked: False" size="0" pos="0" show="0"/>
    <field name="frame.ignored" showname="Frame is ignored: False" size="0" pos="0" show="0"/>
    <field name="frame.protocols" showname="Protocols in frame: eth:ip:tcp:data" size="0" pos="0" show="eth:ip:tcp:data"/>
  </proto>
  <proto name="eth" showname="Ethernet II, Src: 02:42:71:12:56:af (02:42:71:12:56:af), Dst: 02:42:ac:11:00:02 (02:42:ac:11:00:02)" size="14" pos="0">
    <field name="eth.dst" showname="Destination: 02:42:ac:11:00:02 (02:42:ac:11:00:02)" size="6" pos="0" show="02:42:ac:11:00:02" value="0242ac110002">
      <field name="eth.addr" showname="Address: 02:42:ac:11:00:02 (02:42:ac:11:00:02)" size="6" pos="0" show="02:42:ac:11:00:02" value="0242ac110002"/>
      <field name="eth.lg" showname=".... ..1. .... .... .... .... = LG bit: Locally administered address (this is NOT the factory default)" size="3" pos="0" show="1" value="1" unmaskedvalue="0242ac"/>
      <field name="eth.ig" showname=".... ...0 .... .... .... .... = IG bit: Individual address (unicast)" size="3" pos="0" show="0" value="0" unmaskedvalue="0242ac"/>
    </field>
    <field name="eth.src" showname="Source: 02:42:71:12:56:af (02:42:71:12:56:af)" size="6" pos="6" show="02:42:71:12:56:af" value="0242711256af">
      <field name="eth.addr" showname="Address: 02:42:71:12:56:af (02:42:71:12:56:af)" size="6" pos="6" show="02:42:71:12:56:af" value="0242711256af"/>
      <field name="eth.lg" showname=".... ..1. .... .... .... .... = LG bit: Locally administered address (this is NOT the factory default)" size="3" pos="6" show="1" value="1" unmaskedvalue="024271"/>
      <field name="eth.ig" showname=".... ...0 .... .... .... .... = IG bit: Individual address (unicast)" size="3" pos="6" show="0" value="0" unmaskedvalue="024271"/>
    </field>
    <field name="eth.type" showname="Type: IP (0x0800)" size="2" pos="12" show="2048" value="0800"/>
  </proto>
  <proto name="ip" showname="Internet Protocol Version 4, Src: 1.1.1.1 (1.1.1.1), Dst: 172.17.0.2 (172.17.0.2)" size="20" pos="14">
    <field name="ip.version" showname="Version: 4" size="1" pos="14" show="4" value="45"/>
    <field name="ip.hdr_len" showname="Header length: 20 bytes" size="1" pos="14" show="20" value="45"/>
    <field name="ip.dsfield" showname="Differentiated Services Field: 0x00 (DSCP 0x00: Default; ECN: 0x00: Not-ECT (Not ECN-Capable Transport))" size="1" pos="15" show="0" value="00">
      <field name="ip.dsfield.dscp" showname="0000 00.. = Differentiated Services Codepoint: Default (0x00)" size="1" pos="15" show="0" value="0" unmaskedvalue="00"/>
      <field name="ip.dsfield.ecn" showname=".... ..00 = Explicit Congestion Notification: Not-ECT (Not ECN-Capable Transport) (0x00)" size="1" pos="15" show="0" value="0" unmaskedvalue="00"/>
    </field>
    <field name="ip.len" showname="Total Length: 192" size="2" pos="16" show="192" value="00c0"/>
    <field name="ip.id" showname="Identification: 0xf832 (63538)" size="2" pos="18" show="63538" value="f832"/>
    <field name="ip.flags" showname="Flags: 0x02 (Don&apos;t Fragment)" size="1" pos="20" show="2" value="40">
      <field name="ip.flags.rb" showname="0... .... = Reserved bit: Not set" size="1" pos="20" show="0" value="40"/>
      <field name="ip.flags.df" showname=".1.. .... = Don&apos;t fragment: Set" size="1" pos="20" show="1" value="40"/>
      <field name="ip.flags.mf" showname="..0. .... = More fragments: Not set" size="1" pos="20" show="0" value="40"/>
    </field>
    <field name="ip.frag_offset" showname="Fragment offset: 0" size="2" pos="20" show="0" value="4000"/>
    <field name="ip.ttl" showname="Time to live: 57" size="1" pos="22" show="57" value="39"/>
    <field name="ip.proto" showname="Protocol: TCP (6)" size="1" pos="23" show="6" value="06"/>
    <field name="ip.checksum" showname="Header checksum: 0x9af0 [validation disabled]" size="2" pos="24" show="39664" value="9af0">
      <field name="ip.checksum_good" showname="Good: False" size="2" pos="24" show="0" value="9af0"/>
      <field name="ip.checksum_bad" showname="Bad: False" size="2" pos="24" show="0" value="9af0"/>
    </field>
    <field name="ip.src" showname="Source: 1.1.1.1 (1.1.1.1)" size="4" pos="26" show="1.1.1.1" value="01010101"/>
    <field name="ip.addr" showname="Source or Destination Address: 1.1.1.1 (1.1.1.1)" hide="yes" size="4" pos="26" show="1.1.1.1" value="01010101"/>
    <field name="ip.src_host" showname="Source Host: 1.1.1.1" hide="yes" size="4" pos="26" show="1.1.1.1" value="01010101"/>
    <field name="ip.host" showname="Source or Destination Host: 1.1.1.1" hide="yes" size="4" pos="26" show="1.1.1.1" value="01010101"/>
    <field name="ip.dst" showname="Destination: 172.17.0.2 (172.17.0.2)" size="4" pos="30" show="172.17.0.2" value="ac110002"/>
    <field name="ip.addr" showname="Source or Destination Address: 172.17.0.2 (172.17.0.2)" hide="yes" size="4" pos="30" show="172.17.0.2" value="ac110002"/>
    <field name="ip.dst_host" showname="Destination Host: 172.17.0.2" hide="yes" size="4" pos="30" show="172.17.0.2" value="ac110002"/>
    <field name="ip.host" showname="Source or Destination Host: 172.17.0.2" hide="yes" size="4" pos="30" show="172.17.0.2" value="ac110002"/>
  </proto>
  <proto name="tcp" showname="Transmission Control Protocol, Src Port: 853 (853), Dst Port: 59654 (59654), Seq: 3051, Ack: 570, Len: 152" size="20" pos="34">
    <field name="tcp.srcport" showname="Source port: 853 (853)" size="2" pos="34" show="853" value="0355"/>
    <field name="tcp.dstport" showname="Destination port: 59654 (59654)" size="2" pos="36" show="59654" value="e906"/>
    <field name="tcp.port" showname="Source or Destination Port: 853" hide="yes" size="2" pos="34" show="853" value="0355"/>
    <field name="tcp.port" showname="Source or Destination Port: 59654" hide="yes" size="2" pos="36" show="59654" value="e906"/>
    <field name="tcp.stream" showname="Stream index: 0" size="0" pos="34" show="0"/>
    <field name="tcp.len" showname="TCP Segment Len: 152" hide="yes" size="1" pos="46" show="152" value="50"/>
    <field name="tcp.seq" showname="Sequence number: 3051    (relative sequence number)" size="4" pos="38" show="3051" value="58262008"/>
    <field name="tcp.nxtseq" showname="Next sequence number: 3203    (relative sequence number)" size="0" pos="34" show="3203"/>
    <field name="tcp.ack" showname="Acknowledgment number: 570    (relative ack number)" size="4" pos="42" show="570" value="f2f152e8"/>
    <field name="tcp.hdr_len" showname="Header length: 20 bytes" size="1" pos="46" show="20" value="50"/>
    <field name="tcp.flags" showname="Flags: 0x018 (PSH, ACK)" size="2" pos="46" show="24" value="18" unmaskedvalue="5018">
      <field name="tcp.flags.res" showname="000. .... .... = Reserved: Not set" size="1" pos="46" show="0" value="0" unmaskedvalue="50"/>
      <field name="tcp.flags.ns" showname="...0 .... .... = Nonce: Not set" size="1" pos="46" show="0" value="0" unmaskedvalue="50"/>
      <field name="tcp.flags.cwr" showname=".... 0... .... = Congestion Window Reduced (CWR): Not set" size="1" pos="47" show="0" value="0" unmaskedvalue="18"/>
      <field name="tcp.flags.ecn" showname=".... .0.. .... = ECN-Echo: Not set" size="1" pos="47" show="0" value="0" unmaskedvalue="18"/>
      <field name="tcp.flags.urg" showname=".... ..0. .... = Urgent: Not set" size="1" pos="47" show="0" value="0" unmaskedvalue="18"/>
      <field name="tcp.flags.ack" showname=".... ...1 .... = Acknowledgment: Set" size="1" pos="47" show="1" value="1" unmaskedvalue="18"/>
      <field name="tcp.flags.push" showname=".... .... 1... = Push: Set" size="1" pos="47" show="1" value="1" unmaskedvalue="18"/>
      <field name="tcp.flags.reset" showname=".... .... .0.. = Reset: Not set" size="1" pos="47" show="0" value="0" unmaskedvalue="18"/>
      <field name="tcp.flags.syn" showname=".... .... ..0. = Syn: Not set" size="1" pos="47" show="0" value="0" unmaskedvalue="18"/>
      <field name="tcp.flags.fin" showname=".... .... ...0 = Fin: Not set" size="1" pos="47" show="0" value="0" unmaskedvalue="18"/>
    </field>
    <field name="tcp.window_size_value" showname="Window size value: 31" size="2" pos="48" show="31" value="001f"/>
    <field name="tcp.window_size" showname="Calculated window size: 31744" size="2" pos="48" show="31744" value="001f"/>
    <field name="tcp.window_size_scalefactor" showname="Window size scaling factor: 1024" size="2" pos="48" show="1024" value="001f"/>
    <field name="tcp.checksum" showname="Checksum: 0x7201 [validation disabled]" size="2" pos="50" show="29185" value="7201">
      <field name="tcp.checksum_good" showname="Good Checksum: False" size="2" pos="50" show="0" value="7201"/>
      <field name="tcp.checksum_bad" showname="Bad Checksum: False" size="2" pos="50" show="0" value="7201"/>
    </field>
    <field name="tcp.analysis" showname="SEQ/ACK analysis" size="0" pos="34" show="" value="">
      <field name="tcp.analysis.bytes_in_flight" showname="Bytes in flight: 152" size="0" pos="34" show="152"/>
    </field>
  </proto>
  <proto name="fake-field-wrapper">
    <field name="data" value="1703030093e6f7c83634e65c23342de610d75992e03120582c550c75dbc94112053383c3824d4ea1ff72fb90e803bbda819128f4cc0cf96fd2664bdb531bc9af4c7b4cc8dcc5220d5a8d070791c2e2d9705cfea3aebfd8300bacb762c2217a486a3c468c3fd9115cdb9b4d02303f51f9306299a38dde49e8b1914b300ec257158f82697f134e610cdbdfe913b3e5fc9d033154afabaa7180">
      <field name="data.data" showname="Data: 1703030093e6f7c83634e65c23342de610d75992e0312058..." size="152" pos="54" show="17:03:03:00:93:e6:f7:c8:36:34:e6:5c:23:34:2d:e6:10:d7:59:92:e0:31:20:58:2c:55:0c:75:db:c9:41:12:05:33:83:c3:82:4d:4e:a1:ff:72:fb:90:e8:03:bb:da:81:91:28:f4:cc:0c:f9:6f:d2:66:4b:db:53:1b:c9:af:4c:7b:4c:c8:dc:c5:22:0d:5a:8d:07:07:91:c2:e2:d9:70:5c:fe:a3:ae:bf:d8:30:0b:ac:b7:62:c2:21:7a:48:6a:3c:46:8c:3f:d9:11:5c:db:9b:4d:02:30:3f:51:f9:30:62:99:a3:8d:de:49:e8:b1:91:4b:30:0e:c2:57:15:8f:82:69:7f:13:4e:61:0c:db:df:e9:13:b3:e5:fc:9d:03:31:54:af:ab:aa:71:80" value="1703030093e6f7c83634e65c23342de610d75992e03120582c550c75dbc94112053383c3824d4ea1ff72fb90e803bbda819128f4cc0cf96fd2664bdb531bc9af4c7b4cc8dcc5220d5a8d070791c2e2d9705cfea3aebfd8300bacb762c2217a486a3c468c3fd9115cdb9b4d02303f51f9306299a38dde49e8b1914b300ec257158f82697f134e610cdbdfe913b3e5fc9d033154afabaa7180"/>
      <field name="data.len" showname="Length: 152" size="0" pos="54" show="152"/>
  </field>
</proto>
</packet>


<packet>
  <proto name="geninfo" pos="0" showname="General information" size="78">
    <field name="num" pos="0" show="19" showname="Number" value="13" size="78"/>
    <field name="len" pos="0" show="78" showname="Frame Length" value="4e" size="78"/>
    <field name="caplen" pos="0" show="78" showname="Captured Length" value="4e" size="78"/>
    <field name="timestamp" pos="0" show="Jun 27, 2019 12:20:57.045610000 CEST" showname="Captured Time" value="1561630857.045610000" size="78"/>
  </proto>
  <proto name="frame" showname="Frame 19: 78 bytes on wire (624 bits), 78 bytes captured (624 bits) on interface 0" size="78" pos="0">
    <field name="frame.interface_id" showname="Interface id: 0" size="0" pos="0" show="0"/>
    <field name="frame.encap_type" showname="Encapsulation type: Ethernet (1)" size="0" pos="0" show="1"/>
    <field name="frame.time" showname="Arrival Time: Jun 27, 2019 12:20:57.045610000 CEST" size="0" pos="0" show="&quot;Jun 27, 2019 12:20:57.045610000 CEST&quot;"/>
    <field name="frame.offset_shift" showname="Time shift for this packet: 0.000000000 seconds" size="0" pos="0" show="0.000000000"/>
    <field name="frame.time_epoch" showname="Epoch Time: 1561630857.045610000 seconds" size="0" pos="0" show="1561630857.045610000"/>
    <field name="frame.time_delta" showname="Time delta from previous captured frame: 0.000211000 seconds" size="0" pos="0" show="0.000211000"/>
    <field name="frame.time_delta_displayed" showname="Time delta from previous displayed frame: 0.000211000 seconds" size="0" pos="0" show="0.000211000"/>
    <field name="frame.time_relative" showname="Time since reference or first frame: 0.058548000 seconds" size="0" pos="0" show="0.058548000"/>
    <field name="frame.number" showname="Frame Number: 19" size="0" pos="0" show="19"/>
    <field name="frame.len" showname="Frame Length: 78 bytes (624 bits)" size="0" pos="0" show="78"/>
    <field name="frame.cap_len" showname="Capture Length: 78 bytes (624 bits)" size="0" pos="0" show="78"/>
    <field name="frame.marked" showname="Frame is marked: False" size="0" pos="0" show="0"/>
    <field name="frame.ignored" showname="Frame is ignored: False" size="0" pos="0" show="0"/>
    <field name="frame.protocols" showname="Protocols in frame: eth:ip:tcp:data" size="0" pos="0" show="eth:ip:tcp:data"/>
  </proto>
  <proto name="eth" showname="Ethernet II, Src: 02:42:ac:11:00:02 (02:42:ac:11:00:02), Dst: 02:42:71:12:56:af (02:42:71:12:56:af)" size="14" pos="0">
    <field name="eth.dst" showname="Destination: 02:42:71:12:56:af (02:42:71:12:56:af)" size="6" pos="0" show="02:42:71:12:56:af" value="0242711256af">
      <field name="eth.addr" showname="Address: 02:42:71:12:56:af (02:42:71:12:56:af)" size="6" pos="0" show="02:42:71:12:56:af" value="0242711256af"/>
      <field name="eth.lg" showname=".... ..1. .... .... .... .... = LG bit: Locally administered address (this is NOT the factory default)" size="3" pos="0" show="1" value="1" unmaskedvalue="024271"/>
      <field name="eth.ig" showname=".... ...0 .... .... .... .... = IG bit: Individual address (unicast)" size="3" pos="0" show="0" value="0" unmaskedvalue="024271"/>
    </field>
    <field name="eth.src" showname="Source: 02:42:ac:11:00:02 (02:42:ac:11:00:02)" size="6" pos="6" show="02:42:ac:11:00:02" value="0242ac110002">
      <field name="eth.addr" showname="Address: 02:42:ac:11:00:02 (02:42:ac:11:00:02)" size="6" pos="6" show="02:42:ac:11:00:02" value="0242ac110002"/>
      <field name="eth.lg" showname=".... ..1. .... .... .... .... = LG bit: Locally administered address (this is NOT the factory default)" size="3" pos="6" show="1" value="1" unmaskedvalue="0242ac"/>
      <field name="eth.ig" showname=".... ...0 .... .... .... .... = IG bit: Individual address (unicast)" size="3" pos="6" show="0" value="0" unmaskedvalue="0242ac"/>
    </field>
    <field name="eth.type" showname="Type: IP (0x0800)" size="2" pos="12" show="2048" value="0800"/>
  </proto>
  <proto name="ip" showname="Internet Protocol Version 4, Src: 172.17.0.2 (172.17.0.2), Dst: 1.1.1.1 (1.1.1.1)" size="20" pos="14">
    <field name="ip.version" showname="Version: 4" size="1" pos="14" show="4" value="45"/>
    <field name="ip.hdr_len" showname="Header length: 20 bytes" size="1" pos="14" show="20" value="45"/>
    <field name="ip.dsfield" showname="Differentiated Services Field: 0x00 (DSCP 0x00: Default; ECN: 0x00: Not-ECT (Not ECN-Capable Transport))" size="1" pos="15" show="0" value="00">
      <field name="ip.dsfield.dscp" showname="0000 00.. = Differentiated Services Codepoint: Default (0x00)" size="1" pos="15" show="0" value="0" unmaskedvalue="00"/>
      <field name="ip.dsfield.ecn" showname=".... ..00 = Explicit Congestion Notification: Not-ECT (Not ECN-Capable Transport) (0x00)" size="1" pos="15" show="0" value="0" unmaskedvalue="00"/>
    </field>
    <field name="ip.len" showname="Total Length: 64" size="2" pos="16" show="64" value="0040"/>
    <field name="ip.id" showname="Identification: 0x38a5 (14501)" size="2" pos="18" show="14501" value="38a5"/>
    <field name="ip.flags" showname="Flags: 0x02 (Don&apos;t Fragment)" size="1" pos="20" show="2" value="40">
      <field name="ip.flags.rb" showname="0... .... = Reserved bit: Not set" size="1" pos="20" show="0" value="40"/>
      <field name="ip.flags.df" showname=".1.. .... = Don&apos;t fragment: Set" size="1" pos="20" show="1" value="40"/>
      <field name="ip.flags.mf" showname="..0. .... = More fragments: Not set" size="1" pos="20" show="0" value="40"/>
    </field>
    <field name="ip.frag_offset" showname="Fragment offset: 0" size="2" pos="20" show="0" value="4000"/>
    <field name="ip.ttl" showname="Time to live: 64" size="1" pos="22" show="64" value="40"/>
    <field name="ip.proto" showname="Protocol: TCP (6)" size="1" pos="23" show="6" value="06"/>
    <field name="ip.checksum" showname="Header checksum: 0x53fe [validation disabled]" size="2" pos="24" show="21502" value="53fe">
      <field name="ip.checksum_good" showname="Good: False" size="2" pos="24" show="0" value="53fe"/>
      <field name="ip.checksum_bad" showname="Bad: False" size="2" pos="24" show="0" value="53fe"/>
    </field>
    <field name="ip.src" showname="Source: 172.17.0.2 (172.17.0.2)" size="4" pos="26" show="172.17.0.2" value="ac110002"/>
    <field name="ip.addr" showname="Source or Destination Address: 172.17.0.2 (172.17.0.2)" hide="yes" size="4" pos="26" show="172.17.0.2" value="ac110002"/>
    <field name="ip.src_host" showname="Source Host: 172.17.0.2" hide="yes" size="4" pos="26" show="172.17.0.2" value="ac110002"/>
    <field name="ip.host" showname="Source or Destination Host: 172.17.0.2" hide="yes" size="4" pos="26" show="172.17.0.2" value="ac110002"/>
    <field name="ip.dst" showname="Destination: 1.1.1.1 (1.1.1.1)" size="4" pos="30" show="1.1.1.1" value="01010101"/>
    <field name="ip.addr" showname="Source or Destination Address: 1.1.1.1 (1.1.1.1)" hide="yes" size="4" pos="30" show="1.1.1.1" value="01010101"/>
    <field name="ip.dst_host" showname="Destination Host: 1.1.1.1" hide="yes" size="4" pos="30" show="1.1.1.1" value="01010101"/>
    <field name="ip.host" showname="Source or Destination Host: 1.1.1.1" hide="yes" size="4" pos="30" show="1.1.1.1" value="01010101"/>
  </proto>
  <proto name="tcp" showname="Transmission Control Protocol, Src Port: 59654 (59654), Dst Port: 853 (853), Seq: 570, Ack: 3203, Len: 24" size="20" pos="34">
    <field name="tcp.srcport" showname="Source port: 59654 (59654)" size="2" pos="34" show="59654" value="e906"/>
    <field name="tcp.dstport" showname="Destination port: 853 (853)" size="2" pos="36" show="853" value="0355"/>
    <field name="tcp.port" showname="Source or Destination Port: 59654" hide="yes" size="2" pos="34" show="59654" value="e906"/>
    <field name="tcp.port" showname="Source or Destination Port: 853" hide="yes" size="2" pos="36" show="853" value="0355"/>
    <field name="tcp.stream" showname="Stream index: 0" size="0" pos="34" show="0"/>
    <field name="tcp.len" showname="TCP Segment Len: 24" hide="yes" size="1" pos="46" show="24" value="50"/>
    <field name="tcp.seq" showname="Sequence number: 570    (relative sequence number)" size="4" pos="38" show="570" value="f2f152e8"/>
    <field name="tcp.nxtseq" showname="Next sequence number: 594    (relative sequence number)" size="0" pos="34" show="594"/>
    <field name="tcp.ack" showname="Acknowledgment number: 3203    (relative ack number)" size="4" pos="42" show="3203" value="582620a0"/>
    <field name="tcp.hdr_len" showname="Header length: 20 bytes" size="1" pos="46" show="20" value="50"/>
    <field name="tcp.flags" showname="Flags: 0x018 (PSH, ACK)" size="2" pos="46" show="24" value="18" unmaskedvalue="5018">
      <field name="tcp.flags.res" showname="000. .... .... = Reserved: Not set" size="1" pos="46" show="0" value="0" unmaskedvalue="50"/>
      <field name="tcp.flags.ns" showname="...0 .... .... = Nonce: Not set" size="1" pos="46" show="0" value="0" unmaskedvalue="50"/>
      <field name="tcp.flags.cwr" showname=".... 0... .... = Congestion Window Reduced (CWR): Not set" size="1" pos="47" show="0" value="0" unmaskedvalue="18"/>
      <field name="tcp.flags.ecn" showname=".... .0.. .... = ECN-Echo: Not set" size="1" pos="47" show="0" value="0" unmaskedvalue="18"/>
      <field name="tcp.flags.urg" showname=".... ..0. .... = Urgent: Not set" size="1" pos="47" show="0" value="0" unmaskedvalue="18"/>
      <field name="tcp.flags.ack" showname=".... ...1 .... = Acknowledgment: Set" size="1" pos="47" show="1" value="1" unmaskedvalue="18"/>
      <field name="tcp.flags.push" showname=".... .... 1... = Push: Set" size="1" pos="47" show="1" value="1" unmaskedvalue="18"/>
      <field name="tcp.flags.reset" showname=".... .... .0.. = Reset: Not set" size="1" pos="47" show="0" value="0" unmaskedvalue="18"/>
      <field name="tcp.flags.syn" showname=".... .... ..0. = Syn: Not set" size="1" pos="47" show="0" value="0" unmaskedvalue="18"/>
      <field name="tcp.flags.fin" showname=".... .... ...0 = Fin: Not set" size="1" pos="47" show="0" value="0" unmaskedvalue="18"/>
    </field>
    <field name="tcp.window_size_value" showname="Window size value: 328" size="2" pos="48" show="328" value="0148"/>
    <field name="tcp.window_size" showname="Calculated window size: 41984" size="2" pos="48" show="41984" value="0148"/>
    <field name="tcp.window_size_scalefactor" showname="Window size scaling factor: 128" size="2" pos="48" show="128" value="0148"/>
    <field name="tcp.checksum" showname="Checksum: 0xae47 [validation disabled]" size="2" pos="50" show="44615" value="ae47">
      <field name="tcp.checksum_good" showname="Good Checksum: False" size="2" pos="50" show="0" value="ae47"/>
      <field name="tcp.checksum_bad" showname="Bad Checksum: False" size="2" pos="50" show="0" value="ae47"/>
    </field>
    <field name="tcp.analysis" showname="SEQ/ACK analysis" size="0" pos="34" show="" value="">
      <field name="tcp.analysis.acks_frame" showname="This is an ACK to the segment in frame: 18" size="0" pos="34" show="18"/>
      <field name="tcp.analysis.ack_rtt" showname="The RTT to ACK the segment was: 0.000211000 seconds" size="0" pos="34" show="0.000211000"/>
      <field name="tcp.analysis.bytes_in_flight" showname="Bytes in flight: 24" size="0" pos="34" show="24"/>
    </field>
  </proto>
  <proto name="fake-field-wrapper">
    <field name="data" value="1703030013fb6dfd9936d3d8c366a3a56dea91d1def1b2c4">
      <field name="data.data" showname="Data: 1703030013fb6dfd9936d3d8c366a3a56dea91d1def1b2c4" size="24" pos="54" show="17:03:03:00:13:fb:6d:fd:99:36:d3:d8:c3:66:a3:a5:6d:ea:91:d1:de:f1:b2:c4" value="1703030013fb6dfd9936d3d8c366a3a56dea91d1def1b2c4"/>
      <field name="data.len" showname="Length: 24" size="0" pos="54" show="24"/>
  </field>
</proto>
</packet>


<packet>
  <proto name="geninfo" pos="0" showname="General information" size="54">
    <field name="num" pos="0" show="20" showname="Number" value="14" size="54"/>
    <field name="len" pos="0" show="54" showname="Frame Length" value="36" size="54"/>
    <field name="caplen" pos="0" show="54" showname="Captured Length" value="36" size="54"/>
    <field name="timestamp" pos="0" show="Jun 27, 2019 12:20:57.045680000 CEST" showname="Captured Time" value="1561630857.045680000" size="54"/>
  </proto>
  <proto name="frame" showname="Frame 20: 54 bytes on wire (432 bits), 54 bytes captured (432 bits) on interface 0" size="54" pos="0">
    <field name="frame.interface_id" showname="Interface id: 0" size="0" pos="0" show="0"/>
    <field name="frame.encap_type" showname="Encapsulation type: Ethernet (1)" size="0" pos="0" show="1"/>
    <field name="frame.time" showname="Arrival Time: Jun 27, 2019 12:20:57.045680000 CEST" size="0" pos="0" show="&quot;Jun 27, 2019 12:20:57.045680000 CEST&quot;"/>
    <field name="frame.offset_shift" showname="Time shift for this packet: 0.000000000 seconds" size="0" pos="0" show="0.000000000"/>
    <field name="frame.time_epoch" showname="Epoch Time: 1561630857.045680000 seconds" size="0" pos="0" show="1561630857.045680000"/>
    <field name="frame.time_delta" showname="Time delta from previous captured frame: 0.000070000 seconds" size="0" pos="0" show="0.000070000"/>
    <field name="frame.time_delta_displayed" showname="Time delta from previous displayed frame: 0.000070000 seconds" size="0" pos="0" show="0.000070000"/>
    <field name="frame.time_relative" showname="Time since reference or first frame: 0.058618000 seconds" size="0" pos="0" show="0.058618000"/>
    <field name="frame.number" showname="Frame Number: 20" size="0" pos="0" show="20"/>
    <field name="frame.len" showname="Frame Length: 54 bytes (432 bits)" size="0" pos="0" show="54"/>
    <field name="frame.cap_len" showname="Capture Length: 54 bytes (432 bits)" size="0" pos="0" show="54"/>
    <field name="frame.marked" showname="Frame is marked: False" size="0" pos="0" show="0"/>
    <field name="frame.ignored" showname="Frame is ignored: False" size="0" pos="0" show="0"/>
    <field name="frame.protocols" showname="Protocols in frame: eth:ip:tcp" size="0" pos="0" show="eth:ip:tcp"/>
  </proto>
  <proto name="eth" showname="Ethernet II, Src: 02:42:ac:11:00:02 (02:42:ac:11:00:02), Dst: 02:42:71:12:56:af (02:42:71:12:56:af)" size="14" pos="0">
    <field name="eth.dst" showname="Destination: 02:42:71:12:56:af (02:42:71:12:56:af)" size="6" pos="0" show="02:42:71:12:56:af" value="0242711256af">
      <field name="eth.addr" showname="Address: 02:42:71:12:56:af (02:42:71:12:56:af)" size="6" pos="0" show="02:42:71:12:56:af" value="0242711256af"/>
      <field name="eth.lg" showname=".... ..1. .... .... .... .... = LG bit: Locally administered address (this is NOT the factory default)" size="3" pos="0" show="1" value="1" unmaskedvalue="024271"/>
      <field name="eth.ig" showname=".... ...0 .... .... .... .... = IG bit: Individual address (unicast)" size="3" pos="0" show="0" value="0" unmaskedvalue="024271"/>
    </field>
    <field name="eth.src" showname="Source: 02:42:ac:11:00:02 (02:42:ac:11:00:02)" size="6" pos="6" show="02:42:ac:11:00:02" value="0242ac110002">
      <field name="eth.addr" showname="Address: 02:42:ac:11:00:02 (02:42:ac:11:00:02)" size="6" pos="6" show="02:42:ac:11:00:02" value="0242ac110002"/>
      <field name="eth.lg" showname=".... ..1. .... .... .... .... = LG bit: Locally administered address (this is NOT the factory default)" size="3" pos="6" show="1" value="1" unmaskedvalue="0242ac"/>
      <field name="eth.ig" showname=".... ...0 .... .... .... .... = IG bit: Individual address (unicast)" size="3" pos="6" show="0" value="0" unmaskedvalue="0242ac"/>
    </field>
    <field name="eth.type" showname="Type: IP (0x0800)" size="2" pos="12" show="2048" value="0800"/>
  </proto>
  <proto name="ip" showname="Internet Protocol Version 4, Src: 172.17.0.2 (172.17.0.2), Dst: 1.1.1.1 (1.1.1.1)" size="20" pos="14">
    <field name="ip.version" showname="Version: 4" size="1" pos="14" show="4" value="45"/>
    <field name="ip.hdr_len" showname="Header length: 20 bytes" size="1" pos="14" show="20" value="45"/>
    <field name="ip.dsfield" showname="Differentiated Services Field: 0x00 (DSCP 0x00: Default; ECN: 0x00: Not-ECT (Not ECN-Capable Transport))" size="1" pos="15" show="0" value="00">
      <field name="ip.dsfield.dscp" showname="0000 00.. = Differentiated Services Codepoint: Default (0x00)" size="1" pos="15" show="0" value="0" unmaskedvalue="00"/>
      <field name="ip.dsfield.ecn" showname=".... ..00 = Explicit Congestion Notification: Not-ECT (Not ECN-Capable Transport) (0x00)" size="1" pos="15" show="0" value="0" unmaskedvalue="00"/>
    </field>
    <field name="ip.len" showname="Total Length: 40" size="2" pos="16" show="40" value="0028"/>
    <field name="ip.id" showname="Identification: 0x38a6 (14502)" size="2" pos="18" show="14502" value="38a6"/>
    <field name="ip.flags" showname="Flags: 0x02 (Don&apos;t Fragment)" size="1" pos="20" show="2" value="40">
      <field name="ip.flags.rb" showname="0... .... = Reserved bit: Not set" size="1" pos="20" show="0" value="40"/>
      <field name="ip.flags.df" showname=".1.. .... = Don&apos;t fragment: Set" size="1" pos="20" show="1" value="40"/>
      <field name="ip.flags.mf" showname="..0. .... = More fragments: Not set" size="1" pos="20" show="0" value="40"/>
    </field>
    <field name="ip.frag_offset" showname="Fragment offset: 0" size="2" pos="20" show="0" value="4000"/>
    <field name="ip.ttl" showname="Time to live: 64" size="1" pos="22" show="64" value="40"/>
    <field name="ip.proto" showname="Protocol: TCP (6)" size="1" pos="23" show="6" value="06"/>
    <field name="ip.checksum" showname="Header checksum: 0x5415 [validation disabled]" size="2" pos="24" show="21525" value="5415">
      <field name="ip.checksum_good" showname="Good: False" size="2" pos="24" show="0" value="5415"/>
      <field name="ip.checksum_bad" showname="Bad: False" size="2" pos="24" show="0" value="5415"/>
    </field>
    <field name="ip.src" showname="Source: 172.17.0.2 (172.17.0.2)" size="4" pos="26" show="172.17.0.2" value="ac110002"/>
    <field name="ip.addr" showname="Source or Destination Address: 172.17.0.2 (172.17.0.2)" hide="yes" size="4" pos="26" show="172.17.0.2" value="ac110002"/>
    <field name="ip.src_host" showname="Source Host: 172.17.0.2" hide="yes" size="4" pos="26" show="172.17.0.2" value="ac110002"/>
    <field name="ip.host" showname="Source or Destination Host: 172.17.0.2" hide="yes" size="4" pos="26" show="172.17.0.2" value="ac110002"/>
    <field name="ip.dst" showname="Destination: 1.1.1.1 (1.1.1.1)" size="4" pos="30" show="1.1.1.1" value="01010101"/>
    <field name="ip.addr" showname="Source or Destination Address: 1.1.1.1 (1.1.1.1)" hide="yes" size="4" pos="30" show="1.1.1.1" value="01010101"/>
    <field name="ip.dst_host" showname="Destination Host: 1.1.1.1" hide="yes" size="4" pos="30" show="1.1.1.1" value="01010101"/>
    <field name="ip.host" showname="Source or Destination Host: 1.1.1.1" hide="yes" size="4" pos="30" show="1.1.1.1" value="01010101"/>
  </proto>
  <proto name="tcp" showname="Transmission Control Protocol, Src Port: 59654 (59654), Dst Port: 853 (853), Seq: 594, Ack: 3203, Len: 0" size="20" pos="34">
    <field name="tcp.srcport" showname="Source port: 59654 (59654)" size="2" pos="34" show="59654" value="e906"/>
    <field name="tcp.dstport" showname="Destination port: 853 (853)" size="2" pos="36" show="853" value="0355"/>
    <field name="tcp.port" showname="Source or Destination Port: 59654" hide="yes" size="2" pos="34" show="59654" value="e906"/>
    <field name="tcp.port" showname="Source or Destination Port: 853" hide="yes" size="2" pos="36" show="853" value="0355"/>
    <field name="tcp.stream" showname="Stream index: 0" size="0" pos="34" show="0"/>
    <field name="tcp.len" showname="TCP Segment Len: 0" hide="yes" size="1" pos="46" show="0" value="50"/>
    <field name="tcp.seq" showname="Sequence number: 594    (relative sequence number)" size="4" pos="38" show="594" value="f2f15300"/>
    <field name="tcp.ack" showname="Acknowledgment number: 3203    (relative ack number)" size="4" pos="42" show="3203" value="582620a0"/>
    <field name="tcp.hdr_len" showname="Header length: 20 bytes" size="1" pos="46" show="20" value="50"/>
    <field name="tcp.flags" showname="Flags: 0x011 (FIN, ACK)" size="2" pos="46" show="17" value="11" unmaskedvalue="5011">
      <field name="tcp.flags.res" showname="000. .... .... = Reserved: Not set" size="1" pos="46" show="0" value="0" unmaskedvalue="50"/>
      <field name="tcp.flags.ns" showname="...0 .... .... = Nonce: Not set" size="1" pos="46" show="0" value="0" unmaskedvalue="50"/>
      <field name="tcp.flags.cwr" showname=".... 0... .... = Congestion Window Reduced (CWR): Not set" size="1" pos="47" show="0" value="0" unmaskedvalue="11"/>
      <field name="tcp.flags.ecn" showname=".... .0.. .... = ECN-Echo: Not set" size="1" pos="47" show="0" value="0" unmaskedvalue="11"/>
      <field name="tcp.flags.urg" showname=".... ..0. .... = Urgent: Not set" size="1" pos="47" show="0" value="0" unmaskedvalue="11"/>
      <field name="tcp.flags.ack" showname=".... ...1 .... = Acknowledgment: Set" size="1" pos="47" show="1" value="1" unmaskedvalue="11"/>
      <field name="tcp.flags.push" showname=".... .... 0... = Push: Not set" size="1" pos="47" show="0" value="0" unmaskedvalue="11"/>
      <field name="tcp.flags.reset" showname=".... .... .0.. = Reset: Not set" size="1" pos="47" show="0" value="0" unmaskedvalue="11"/>
      <field name="tcp.flags.syn" showname=".... .... ..0. = Syn: Not set" size="1" pos="47" show="0" value="0" unmaskedvalue="11"/>
      <field name="tcp.flags.fin" showname=".... .... ...1 = Fin: Set" size="1" pos="47" show="1" value="1" unmaskedvalue="11">
        <field name="expert" showname="Expert Info (Chat/Sequence): Connection finish (FIN)" size="0" pos="47">
          <field name="expert.message" showname="Message: Connection finish (FIN)" size="0" pos="0" show="Connection finish (FIN)"/>
          <field name="expert.severity" showname="Severity level: Chat" size="0" pos="0" show="2097152"/>
          <field name="expert.group" showname="Group: Sequence" size="0" pos="0" show="33554432"/>
        </field>
      </field>
    </field>
    <field name="tcp.window_size_value" showname="Window size value: 328" size="2" pos="48" show="328" value="0148"/>
    <field name="tcp.window_size" showname="Calculated window size: 41984" size="2" pos="48" show="41984" value="0148"/>
    <field name="tcp.window_size_scalefactor" showname="Window size scaling factor: 128" size="2" pos="48" show="128" value="0148"/>
    <field name="tcp.checksum" showname="Checksum: 0xae2f [validation disabled]" size="2" pos="50" show="44591" value="ae2f">
      <field name="tcp.checksum_good" showname="Good Checksum: False" size="2" pos="50" show="0" value="ae2f"/>
      <field name="tcp.checksum_bad" showname="Bad Checksum: False" size="2" pos="50" show="0" value="ae2f"/>
    </field>
  </proto>
</packet>


<packet>
  <proto name="geninfo" pos="0" showname="General information" size="54">
    <field name="num" pos="0" show="21" showname="Number" value="15" size="54"/>
    <field name="len" pos="0" show="54" showname="Frame Length" value="36" size="54"/>
    <field name="caplen" pos="0" show="54" showname="Captured Length" value="36" size="54"/>
    <field name="timestamp" pos="0" show="Jun 27, 2019 12:20:57.049307000 CEST" showname="Captured Time" value="1561630857.049307000" size="54"/>
  </proto>
  <proto name="frame" showname="Frame 21: 54 bytes on wire (432 bits), 54 bytes captured (432 bits) on interface 0" size="54" pos="0">
    <field name="frame.interface_id" showname="Interface id: 0" size="0" pos="0" show="0"/>
    <field name="frame.encap_type" showname="Encapsulation type: Ethernet (1)" size="0" pos="0" show="1"/>
    <field name="frame.time" showname="Arrival Time: Jun 27, 2019 12:20:57.049307000 CEST" size="0" pos="0" show="&quot;Jun 27, 2019 12:20:57.049307000 CEST&quot;"/>
    <field name="frame.offset_shift" showname="Time shift for this packet: 0.000000000 seconds" size="0" pos="0" show="0.000000000"/>
    <field name="frame.time_epoch" showname="Epoch Time: 1561630857.049307000 seconds" size="0" pos="0" show="1561630857.049307000"/>
    <field name="frame.time_delta" showname="Time delta from previous captured frame: 0.003627000 seconds" size="0" pos="0" show="0.003627000"/>
    <field name="frame.time_delta_displayed" showname="Time delta from previous displayed frame: 0.003627000 seconds" size="0" pos="0" show="0.003627000"/>
    <field name="frame.time_relative" showname="Time since reference or first frame: 0.062245000 seconds" size="0" pos="0" show="0.062245000"/>
    <field name="frame.number" showname="Frame Number: 21" size="0" pos="0" show="21"/>
    <field name="frame.len" showname="Frame Length: 54 bytes (432 bits)" size="0" pos="0" show="54"/>
    <field name="frame.cap_len" showname="Capture Length: 54 bytes (432 bits)" size="0" pos="0" show="54"/>
    <field name="frame.marked" showname="Frame is marked: False" size="0" pos="0" show="0"/>
    <field name="frame.ignored" showname="Frame is ignored: False" size="0" pos="0" show="0"/>
    <field name="frame.protocols" showname="Protocols in frame: eth:ip:tcp" size="0" pos="0" show="eth:ip:tcp"/>
  </proto>
  <proto name="eth" showname="Ethernet II, Src: 02:42:71:12:56:af (02:42:71:12:56:af), Dst: 02:42:ac:11:00:02 (02:42:ac:11:00:02)" size="14" pos="0">
    <field name="eth.dst" showname="Destination: 02:42:ac:11:00:02 (02:42:ac:11:00:02)" size="6" pos="0" show="02:42:ac:11:00:02" value="0242ac110002">
      <field name="eth.addr" showname="Address: 02:42:ac:11:00:02 (02:42:ac:11:00:02)" size="6" pos="0" show="02:42:ac:11:00:02" value="0242ac110002"/>
      <field name="eth.lg" showname=".... ..1. .... .... .... .... = LG bit: Locally administered address (this is NOT the factory default)" size="3" pos="0" show="1" value="1" unmaskedvalue="0242ac"/>
      <field name="eth.ig" showname=".... ...0 .... .... .... .... = IG bit: Individual address (unicast)" size="3" pos="0" show="0" value="0" unmaskedvalue="0242ac"/>
    </field>
    <field name="eth.src" showname="Source: 02:42:71:12:56:af (02:42:71:12:56:af)" size="6" pos="6" show="02:42:71:12:56:af" value="0242711256af">
      <field name="eth.addr" showname="Address: 02:42:71:12:56:af (02:42:71:12:56:af)" size="6" pos="6" show="02:42:71:12:56:af" value="0242711256af"/>
      <field name="eth.lg" showname=".... ..1. .... .... .... .... = LG bit: Locally administered address (this is NOT the factory default)" size="3" pos="6" show="1" value="1" unmaskedvalue="024271"/>
      <field name="eth.ig" showname=".... ...0 .... .... .... .... = IG bit: Individual address (unicast)" size="3" pos="6" show="0" value="0" unmaskedvalue="024271"/>
    </field>
    <field name="eth.type" showname="Type: IP (0x0800)" size="2" pos="12" show="2048" value="0800"/>
  </proto>
  <proto name="ip" showname="Internet Protocol Version 4, Src: 1.1.1.1 (1.1.1.1), Dst: 172.17.0.2 (172.17.0.2)" size="20" pos="14">
    <field name="ip.version" showname="Version: 4" size="1" pos="14" show="4" value="45"/>
    <field name="ip.hdr_len" showname="Header length: 20 bytes" size="1" pos="14" show="20" value="45"/>
    <field name="ip.dsfield" showname="Differentiated Services Field: 0x00 (DSCP 0x00: Default; ECN: 0x00: Not-ECT (Not ECN-Capable Transport))" size="1" pos="15" show="0" value="00">
      <field name="ip.dsfield.dscp" showname="0000 00.. = Differentiated Services Codepoint: Default (0x00)" size="1" pos="15" show="0" value="0" unmaskedvalue="00"/>
      <field name="ip.dsfield.ecn" showname=".... ..00 = Explicit Congestion Notification: Not-ECT (Not ECN-Capable Transport) (0x00)" size="1" pos="15" show="0" value="0" unmaskedvalue="00"/>
    </field>
    <field name="ip.len" showname="Total Length: 40" size="2" pos="16" show="40" value="0028"/>
    <field name="ip.id" showname="Identification: 0xf833 (63539)" size="2" pos="18" show="63539" value="f833"/>
    <field name="ip.flags" showname="Flags: 0x02 (Don&apos;t Fragment)" size="1" pos="20" show="2" value="40">
      <field name="ip.flags.rb" showname="0... .... = Reserved bit: Not set" size="1" pos="20" show="0" value="40"/>
      <field name="ip.flags.df" showname=".1.. .... = Don&apos;t fragment: Set" size="1" pos="20" show="1" value="40"/>
      <field name="ip.flags.mf" showname="..0. .... = More fragments: Not set" size="1" pos="20" show="0" value="40"/>
    </field>
    <field name="ip.frag_offset" showname="Fragment offset: 0" size="2" pos="20" show="0" value="4000"/>
    <field name="ip.ttl" showname="Time to live: 57" size="1" pos="22" show="57" value="39"/>
    <field name="ip.proto" showname="Protocol: TCP (6)" size="1" pos="23" show="6" value="06"/>
    <field name="ip.checksum" showname="Header checksum: 0x9b87 [validation disabled]" size="2" pos="24" show="39815" value="9b87">
      <field name="ip.checksum_good" showname="Good: False" size="2" pos="24" show="0" value="9b87"/>
      <field name="ip.checksum_bad" showname="Bad: False" size="2" pos="24" show="0" value="9b87"/>
    </field>
    <field name="ip.src" showname="Source: 1.1.1.1 (1.1.1.1)" size="4" pos="26" show="1.1.1.1" value="01010101"/>
    <field name="ip.addr" showname="Source or Destination Address: 1.1.1.1 (1.1.1.1)" hide="yes" size="4" pos="26" show="1.1.1.1" value="01010101"/>
    <field name="ip.src_host" showname="Source Host: 1.1.1.1" hide="yes" size="4" pos="26" show="1.1.1.1" value="01010101"/>
    <field name="ip.host" showname="Source or Destination Host: 1.1.1.1" hide="yes" size="4" pos="26" show="1.1.1.1" value="01010101"/>
    <field name="ip.dst" showname="Destination: 172.17.0.2 (172.17.0.2)" size="4" pos="30" show="172.17.0.2" value="ac110002"/>
    <field name="ip.addr" showname="Source or Destination Address: 172.17.0.2 (172.17.0.2)" hide="yes" size="4" pos="30" show="172.17.0.2" value="ac110002"/>
    <field name="ip.dst_host" showname="Destination Host: 172.17.0.2" hide="yes" size="4" pos="30" show="172.17.0.2" value="ac110002"/>
    <field name="ip.host" showname="Source or Destination Host: 172.17.0.2" hide="yes" size="4" pos="30" show="172.17.0.2" value="ac110002"/>
  </proto>
  <proto name="tcp" showname="Transmission Control Protocol, Src Port: 853 (853), Dst Port: 59654 (59654), Seq: 3203, Ack: 595, Len: 0" size="20" pos="34">
    <field name="tcp.srcport" showname="Source port: 853 (853)" size="2" pos="34" show="853" value="0355"/>
    <field name="tcp.dstport" showname="Destination port: 59654 (59654)" size="2" pos="36" show="59654" value="e906"/>
    <field name="tcp.port" showname="Source or Destination Port: 853" hide="yes" size="2" pos="34" show="853" value="0355"/>
    <field name="tcp.port" showname="Source or Destination Port: 59654" hide="yes" size="2" pos="36" show="59654" value="e906"/>
    <field name="tcp.stream" showname="Stream index: 0" size="0" pos="34" show="0"/>
    <field name="tcp.len" showname="TCP Segment Len: 0" hide="yes" size="1" pos="46" show="0" value="50"/>
    <field name="tcp.seq" showname="Sequence number: 3203    (relative sequence number)" size="4" pos="38" show="3203" value="582620a0"/>
    <field name="tcp.ack" showname="Acknowledgment number: 595    (relative ack number)" size="4" pos="42" show="595" value="f2f15301"/>
    <field name="tcp.hdr_len" showname="Header length: 20 bytes" size="1" pos="46" show="20" value="50"/>
    <field name="tcp.flags" showname="Flags: 0x011 (FIN, ACK)" size="2" pos="46" show="17" value="11" unmaskedvalue="5011">
      <field name="tcp.flags.res" showname="000. .... .... = Reserved: Not set" size="1" pos="46" show="0" value="0" unmaskedvalue="50"/>
      <field name="tcp.flags.ns" showname="...0 .... .... = Nonce: Not set" size="1" pos="46" show="0" value="0" unmaskedvalue="50"/>
      <field name="tcp.flags.cwr" showname=".... 0... .... = Congestion Window Reduced (CWR): Not set" size="1" pos="47" show="0" value="0" unmaskedvalue="11"/>
      <field name="tcp.flags.ecn" showname=".... .0.. .... = ECN-Echo: Not set" size="1" pos="47" show="0" value="0" unmaskedvalue="11"/>
      <field name="tcp.flags.urg" showname=".... ..0. .... = Urgent: Not set" size="1" pos="47" show="0" value="0" unmaskedvalue="11"/>
      <field name="tcp.flags.ack" showname=".... ...1 .... = Acknowledgment: Set" size="1" pos="47" show="1" value="1" unmaskedvalue="11"/>
      <field name="tcp.flags.push" showname=".... .... 0... = Push: Not set" size="1" pos="47" show="0" value="0" unmaskedvalue="11"/>
      <field name="tcp.flags.reset" showname=".... .... .0.. = Reset: Not set" size="1" pos="47" show="0" value="0" unmaskedvalue="11"/>
      <field name="tcp.flags.syn" showname=".... .... ..0. = Syn: Not set" size="1" pos="47" show="0" value="0" unmaskedvalue="11"/>
      <field name="tcp.flags.fin" showname=".... .... ...1 = Fin: Set" size="1" pos="47" show="1" value="1" unmaskedvalue="11">
        <field name="expert" showname="Expert Info (Chat/Sequence): Connection finish (FIN)" size="0" pos="47">
          <field name="expert.message" showname="Message: Connection finish (FIN)" size="0" pos="0" show="Connection finish (FIN)"/>
          <field name="expert.severity" showname="Severity level: Chat" size="0" pos="0" show="2097152"/>
          <field name="expert.group" showname="Group: Sequence" size="0" pos="0" show="33554432"/>
        </field>
      </field>
    </field>
    <field name="tcp.window_size_value" showname="Window size value: 31" size="2" pos="48" show="31" value="001f"/>
    <field name="tcp.window_size" showname="Calculated window size: 31744" size="2" pos="48" show="31744" value="001f"/>
    <field name="tcp.window_size_scalefactor" showname="Window size scaling factor: 1024" size="2" pos="48" show="1024" value="001f"/>
    <field name="tcp.checksum" showname="Checksum: 0x568a [validation disabled]" size="2" pos="50" show="22154" value="568a">
      <field name="tcp.checksum_good" showname="Good Checksum: False" size="2" pos="50" show="0" value="568a"/>
      <field name="tcp.checksum_bad" showname="Bad Checksum: False" size="2" pos="50" show="0" value="568a"/>
    </field>
    <field name="tcp.analysis" showname="SEQ/ACK analysis" size="0" pos="34" show="" value="">
      <field name="tcp.analysis.acks_frame" showname="This is an ACK to the segment in frame: 20" size="0" pos="34" show="20"/>
      <field name="tcp.analysis.ack_rtt" showname="The RTT to ACK the segment was: 0.003627000 seconds" size="0" pos="34" show="0.003627000"/>
    </field>
  </proto>
</packet>


<packet>
  <proto name="geninfo" pos="0" showname="General information" size="54">
    <field name="num" pos="0" show="22" showname="Number" value="16" size="54"/>
    <field name="len" pos="0" show="54" showname="Frame Length" value="36" size="54"/>
    <field name="caplen" pos="0" show="54" showname="Captured Length" value="36" size="54"/>
    <field name="timestamp" pos="0" show="Jun 27, 2019 12:20:57.049332000 CEST" showname="Captured Time" value="1561630857.049332000" size="54"/>
  </proto>
  <proto name="frame" showname="Frame 22: 54 bytes on wire (432 bits), 54 bytes captured (432 bits) on interface 0" size="54" pos="0">
    <field name="frame.interface_id" showname="Interface id: 0" size="0" pos="0" show="0"/>
    <field name="frame.encap_type" showname="Encapsulation type: Ethernet (1)" size="0" pos="0" show="1"/>
    <field name="frame.time" showname="Arrival Time: Jun 27, 2019 12:20:57.049332000 CEST" size="0" pos="0" show="&quot;Jun 27, 2019 12:20:57.049332000 CEST&quot;"/>
    <field name="frame.offset_shift" showname="Time shift for this packet: 0.000000000 seconds" size="0" pos="0" show="0.000000000"/>
    <field name="frame.time_epoch" showname="Epoch Time: 1561630857.049332000 seconds" size="0" pos="0" show="1561630857.049332000"/>
    <field name="frame.time_delta" showname="Time delta from previous captured frame: 0.000025000 seconds" size="0" pos="0" show="0.000025000"/>
    <field name="frame.time_delta_displayed" showname="Time delta from previous displayed frame: 0.000025000 seconds" size="0" pos="0" show="0.000025000"/>
    <field name="frame.time_relative" showname="Time since reference or first frame: 0.062270000 seconds" size="0" pos="0" show="0.062270000"/>
    <field name="frame.number" showname="Frame Number: 22" size="0" pos="0" show="22"/>
    <field name="frame.len" showname="Frame Length: 54 bytes (432 bits)" size="0" pos="0" show="54"/>
    <field name="frame.cap_len" showname="Capture Length: 54 bytes (432 bits)" size="0" pos="0" show="54"/>
    <field name="frame.marked" showname="Frame is marked: False" size="0" pos="0" show="0"/>
    <field name="frame.ignored" showname="Frame is ignored: False" size="0" pos="0" show="0"/>
    <field name="frame.protocols" showname="Protocols in frame: eth:ip:tcp" size="0" pos="0" show="eth:ip:tcp"/>
  </proto>
  <proto name="eth" showname="Ethernet II, Src: 02:42:ac:11:00:02 (02:42:ac:11:00:02), Dst: 02:42:71:12:56:af (02:42:71:12:56:af)" size="14" pos="0">
    <field name="eth.dst" showname="Destination: 02:42:71:12:56:af (02:42:71:12:56:af)" size="6" pos="0" show="02:42:71:12:56:af" value="0242711256af">
      <field name="eth.addr" showname="Address: 02:42:71:12:56:af (02:42:71:12:56:af)" size="6" pos="0" show="02:42:71:12:56:af" value="0242711256af"/>
      <field name="eth.lg" showname=".... ..1. .... .... .... .... = LG bit: Locally administered address (this is NOT the factory default)" size="3" pos="0" show="1" value="1" unmaskedvalue="024271"/>
      <field name="eth.ig" showname=".... ...0 .... .... .... .... = IG bit: Individual address (unicast)" size="3" pos="0" show="0" value="0" unmaskedvalue="024271"/>
    </field>
    <field name="eth.src" showname="Source: 02:42:ac:11:00:02 (02:42:ac:11:00:02)" size="6" pos="6" show="02:42:ac:11:00:02" value="0242ac110002">
      <field name="eth.addr" showname="Address: 02:42:ac:11:00:02 (02:42:ac:11:00:02)" size="6" pos="6" show="02:42:ac:11:00:02" value="0242ac110002"/>
      <field name="eth.lg" showname=".... ..1. .... .... .... .... = LG bit: Locally administered address (this is NOT the factory default)" size="3" pos="6" show="1" value="1" unmaskedvalue="0242ac"/>
      <field name="eth.ig" showname=".... ...0 .... .... .... .... = IG bit: Individual address (unicast)" size="3" pos="6" show="0" value="0" unmaskedvalue="0242ac"/>
    </field>
    <field name="eth.type" showname="Type: IP (0x0800)" size="2" pos="12" show="2048" value="0800"/>
  </proto>
  <proto name="ip" showname="Internet Protocol Version 4, Src: 172.17.0.2 (172.17.0.2), Dst: 1.1.1.1 (1.1.1.1)" size="20" pos="14">
    <field name="ip.version" showname="Version: 4" size="1" pos="14" show="4" value="45"/>
    <field name="ip.hdr_len" showname="Header length: 20 bytes" size="1" pos="14" show="20" value="45"/>
    <field name="ip.dsfield" showname="Differentiated Services Field: 0x00 (DSCP 0x00: Default; ECN: 0x00: Not-ECT (Not ECN-Capable Transport))" size="1" pos="15" show="0" value="00">
      <field name="ip.dsfield.dscp" showname="0000 00.. = Differentiated Services Codepoint: Default (0x00)" size="1" pos="15" show="0" value="0" unmaskedvalue="00"/>
      <field name="ip.dsfield.ecn" showname=".... ..00 = Explicit Congestion Notification: Not-ECT (Not ECN-Capable Transport) (0x00)" size="1" pos="15" show="0" value="0" unmaskedvalue="00"/>
    </field>
    <field name="ip.len" showname="Total Length: 40" size="2" pos="16" show="40" value="0028"/>
    <field name="ip.id" showname="Identification: 0x38a7 (14503)" size="2" pos="18" show="14503" value="38a7"/>
    <field name="ip.flags" showname="Flags: 0x02 (Don&apos;t Fragment)" size="1" pos="20" show="2" value="40">
      <field name="ip.flags.rb" showname="0... .... = Reserved bit: Not set" size="1" pos="20" show="0" value="40"/>
      <field name="ip.flags.df" showname=".1.. .... = Don&apos;t fragment: Set" size="1" pos="20" show="1" value="40"/>
      <field name="ip.flags.mf" showname="..0. .... = More fragments: Not set" size="1" pos="20" show="0" value="40"/>
    </field>
    <field name="ip.frag_offset" showname="Fragment offset: 0" size="2" pos="20" show="0" value="4000"/>
    <field name="ip.ttl" showname="Time to live: 64" size="1" pos="22" show="64" value="40"/>
    <field name="ip.proto" showname="Protocol: TCP (6)" size="1" pos="23" show="6" value="06"/>
    <field name="ip.checksum" showname="Header checksum: 0x5414 [validation disabled]" size="2" pos="24" show="21524" value="5414">
      <field name="ip.checksum_good" showname="Good: False" size="2" pos="24" show="0" value="5414"/>
      <field name="ip.checksum_bad" showname="Bad: False" size="2" pos="24" show="0" value="5414"/>
    </field>
    <field name="ip.src" showname="Source: 172.17.0.2 (172.17.0.2)" size="4" pos="26" show="172.17.0.2" value="ac110002"/>
    <field name="ip.addr" showname="Source or Destination Address: 172.17.0.2 (172.17.0.2)" hide="yes" size="4" pos="26" show="172.17.0.2" value="ac110002"/>
    <field name="ip.src_host" showname="Source Host: 172.17.0.2" hide="yes" size="4" pos="26" show="172.17.0.2" value="ac110002"/>
    <field name="ip.host" showname="Source or Destination Host: 172.17.0.2" hide="yes" size="4" pos="26" show="172.17.0.2" value="ac110002"/>
    <field name="ip.dst" showname="Destination: 1.1.1.1 (1.1.1.1)" size="4" pos="30" show="1.1.1.1" value="01010101"/>
    <field name="ip.addr" showname="Source or Destination Address: 1.1.1.1 (1.1.1.1)" hide="yes" size="4" pos="30" show="1.1.1.1" value="01010101"/>
    <field name="ip.dst_host" showname="Destination Host: 1.1.1.1" hide="yes" size="4" pos="30" show="1.1.1.1" value="01010101"/>
    <field name="ip.host" showname="Source or Destination Host: 1.1.1.1" hide="yes" size="4" pos="30" show="1.1.1.1" value="01010101"/>
  </proto>
  <proto name="tcp" showname="Transmission Control Protocol, Src Port: 59654 (59654), Dst Port: 853 (853), Seq: 595, Ack: 3204, Len: 0" size="20" pos="34">
    <field name="tcp.srcport" showname="Source port: 59654 (59654)" size="2" pos="34" show="59654" value="e906"/>
    <field name="tcp.dstport" showname="Destination port: 853 (853)" size="2" pos="36" show="853" value="0355"/>
    <field name="tcp.port" showname="Source or Destination Port: 59654" hide="yes" size="2" pos="34" show="59654" value="e906"/>
    <field name="tcp.port" showname="Source or Destination Port: 853" hide="yes" size="2" pos="36" show="853" value="0355"/>
    <field name="tcp.stream" showname="Stream index: 0" size="0" pos="34" show="0"/>
    <field name="tcp.len" showname="TCP Segment Len: 0" hide="yes" size="1" pos="46" show="0" value="50"/>
    <field name="tcp.seq" showname="Sequence number: 595    (relative sequence number)" size="4" pos="38" show="595" value="f2f15301"/>
    <field name="tcp.ack" showname="Acknowledgment number: 3204    (relative ack number)" size="4" pos="42" show="3204" value="582620a1"/>
    <field name="tcp.hdr_len" showname="Header length: 20 bytes" size="1" pos="46" show="20" value="50"/>
    <field name="tcp.flags" showname="Flags: 0x010 (ACK)" size="2" pos="46" show="16" value="10" unmaskedvalue="5010">
      <field name="tcp.flags.res" showname="000. .... .... = Reserved: Not set" size="1" pos="46" show="0" value="0" unmaskedvalue="50"/>
      <field name="tcp.flags.ns" showname="...0 .... .... = Nonce: Not set" size="1" pos="46" show="0" value="0" unmaskedvalue="50"/>
      <field name="tcp.flags.cwr" showname=".... 0... .... = Congestion Window Reduced (CWR): Not set" size="1" pos="47" show="0" value="0" unmaskedvalue="10"/>
      <field name="tcp.flags.ecn" showname=".... .0.. .... = ECN-Echo: Not set" size="1" pos="47" show="0" value="0" unmaskedvalue="10"/>
      <field name="tcp.flags.urg" showname=".... ..0. .... = Urgent: Not set" size="1" pos="47" show="0" value="0" unmaskedvalue="10"/>
      <field name="tcp.flags.ack" showname=".... ...1 .... = Acknowledgment: Set" size="1" pos="47" show="1" value="1" unmaskedvalue="10"/>
      <field name="tcp.flags.push" showname=".... .... 0... = Push: Not set" size="1" pos="47" show="0" value="0" unmaskedvalue="10"/>
      <field name="tcp.flags.reset" showname=".... .... .0.. = Reset: Not set" size="1" pos="47" show="0" value="0" unmaskedvalue="10"/>
      <field name="tcp.flags.syn" showname=".... .... ..0. = Syn: Not set" size="1" pos="47" show="0" value="0" unmaskedvalue="10"/>
      <field name="tcp.flags.fin" showname=".... .... ...0 = Fin: Not set" size="1" pos="47" show="0" value="0" unmaskedvalue="10"/>
    </field>
    <field name="tcp.window_size_value" showname="Window size value: 328" size="2" pos="48" show="328" value="0148"/>
    <field name="tcp.window_size" showname="Calculated window size: 41984" size="2" pos="48" show="41984" value="0148"/>
    <field name="tcp.window_size_scalefactor" showname="Window size scaling factor: 128" size="2" pos="48" show="128" value="0148"/>
    <field name="tcp.checksum" showname="Checksum: 0xae2f [validation disabled]" size="2" pos="50" show="44591" value="ae2f">
      <field name="tcp.checksum_good" showname="Good Checksum: False" size="2" pos="50" show="0" value="ae2f"/>
      <field name="tcp.checksum_bad" showname="Bad Checksum: False" size="2" pos="50" show="0" value="ae2f"/>
    </field>
    <field name="tcp.analysis" showname="SEQ/ACK analysis" size="0" pos="34" show="" value="">
      <field name="tcp.analysis.acks_frame" showname="This is an ACK to the segment in frame: 21" size="0" pos="34" show="21"/>
      <field name="tcp.analysis.ack_rtt" showname="The RTT to ACK the segment was: 0.000025000 seconds" size="0" pos="34" show="0.000025000"/>
    </field>
  </proto>
</packet>


</pdml>
