<?xml version="1.0"?>
<?xml-stylesheet type="text/xsl" href="pdml2html.xsl"?>
<!-- You can find pdml2html.xsl in /usr/share/wireshark or at http://anonsvn.wireshark.org/trunk/wireshark/pdml2html.xsl. -->
<pdml version="0" creator="wireshark/1.10.14" time="Wed Jul 24 18:55:38 2019" capture_file="ipv4--8.cap">
<packet>
  <proto name="geninfo" pos="0" showname="General information" size="74">
    <field name="num" pos="0" show="1" showname="Number" value="1" size="74"/>
    <field name="len" pos="0" show="74" showname="Frame Length" value="4a" size="74"/>
    <field name="caplen" pos="0" show="74" showname="Captured Length" value="4a" size="74"/>
    <field name="timestamp" pos="0" show="Jun 27, 2019 12:20:57.630683000 CEST" showname="Captured Time" value="1561630857.630683000" size="74"/>
  </proto>
  <proto name="frame" showname="Frame 1: 74 bytes on wire (592 bits), 74 bytes captured (592 bits) on interface 0" size="74" pos="0">
    <field name="frame.interface_id" showname="Interface id: 0" size="0" pos="0" show="0"/>
    <field name="frame.encap_type" showname="Encapsulation type: Ethernet (1)" size="0" pos="0" show="1"/>
    <field name="frame.time" showname="Arrival Time: Jun 27, 2019 12:20:57.630683000 CEST" size="0" pos="0" show="&quot;Jun 27, 2019 12:20:57.630683000 CEST&quot;"/>
    <field name="frame.offset_shift" showname="Time shift for this packet: 0.000000000 seconds" size="0" pos="0" show="0.000000000"/>
    <field name="frame.time_epoch" showname="Epoch Time: 1561630857.630683000 seconds" size="0" pos="0" show="1561630857.630683000"/>
    <field name="frame.time_delta" showname="Time delta from previous captured frame: 0.000000000 seconds" size="0" pos="0" show="0.000000000"/>
    <field name="frame.time_delta_displayed" showname="Time delta from previous displayed frame: 0.000000000 seconds" size="0" pos="0" show="0.000000000"/>
    <field name="frame.time_relative" showname="Time since reference or first frame: 0.000000000 seconds" size="0" pos="0" show="0.000000000"/>
    <field name="frame.number" showname="Frame Number: 1" size="0" pos="0" show="1"/>
    <field name="frame.len" showname="Frame Length: 74 bytes (592 bits)" size="0" pos="0" show="74"/>
    <field name="frame.cap_len" showname="Capture Length: 74 bytes (592 bits)" size="0" pos="0" show="74"/>
    <field name="frame.marked" showname="Frame is marked: False" size="0" pos="0" show="0"/>
    <field name="frame.ignored" showname="Frame is ignored: False" size="0" pos="0" show="0"/>
    <field name="frame.protocols" showname="Protocols in frame: eth:ip:tcp" size="0" pos="0" show="eth:ip:tcp"/>
  </proto>
  <proto name="eth" showname="Ethernet II, Src: 02:42:ac:11:00:02 (02:42:ac:11:00:02), Dst: 02:42:71:12:56:af (02:42:71:12:56:af)" size="14" pos="0">
    <field name="eth.dst" showname="Destination: 02:42:71:12:56:af (02:42:71:12:56:af)" size="6" pos="0" show="02:42:71:12:56:af" value="0242711256af">
      <field name="eth.addr" showname="Address: 02:42:71:12:56:af (02:42:71:12:56:af)" size="6" pos="0" show="02:42:71:12:56:af" value="0242711256af"/>
      <field name="eth.lg" showname=".... ..1. .... .... .... .... = LG bit: Locally administered address (this is NOT the factory default)" size="3" pos="0" show="1" value="1" unmaskedvalue="024271"/>
      <field name="eth.ig" showname=".... ...0 .... .... .... .... = IG bit: Individual address (unicast)" size="3" pos="0" show="0" value="0" unmaskedvalue="024271"/>
    </field>
    <field name="eth.src" showname="Source: 02:42:ac:11:00:02 (02:42:ac:11:00:02)" size="6" pos="6" show="02:42:ac:11:00:02" value="0242ac110002">
      <field name="eth.addr" showname="Address: 02:42:ac:11:00:02 (02:42:ac:11:00:02)" size="6" pos="6" show="02:42:ac:11:00:02" value="0242ac110002"/>
      <field name="eth.lg" showname=".... ..1. .... .... .... .... = LG bit: Locally administered address (this is NOT the factory default)" size="3" pos="6" show="1" value="1" unmaskedvalue="0242ac"/>
      <field name="eth.ig" showname=".... ...0 .... .... .... .... = IG bit: Individual address (unicast)" size="3" pos="6" show="0" value="0" unmaskedvalue="0242ac"/>
    </field>
    <field name="eth.type" showname="Type: IP (0x0800)" size="2" pos="12" show="2048" value="0800"/>
  </proto>
  <proto name="ip" showname="Internet Protocol Version 4, Src: 172.17.0.2 (172.17.0.2), Dst: 1.1.1.1 (1.1.1.1)" size="20" pos="14">
    <field name="ip.version" showname="Version: 4" size="1" pos="14" show="4" value="45"/>
    <field name="ip.hdr_len" showname="Header length: 20 bytes" size="1" pos="14" show="20" value="45"/>
    <field name="ip.dsfield" showname="Differentiated Services Field: 0x00 (DSCP 0x00: Default; ECN: 0x00: Not-ECT (Not ECN-Capable Transport))" size="1" pos="15" show="0" value="00">
      <field name="ip.dsfield.dscp" showname="0000 00.. = Differentiated Services Codepoint: Default (0x00)" size="1" pos="15" show="0" value="0" unmaskedvalue="00"/>
      <field name="ip.dsfield.ecn" showname=".... ..00 = Explicit Congestion Notification: Not-ECT (Not ECN-Capable Transport) (0x00)" size="1" pos="15" show="0" value="0" unmaskedvalue="00"/>
    </field>
    <field name="ip.len" showname="Total Length: 60" size="2" pos="16" show="60" value="003c"/>
    <field name="ip.id" showname="Identification: 0x7f02 (32514)" size="2" pos="18" show="32514" value="7f02"/>
    <field name="ip.flags" showname="Flags: 0x02 (Don&apos;t Fragment)" size="1" pos="20" show="2" value="40">
      <field name="ip.flags.rb" showname="0... .... = Reserved bit: Not set" size="1" pos="20" show="0" value="40"/>
      <field name="ip.flags.df" showname=".1.. .... = Don&apos;t fragment: Set" size="1" pos="20" show="1" value="40"/>
      <field name="ip.flags.mf" showname="..0. .... = More fragments: Not set" size="1" pos="20" show="0" value="40"/>
    </field>
    <field name="ip.frag_offset" showname="Fragment offset: 0" size="2" pos="20" show="0" value="4000"/>
    <field name="ip.ttl" showname="Time to live: 64" size="1" pos="22" show="64" value="40"/>
    <field name="ip.proto" showname="Protocol: TCP (6)" size="1" pos="23" show="6" value="06"/>
    <field name="ip.checksum" showname="Header checksum: 0x0da5 [validation disabled]" size="2" pos="24" show="3493" value="0da5">
      <field name="ip.checksum_good" showname="Good: False" size="2" pos="24" show="0" value="0da5"/>
      <field name="ip.checksum_bad" showname="Bad: False" size="2" pos="24" show="0" value="0da5"/>
    </field>
    <field name="ip.src" showname="Source: 172.17.0.2 (172.17.0.2)" size="4" pos="26" show="172.17.0.2" value="ac110002"/>
    <field name="ip.addr" showname="Source or Destination Address: 172.17.0.2 (172.17.0.2)" hide="yes" size="4" pos="26" show="172.17.0.2" value="ac110002"/>
    <field name="ip.src_host" showname="Source Host: 172.17.0.2" hide="yes" size="4" pos="26" show="172.17.0.2" value="ac110002"/>
    <field name="ip.host" showname="Source or Destination Host: 172.17.0.2" hide="yes" size="4" pos="26" show="172.17.0.2" value="ac110002"/>
    <field name="ip.dst" showname="Destination: 1.1.1.1 (1.1.1.1)" size="4" pos="30" show="1.1.1.1" value="01010101"/>
    <field name="ip.addr" showname="Source or Destination Address: 1.1.1.1 (1.1.1.1)" hide="yes" size="4" pos="30" show="1.1.1.1" value="01010101"/>
    <field name="ip.dst_host" showname="Destination Host: 1.1.1.1" hide="yes" size="4" pos="30" show="1.1.1.1" value="01010101"/>
    <field name="ip.host" showname="Source or Destination Host: 1.1.1.1" hide="yes" size="4" pos="30" show="1.1.1.1" value="01010101"/>
  </proto>
  <proto name="tcp" showname="Transmission Control Protocol, Src Port: 59666 (59666), Dst Port: 853 (853), Seq: 0, Len: 0" size="40" pos="34">
    <field name="tcp.srcport" showname="Source port: 59666 (59666)" size="2" pos="34" show="59666" value="e912"/>
    <field name="tcp.dstport" showname="Destination port: 853 (853)" size="2" pos="36" show="853" value="0355"/>
    <field name="tcp.port" showname="Source or Destination Port: 59666" hide="yes" size="2" pos="34" show="59666" value="e912"/>
    <field name="tcp.port" showname="Source or Destination Port: 853" hide="yes" size="2" pos="36" show="853" value="0355"/>
    <field name="tcp.stream" showname="Stream index: 0" size="0" pos="34" show="0"/>
    <field name="tcp.len" showname="TCP Segment Len: 0" hide="yes" size="1" pos="46" show="0" value="a0"/>
    <field name="tcp.seq" showname="Sequence number: 0    (relative sequence number)" size="4" pos="38" show="0" value="5f4215b7"/>
    <field name="tcp.hdr_len" showname="Header length: 40 bytes" size="1" pos="46" show="40" value="a0"/>
    <field name="tcp.flags" showname="Flags: 0x002 (SYN)" size="2" pos="46" show="2" value="2" unmaskedvalue="a002">
      <field name="tcp.flags.res" showname="000. .... .... = Reserved: Not set" size="1" pos="46" show="0" value="0" unmaskedvalue="a0"/>
      <field name="tcp.flags.ns" showname="...0 .... .... = Nonce: Not set" size="1" pos="46" show="0" value="0" unmaskedvalue="a0"/>
      <field name="tcp.flags.cwr" showname=".... 0... .... = Congestion Window Reduced (CWR): Not set" size="1" pos="47" show="0" value="0" unmaskedvalue="02"/>
      <field name="tcp.flags.ecn" showname=".... .0.. .... = ECN-Echo: Not set" size="1" pos="47" show="0" value="0" unmaskedvalue="02"/>
      <field name="tcp.flags.urg" showname=".... ..0. .... = Urgent: Not set" size="1" pos="47" show="0" value="0" unmaskedvalue="02"/>
      <field name="tcp.flags.ack" showname=".... ...0 .... = Acknowledgment: Not set" size="1" pos="47" show="0" value="0" unmaskedvalue="02"/>
      <field name="tcp.flags.push" showname=".... .... 0... = Push: Not set" size="1" pos="47" show="0" value="0" unmaskedvalue="02"/>
      <field name="tcp.flags.reset" showname=".... .... .0.. = Reset: Not set" size="1" pos="47" show="0" value="0" unmaskedvalue="02"/>
      <field name="tcp.flags.syn" showname=".... .... ..1. = Syn: Set" size="1" pos="47" show="1" value="1" unmaskedvalue="02">
        <field name="expert" showname="Expert Info (Chat/Sequence): Connection establish request (SYN): server port 853" size="0" pos="47">
          <field name="expert.message" showname="Message: Connection establish request (SYN): server port 853" size="0" pos="0" show="Connection establish request (SYN): server port 853"/>
          <field name="expert.severity" showname="Severity level: Chat" size="0" pos="0" show="2097152"/>
          <field name="expert.group" showname="Group: Sequence" size="0" pos="0" show="33554432"/>
        </field>
      </field>
      <field name="tcp.flags.fin" showname=".... .... ...0 = Fin: Not set" size="1" pos="47" show="0" value="0" unmaskedvalue="02"/>
    </field>
    <field name="tcp.window_size_value" showname="Window size value: 29200" size="2" pos="48" show="29200" value="7210"/>
    <field name="tcp.window_size" showname="Calculated window size: 29200" size="2" pos="48" show="29200" value="7210"/>
    <field name="tcp.checksum" showname="Checksum: 0xae43 [validation disabled]" size="2" pos="50" show="44611" value="ae43">
      <field name="tcp.checksum_good" showname="Good Checksum: False" size="2" pos="50" show="0" value="ae43"/>
      <field name="tcp.checksum_bad" showname="Bad Checksum: False" size="2" pos="50" show="0" value="ae43"/>
    </field>
    <field name="tcp.options" showname="Options: (20 bytes), Maximum segment size, SACK permitted, Timestamps, No-Operation (NOP), Window scale" size="20" pos="54" show="02:04:05:b4:04:02:08:0a:9b:12:6a:b5:00:00:00:00:01:03:03:07" value="020405b40402080a9b126ab50000000001030307">
      <field name="tcp.options.mss" showname="Maximum segment size: 1460 bytes" size="4" pos="54" show="" value="">
        <field name="tcp.option_kind" showname="Kind: MSS size (2)" size="1" pos="54" show="2" value="02"/>
        <field name="tcp.option_len" showname="Length: 4" size="1" pos="55" show="4" value="04"/>
        <field name="tcp.options.mss_val" showname="MSS Value: 1460" size="2" pos="56" show="1460" value="05b4"/>
      </field>
      <field name="tcp.options.sack_perm" showname="TCP SACK Permitted Option: True" size="2" pos="58" show="1" value="0402">
        <field name="tcp.option_kind" showname="Kind: SACK Permission (4)" size="1" pos="58" show="4" value="04"/>
        <field name="tcp.option_len" showname="Length: 2" size="1" pos="59" show="2" value="02"/>
      </field>
      <field name="" show="Timestamps: TSval 2601675445, TSecr 0" size="10" pos="60" value="080a9b126ab500000000">
        <field name="tcp.option_kind" showname="Kind: Timestamp (8)" size="1" pos="60" show="8" value="08"/>
        <field name="tcp.option_len" showname="Length: 10" size="1" pos="61" show="10" value="0a"/>
        <field name="tcp.options.timestamp.tsval" showname="Timestamp value: 2601675445" size="4" pos="62" show="2601675445" value="9b126ab5"/>
        <field name="tcp.options.timestamp.tsecr" showname="Timestamp echo reply: 0" size="4" pos="66" show="0" value="00000000"/>
      </field>
      <field name="" show="No-Operation (NOP)" size="1" pos="70" value="01">
        <field name="tcp.options.type" showname="Type: 1" size="1" pos="70" show="1" value="01">
          <field name="tcp.options.type.copy" showname="0... .... = Copy on fragmentation: No" size="1" pos="70" show="0" value="0" unmaskedvalue="01"/>
          <field name="tcp.options.type.class" showname=".00. .... = Class: Control (0)" size="1" pos="70" show="0" value="0" unmaskedvalue="01"/>
          <field name="tcp.options.type.number" showname="...0 0001 = Number: No-Operation (NOP) (1)" size="1" pos="70" show="1" value="1" unmaskedvalue="01"/>
        </field>
      </field>
      <field name="" show="Window scale: 7 (multiply by 128)" size="3" pos="71" value="030307">
        <field name="tcp.option_kind" showname="Kind: Window Scale (3)" size="1" pos="71" show="3" value="03"/>
        <field name="tcp.option_len" showname="Length: 3" size="1" pos="72" show="3" value="03"/>
        <field name="tcp.options.wscale.shift" showname="Shift count: 7" size="1" pos="73" show="7" value="07"/>
        <field name="tcp.options.wscale.multiplier" showname="Multiplier: 128" size="1" pos="73" show="128" value="07"/>
      </field>
    </field>
  </proto>
</packet>


<packet>
  <proto name="geninfo" pos="0" showname="General information" size="66">
    <field name="num" pos="0" show="2" showname="Number" value="2" size="66"/>
    <field name="len" pos="0" show="66" showname="Frame Length" value="42" size="66"/>
    <field name="caplen" pos="0" show="66" showname="Captured Length" value="42" size="66"/>
    <field name="timestamp" pos="0" show="Jun 27, 2019 12:20:57.634372000 CEST" showname="Captured Time" value="1561630857.634372000" size="66"/>
  </proto>
  <proto name="frame" showname="Frame 2: 66 bytes on wire (528 bits), 66 bytes captured (528 bits) on interface 0" size="66" pos="0">
    <field name="frame.interface_id" showname="Interface id: 0" size="0" pos="0" show="0"/>
    <field name="frame.encap_type" showname="Encapsulation type: Ethernet (1)" size="0" pos="0" show="1"/>
    <field name="frame.time" showname="Arrival Time: Jun 27, 2019 12:20:57.634372000 CEST" size="0" pos="0" show="&quot;Jun 27, 2019 12:20:57.634372000 CEST&quot;"/>
    <field name="frame.offset_shift" showname="Time shift for this packet: 0.000000000 seconds" size="0" pos="0" show="0.000000000"/>
    <field name="frame.time_epoch" showname="Epoch Time: 1561630857.634372000 seconds" size="0" pos="0" show="1561630857.634372000"/>
    <field name="frame.time_delta" showname="Time delta from previous captured frame: 0.003689000 seconds" size="0" pos="0" show="0.003689000"/>
    <field name="frame.time_delta_displayed" showname="Time delta from previous displayed frame: 0.003689000 seconds" size="0" pos="0" show="0.003689000"/>
    <field name="frame.time_relative" showname="Time since reference or first frame: 0.003689000 seconds" size="0" pos="0" show="0.003689000"/>
    <field name="frame.number" showname="Frame Number: 2" size="0" pos="0" show="2"/>
    <field name="frame.len" showname="Frame Length: 66 bytes (528 bits)" size="0" pos="0" show="66"/>
    <field name="frame.cap_len" showname="Capture Length: 66 bytes (528 bits)" size="0" pos="0" show="66"/>
    <field name="frame.marked" showname="Frame is marked: False" size="0" pos="0" show="0"/>
    <field name="frame.ignored" showname="Frame is ignored: False" size="0" pos="0" show="0"/>
    <field name="frame.protocols" showname="Protocols in frame: eth:ip:tcp" size="0" pos="0" show="eth:ip:tcp"/>
  </proto>
  <proto name="eth" showname="Ethernet II, Src: 02:42:71:12:56:af (02:42:71:12:56:af), Dst: 02:42:ac:11:00:02 (02:42:ac:11:00:02)" size="14" pos="0">
    <field name="eth.dst" showname="Destination: 02:42:ac:11:00:02 (02:42:ac:11:00:02)" size="6" pos="0" show="02:42:ac:11:00:02" value="0242ac110002">
      <field name="eth.addr" showname="Address: 02:42:ac:11:00:02 (02:42:ac:11:00:02)" size="6" pos="0" show="02:42:ac:11:00:02" value="0242ac110002"/>
      <field name="eth.lg" showname=".... ..1. .... .... .... .... = LG bit: Locally administered address (this is NOT the factory default)" size="3" pos="0" show="1" value="1" unmaskedvalue="0242ac"/>
      <field name="eth.ig" showname=".... ...0 .... .... .... .... = IG bit: Individual address (unicast)" size="3" pos="0" show="0" value="0" unmaskedvalue="0242ac"/>
    </field>
    <field name="eth.src" showname="Source: 02:42:71:12:56:af (02:42:71:12:56:af)" size="6" pos="6" show="02:42:71:12:56:af" value="0242711256af">
      <field name="eth.addr" showname="Address: 02:42:71:12:56:af (02:42:71:12:56:af)" size="6" pos="6" show="02:42:71:12:56:af" value="0242711256af"/>
      <field name="eth.lg" showname=".... ..1. .... .... .... .... = LG bit: Locally administered address (this is NOT the factory default)" size="3" pos="6" show="1" value="1" unmaskedvalue="024271"/>
      <field name="eth.ig" showname=".... ...0 .... .... .... .... = IG bit: Individual address (unicast)" size="3" pos="6" show="0" value="0" unmaskedvalue="024271"/>
    </field>
    <field name="eth.type" showname="Type: IP (0x0800)" size="2" pos="12" show="2048" value="0800"/>
  </proto>
  <proto name="ip" showname="Internet Protocol Version 4, Src: 1.1.1.1 (1.1.1.1), Dst: 172.17.0.2 (172.17.0.2)" size="20" pos="14">
    <field name="ip.version" showname="Version: 4" size="1" pos="14" show="4" value="45"/>
    <field name="ip.hdr_len" showname="Header length: 20 bytes" size="1" pos="14" show="20" value="45"/>
    <field name="ip.dsfield" showname="Differentiated Services Field: 0x00 (DSCP 0x00: Default; ECN: 0x00: Not-ECT (Not ECN-Capable Transport))" size="1" pos="15" show="0" value="00">
      <field name="ip.dsfield.dscp" showname="0000 00.. = Differentiated Services Codepoint: Default (0x00)" size="1" pos="15" show="0" value="0" unmaskedvalue="00"/>
      <field name="ip.dsfield.ecn" showname=".... ..00 = Explicit Congestion Notification: Not-ECT (Not ECN-Capable Transport) (0x00)" size="1" pos="15" show="0" value="0" unmaskedvalue="00"/>
    </field>
    <field name="ip.len" showname="Total Length: 52" size="2" pos="16" show="52" value="0034"/>
    <field name="ip.id" showname="Identification: 0x0000 (0)" size="2" pos="18" show="0" value="0000"/>
    <field name="ip.flags" showname="Flags: 0x02 (Don&apos;t Fragment)" size="1" pos="20" show="2" value="40">
      <field name="ip.flags.rb" showname="0... .... = Reserved bit: Not set" size="1" pos="20" show="0" value="40"/>
      <field name="ip.flags.df" showname=".1.. .... = Don&apos;t fragment: Set" size="1" pos="20" show="1" value="40"/>
      <field name="ip.flags.mf" showname="..0. .... = More fragments: Not set" size="1" pos="20" show="0" value="40"/>
    </field>
    <field name="ip.frag_offset" showname="Fragment offset: 0" size="2" pos="20" show="0" value="4000"/>
    <field name="ip.ttl" showname="Time to live: 57" size="1" pos="22" show="57" value="39"/>
    <field name="ip.proto" showname="Protocol: TCP (6)" size="1" pos="23" show="6" value="06"/>
    <field name="ip.checksum" showname="Header checksum: 0x93af [validation disabled]" size="2" pos="24" show="37807" value="93af">
      <field name="ip.checksum_good" showname="Good: False" size="2" pos="24" show="0" value="93af"/>
      <field name="ip.checksum_bad" showname="Bad: False" size="2" pos="24" show="0" value="93af"/>
    </field>
    <field name="ip.src" showname="Source: 1.1.1.1 (1.1.1.1)" size="4" pos="26" show="1.1.1.1" value="01010101"/>
    <field name="ip.addr" showname="Source or Destination Address: 1.1.1.1 (1.1.1.1)" hide="yes" size="4" pos="26" show="1.1.1.1" value="01010101"/>
    <field name="ip.src_host" showname="Source Host: 1.1.1.1" hide="yes" size="4" pos="26" show="1.1.1.1" value="01010101"/>
    <field name="ip.host" showname="Source or Destination Host: 1.1.1.1" hide="yes" size="4" pos="26" show="1.1.1.1" value="01010101"/>
    <field name="ip.dst" showname="Destination: 172.17.0.2 (172.17.0.2)" size="4" pos="30" show="172.17.0.2" value="ac110002"/>
    <field name="ip.addr" showname="Source or Destination Address: 172.17.0.2 (172.17.0.2)" hide="yes" size="4" pos="30" show="172.17.0.2" value="ac110002"/>
    <field name="ip.dst_host" showname="Destination Host: 172.17.0.2" hide="yes" size="4" pos="30" show="172.17.0.2" value="ac110002"/>
    <field name="ip.host" showname="Source or Destination Host: 172.17.0.2" hide="yes" size="4" pos="30" show="172.17.0.2" value="ac110002"/>
  </proto>
  <proto name="tcp" showname="Transmission Control Protocol, Src Port: 853 (853), Dst Port: 59666 (59666), Seq: 0, Ack: 1, Len: 0" size="32" pos="34">
    <field name="tcp.srcport" showname="Source port: 853 (853)" size="2" pos="34" show="853" value="0355"/>
    <field name="tcp.dstport" showname="Destination port: 59666 (59666)" size="2" pos="36" show="59666" value="e912"/>
    <field name="tcp.port" showname="Source or Destination Port: 853" hide="yes" size="2" pos="34" show="853" value="0355"/>
    <field name="tcp.port" showname="Source or Destination Port: 59666" hide="yes" size="2" pos="36" show="59666" value="e912"/>
    <field name="tcp.stream" showname="Stream index: 0" size="0" pos="34" show="0"/>
    <field name="tcp.len" showname="TCP Segment Len: 0" hide="yes" size="1" pos="46" show="0" value="80"/>
    <field name="tcp.seq" showname="Sequence number: 0    (relative sequence number)" size="4" pos="38" show="0" value="5f9ac9c0"/>
    <field name="tcp.ack" showname="Acknowledgment number: 1    (relative ack number)" size="4" pos="42" show="1" value="5f4215b8"/>
    <field name="tcp.hdr_len" showname="Header length: 32 bytes" size="1" pos="46" show="32" value="80"/>
    <field name="tcp.flags" showname="Flags: 0x012 (SYN, ACK)" size="2" pos="46" show="18" value="12" unmaskedvalue="8012">
      <field name="tcp.flags.res" showname="000. .... .... = Reserved: Not set" size="1" pos="46" show="0" value="0" unmaskedvalue="80"/>
      <field name="tcp.flags.ns" showname="...0 .... .... = Nonce: Not set" size="1" pos="46" show="0" value="0" unmaskedvalue="80"/>
      <field name="tcp.flags.cwr" showname=".... 0... .... = Congestion Window Reduced (CWR): Not set" size="1" pos="47" show="0" value="0" unmaskedvalue="12"/>
      <field name="tcp.flags.ecn" showname=".... .0.. .... = ECN-Echo: Not set" size="1" pos="47" show="0" value="0" unmaskedvalue="12"/>
      <field name="tcp.flags.urg" showname=".... ..0. .... = Urgent: Not set" size="1" pos="47" show="0" value="0" unmaskedvalue="12"/>
      <field name="tcp.flags.ack" showname=".... ...1 .... = Acknowledgment: Set" size="1" pos="47" show="1" value="1" unmaskedvalue="12"/>
      <field name="tcp.flags.push" showname=".... .... 0... = Push: Not set" size="1" pos="47" show="0" value="0" unmaskedvalue="12"/>
      <field name="tcp.flags.reset" showname=".... .... .0.. = Reset: Not set" size="1" pos="47" show="0" value="0" unmaskedvalue="12"/>
      <field name="tcp.flags.syn" showname=".... .... ..1. = Syn: Set" size="1" pos="47" show="1" value="1" unmaskedvalue="12">
        <field name="expert" showname="Expert Info (Chat/Sequence): Connection establish acknowledge (SYN+ACK): server port 853" size="0" pos="47">
          <field name="expert.message" showname="Message: Connection establish acknowledge (SYN+ACK): server port 853" size="0" pos="0" show="Connection establish acknowledge (SYN+ACK): server port 853"/>
          <field name="expert.severity" showname="Severity level: Chat" size="0" pos="0" show="2097152"/>
          <field name="expert.group" showname="Group: Sequence" size="0" pos="0" show="33554432"/>
        </field>
      </field>
      <field name="tcp.flags.fin" showname=".... .... ...0 = Fin: Not set" size="1" pos="47" show="0" value="0" unmaskedvalue="12"/>
    </field>
    <field name="tcp.window_size_value" showname="Window size value: 29200" size="2" pos="48" show="29200" value="7210"/>
    <field name="tcp.window_size" showname="Calculated window size: 29200" size="2" pos="48" show="29200" value="7210"/>
    <field name="tcp.checksum" showname="Checksum: 0xc41b [validation disabled]" size="2" pos="50" show="50203" value="c41b">
      <field name="tcp.checksum_good" showname="Good Checksum: False" size="2" pos="50" show="0" value="c41b"/>
      <field name="tcp.checksum_bad" showname="Bad Checksum: False" size="2" pos="50" show="0" value="c41b"/>
    </field>
    <field name="tcp.options" showname="Options: (12 bytes), Maximum segment size, No-Operation (NOP), No-Operation (NOP), SACK permitted, No-Operation (NOP), Window scale" size="12" pos="54" show="02:04:05:b4:01:01:04:02:01:03:03:0a" value="020405b4010104020103030a">
      <field name="tcp.options.mss" showname="Maximum segment size: 1460 bytes" size="4" pos="54" show="" value="">
        <field name="tcp.option_kind" showname="Kind: MSS size (2)" size="1" pos="54" show="2" value="02"/>
        <field name="tcp.option_len" showname="Length: 4" size="1" pos="55" show="4" value="04"/>
        <field name="tcp.options.mss_val" showname="MSS Value: 1460" size="2" pos="56" show="1460" value="05b4"/>
      </field>
      <field name="" show="No-Operation (NOP)" size="1" pos="58" value="01">
        <field name="tcp.options.type" showname="Type: 1" size="1" pos="58" show="1" value="01">
          <field name="tcp.options.type.copy" showname="0... .... = Copy on fragmentation: No" size="1" pos="58" show="0" value="0" unmaskedvalue="01"/>
          <field name="tcp.options.type.class" showname=".00. .... = Class: Control (0)" size="1" pos="58" show="0" value="0" unmaskedvalue="01"/>
          <field name="tcp.options.type.number" showname="...0 0001 = Number: No-Operation (NOP) (1)" size="1" pos="58" show="1" value="1" unmaskedvalue="01"/>
        </field>
      </field>
      <field name="" show="No-Operation (NOP)" size="1" pos="59" value="01">
        <field name="tcp.options.type" showname="Type: 1" size="1" pos="59" show="1" value="01">
          <field name="tcp.options.type.copy" showname="0... .... = Copy on fragmentation: No" size="1" pos="59" show="0" value="0" unmaskedvalue="01"/>
          <field name="tcp.options.type.class" showname=".00. .... = Class: Control (0)" size="1" pos="59" show="0" value="0" unmaskedvalue="01"/>
          <field name="tcp.options.type.number" showname="...0 0001 = Number: No-Operation (NOP) (1)" size="1" pos="59" show="1" value="1" unmaskedvalue="01"/>
        </field>
      </field>
      <field name="tcp.options.sack_perm" showname="TCP SACK Permitted Option: True" size="2" pos="60" show="1" value="0402">
        <field name="tcp.option_kind" showname="Kind: SACK Permission (4)" size="1" pos="60" show="4" value="04"/>
        <field name="tcp.option_len" showname="Length: 2" size="1" pos="61" show="2" value="02"/>
      </field>
      <field name="" show="No-Operation (NOP)" size="1" pos="62" value="01">
        <field name="tcp.options.type" showname="Type: 1" size="1" pos="62" show="1" value="01">
          <field name="tcp.options.type.copy" showname="0... .... = Copy on fragmentation: No" size="1" pos="62" show="0" value="0" unmaskedvalue="01"/>
          <field name="tcp.options.type.class" showname=".00. .... = Class: Control (0)" size="1" pos="62" show="0" value="0" unmaskedvalue="01"/>
          <field name="tcp.options.type.number" showname="...0 0001 = Number: No-Operation (NOP) (1)" size="1" pos="62" show="1" value="1" unmaskedvalue="01"/>
        </field>
      </field>
      <field name="" show="Window scale: 10 (multiply by 1024)" size="3" pos="63" value="03030a">
        <field name="tcp.option_kind" showname="Kind: Window Scale (3)" size="1" pos="63" show="3" value="03"/>
        <field name="tcp.option_len" showname="Length: 3" size="1" pos="64" show="3" value="03"/>
        <field name="tcp.options.wscale.shift" showname="Shift count: 10" size="1" pos="65" show="10" value="0a"/>
        <field name="tcp.options.wscale.multiplier" showname="Multiplier: 1024" size="1" pos="65" show="1024" value="0a"/>
      </field>
    </field>
    <field name="tcp.analysis" showname="SEQ/ACK analysis" size="0" pos="34" show="" value="">
      <field name="tcp.analysis.acks_frame" showname="This is an ACK to the segment in frame: 1" size="0" pos="34" show="1"/>
      <field name="tcp.analysis.ack_rtt" showname="The RTT to ACK the segment was: 0.003689000 seconds" size="0" pos="34" show="0.003689000"/>
    </field>
  </proto>
</packet>


<packet>
  <proto name="geninfo" pos="0" showname="General information" size="54">
    <field name="num" pos="0" show="3" showname="Number" value="3" size="54"/>
    <field name="len" pos="0" show="54" showname="Frame Length" value="36" size="54"/>
    <field name="caplen" pos="0" show="54" showname="Captured Length" value="36" size="54"/>
    <field name="timestamp" pos="0" show="Jun 27, 2019 12:20:57.634412000 CEST" showname="Captured Time" value="1561630857.634412000" size="54"/>
  </proto>
  <proto name="frame" showname="Frame 3: 54 bytes on wire (432 bits), 54 bytes captured (432 bits) on interface 0" size="54" pos="0">
    <field name="frame.interface_id" showname="Interface id: 0" size="0" pos="0" show="0"/>
    <field name="frame.encap_type" showname="Encapsulation type: Ethernet (1)" size="0" pos="0" show="1"/>
    <field name="frame.time" showname="Arrival Time: Jun 27, 2019 12:20:57.634412000 CEST" size="0" pos="0" show="&quot;Jun 27, 2019 12:20:57.634412000 CEST&quot;"/>
    <field name="frame.offset_shift" showname="Time shift for this packet: 0.000000000 seconds" size="0" pos="0" show="0.000000000"/>
    <field name="frame.time_epoch" showname="Epoch Time: 1561630857.634412000 seconds" size="0" pos="0" show="1561630857.634412000"/>
    <field name="frame.time_delta" showname="Time delta from previous captured frame: 0.000040000 seconds" size="0" pos="0" show="0.000040000"/>
    <field name="frame.time_delta_displayed" showname="Time delta from previous displayed frame: 0.000040000 seconds" size="0" pos="0" show="0.000040000"/>
    <field name="frame.time_relative" showname="Time since reference or first frame: 0.003729000 seconds" size="0" pos="0" show="0.003729000"/>
    <field name="frame.number" showname="Frame Number: 3" size="0" pos="0" show="3"/>
    <field name="frame.len" showname="Frame Length: 54 bytes (432 bits)" size="0" pos="0" show="54"/>
    <field name="frame.cap_len" showname="Capture Length: 54 bytes (432 bits)" size="0" pos="0" show="54"/>
    <field name="frame.marked" showname="Frame is marked: False" size="0" pos="0" show="0"/>
    <field name="frame.ignored" showname="Frame is ignored: False" size="0" pos="0" show="0"/>
    <field name="frame.protocols" showname="Protocols in frame: eth:ip:tcp" size="0" pos="0" show="eth:ip:tcp"/>
  </proto>
  <proto name="eth" showname="Ethernet II, Src: 02:42:ac:11:00:02 (02:42:ac:11:00:02), Dst: 02:42:71:12:56:af (02:42:71:12:56:af)" size="14" pos="0">
    <field name="eth.dst" showname="Destination: 02:42:71:12:56:af (02:42:71:12:56:af)" size="6" pos="0" show="02:42:71:12:56:af" value="0242711256af">
      <field name="eth.addr" showname="Address: 02:42:71:12:56:af (02:42:71:12:56:af)" size="6" pos="0" show="02:42:71:12:56:af" value="0242711256af"/>
      <field name="eth.lg" showname=".... ..1. .... .... .... .... = LG bit: Locally administered address (this is NOT the factory default)" size="3" pos="0" show="1" value="1" unmaskedvalue="024271"/>
      <field name="eth.ig" showname=".... ...0 .... .... .... .... = IG bit: Individual address (unicast)" size="3" pos="0" show="0" value="0" unmaskedvalue="024271"/>
    </field>
    <field name="eth.src" showname="Source: 02:42:ac:11:00:02 (02:42:ac:11:00:02)" size="6" pos="6" show="02:42:ac:11:00:02" value="0242ac110002">
      <field name="eth.addr" showname="Address: 02:42:ac:11:00:02 (02:42:ac:11:00:02)" size="6" pos="6" show="02:42:ac:11:00:02" value="0242ac110002"/>
      <field name="eth.lg" showname=".... ..1. .... .... .... .... = LG bit: Locally administered address (this is NOT the factory default)" size="3" pos="6" show="1" value="1" unmaskedvalue="0242ac"/>
      <field name="eth.ig" showname=".... ...0 .... .... .... .... = IG bit: Individual address (unicast)" size="3" pos="6" show="0" value="0" unmaskedvalue="0242ac"/>
    </field>
    <field name="eth.type" showname="Type: IP (0x0800)" size="2" pos="12" show="2048" value="0800"/>
  </proto>
  <proto name="ip" showname="Internet Protocol Version 4, Src: 172.17.0.2 (172.17.0.2), Dst: 1.1.1.1 (1.1.1.1)" size="20" pos="14">
    <field name="ip.version" showname="Version: 4" size="1" pos="14" show="4" value="45"/>
    <field name="ip.hdr_len" showname="Header length: 20 bytes" size="1" pos="14" show="20" value="45"/>
    <field name="ip.dsfield" showname="Differentiated Services Field: 0x00 (DSCP 0x00: Default; ECN: 0x00: Not-ECT (Not ECN-Capable Transport))" size="1" pos="15" show="0" value="00">
      <field name="ip.dsfield.dscp" showname="0000 00.. = Differentiated Services Codepoint: Default (0x00)" size="1" pos="15" show="0" value="0" unmaskedvalue="00"/>
      <field name="ip.dsfield.ecn" showname=".... ..00 = Explicit Congestion Notification: Not-ECT (Not ECN-Capable Transport) (0x00)" size="1" pos="15" show="0" value="0" unmaskedvalue="00"/>
    </field>
    <field name="ip.len" showname="Total Length: 40" size="2" pos="16" show="40" value="0028"/>
    <field name="ip.id" showname="Identification: 0x7f03 (32515)" size="2" pos="18" show="32515" value="7f03"/>
    <field name="ip.flags" showname="Flags: 0x02 (Don&apos;t Fragment)" size="1" pos="20" show="2" value="40">
      <field name="ip.flags.rb" showname="0... .... = Reserved bit: Not set" size="1" pos="20" show="0" value="40"/>
      <field name="ip.flags.df" showname=".1.. .... = Don&apos;t fragment: Set" size="1" pos="20" show="1" value="40"/>
      <field name="ip.flags.mf" showname="..0. .... = More fragments: Not set" size="1" pos="20" show="0" value="40"/>
    </field>
    <field name="ip.frag_offset" showname="Fragment offset: 0" size="2" pos="20" show="0" value="4000"/>
    <field name="ip.ttl" showname="Time to live: 64" size="1" pos="22" show="64" value="40"/>
    <field name="ip.proto" showname="Protocol: TCP (6)" size="1" pos="23" show="6" value="06"/>
    <field name="ip.checksum" showname="Header checksum: 0x0db8 [validation disabled]" size="2" pos="24" show="3512" value="0db8">
      <field name="ip.checksum_good" showname="Good: False" size="2" pos="24" show="0" value="0db8"/>
      <field name="ip.checksum_bad" showname="Bad: False" size="2" pos="24" show="0" value="0db8"/>
    </field>
    <field name="ip.src" showname="Source: 172.17.0.2 (172.17.0.2)" size="4" pos="26" show="172.17.0.2" value="ac110002"/>
    <field name="ip.addr" showname="Source or Destination Address: 172.17.0.2 (172.17.0.2)" hide="yes" size="4" pos="26" show="172.17.0.2" value="ac110002"/>
    <field name="ip.src_host" showname="Source Host: 172.17.0.2" hide="yes" size="4" pos="26" show="172.17.0.2" value="ac110002"/>
    <field name="ip.host" showname="Source or Destination Host: 172.17.0.2" hide="yes" size="4" pos="26" show="172.17.0.2" value="ac110002"/>
    <field name="ip.dst" showname="Destination: 1.1.1.1 (1.1.1.1)" size="4" pos="30" show="1.1.1.1" value="01010101"/>
    <field name="ip.addr" showname="Source or Destination Address: 1.1.1.1 (1.1.1.1)" hide="yes" size="4" pos="30" show="1.1.1.1" value="01010101"/>
    <field name="ip.dst_host" showname="Destination Host: 1.1.1.1" hide="yes" size="4" pos="30" show="1.1.1.1" value="01010101"/>
    <field name="ip.host" showname="Source or Destination Host: 1.1.1.1" hide="yes" size="4" pos="30" show="1.1.1.1" value="01010101"/>
  </proto>
  <proto name="tcp" showname="Transmission Control Protocol, Src Port: 59666 (59666), Dst Port: 853 (853), Seq: 1, Ack: 1, Len: 0" size="20" pos="34">
    <field name="tcp.srcport" showname="Source port: 59666 (59666)" size="2" pos="34" show="59666" value="e912"/>
    <field name="tcp.dstport" showname="Destination port: 853 (853)" size="2" pos="36" show="853" value="0355"/>
    <field name="tcp.port" showname="Source or Destination Port: 59666" hide="yes" size="2" pos="34" show="59666" value="e912"/>
    <field name="tcp.port" showname="Source or Destination Port: 853" hide="yes" size="2" pos="36" show="853" value="0355"/>
    <field name="tcp.stream" showname="Stream index: 0" size="0" pos="34" show="0"/>
    <field name="tcp.len" showname="TCP Segment Len: 0" hide="yes" size="1" pos="46" show="0" value="50"/>
    <field name="tcp.seq" showname="Sequence number: 1    (relative sequence number)" size="4" pos="38" show="1" value="5f4215b8"/>
    <field name="tcp.ack" showname="Acknowledgment number: 1    (relative ack number)" size="4" pos="42" show="1" value="5f9ac9c1"/>
    <field name="tcp.hdr_len" showname="Header length: 20 bytes" size="1" pos="46" show="20" value="50"/>
    <field name="tcp.flags" showname="Flags: 0x010 (ACK)" size="2" pos="46" show="16" value="10" unmaskedvalue="5010">
      <field name="tcp.flags.res" showname="000. .... .... = Reserved: Not set" size="1" pos="46" show="0" value="0" unmaskedvalue="50"/>
      <field name="tcp.flags.ns" showname="...0 .... .... = Nonce: Not set" size="1" pos="46" show="0" value="0" unmaskedvalue="50"/>
      <field name="tcp.flags.cwr" showname=".... 0... .... = Congestion Window Reduced (CWR): Not set" size="1" pos="47" show="0" value="0" unmaskedvalue="10"/>
      <field name="tcp.flags.ecn" showname=".... .0.. .... = ECN-Echo: Not set" size="1" pos="47" show="0" value="0" unmaskedvalue="10"/>
      <field name="tcp.flags.urg" showname=".... ..0. .... = Urgent: Not set" size="1" pos="47" show="0" value="0" unmaskedvalue="10"/>
      <field name="tcp.flags.ack" showname=".... ...1 .... = Acknowledgment: Set" size="1" pos="47" show="1" value="1" unmaskedvalue="10"/>
      <field name="tcp.flags.push" showname=".... .... 0... = Push: Not set" size="1" pos="47" show="0" value="0" unmaskedvalue="10"/>
      <field name="tcp.flags.reset" showname=".... .... .0.. = Reset: Not set" size="1" pos="47" show="0" value="0" unmaskedvalue="10"/>
      <field name="tcp.flags.syn" showname=".... .... ..0. = Syn: Not set" size="1" pos="47" show="0" value="0" unmaskedvalue="10"/>
      <field name="tcp.flags.fin" showname=".... .... ...0 = Fin: Not set" size="1" pos="47" show="0" value="0" unmaskedvalue="10"/>
    </field>
    <field name="tcp.window_size_value" showname="Window size value: 229" size="2" pos="48" show="229" value="00e5"/>
    <field name="tcp.window_size" showname="Calculated window size: 29312" size="2" pos="48" show="29312" value="00e5"/>
    <field name="tcp.window_size_scalefactor" showname="Window size scaling factor: 128" size="2" pos="48" show="128" value="00e5"/>
    <field name="tcp.checksum" showname="Checksum: 0xae2f [validation disabled]" size="2" pos="50" show="44591" value="ae2f">
      <field name="tcp.checksum_good" showname="Good Checksum: False" size="2" pos="50" show="0" value="ae2f"/>
      <field name="tcp.checksum_bad" showname="Bad Checksum: False" size="2" pos="50" show="0" value="ae2f"/>
    </field>
    <field name="tcp.analysis" showname="SEQ/ACK analysis" size="0" pos="34" show="" value="">
      <field name="tcp.analysis.acks_frame" showname="This is an ACK to the segment in frame: 2" size="0" pos="34" show="2"/>
      <field name="tcp.analysis.ack_rtt" showname="The RTT to ACK the segment was: 0.000040000 seconds" size="0" pos="34" show="0.000040000"/>
    </field>
  </proto>
</packet>


<packet>
  <proto name="geninfo" pos="0" showname="General information" size="391">
    <field name="num" pos="0" show="4" showname="Number" value="4" size="391"/>
    <field name="len" pos="0" show="391" showname="Frame Length" value="187" size="391"/>
    <field name="caplen" pos="0" show="391" showname="Captured Length" value="187" size="391"/>
    <field name="timestamp" pos="0" show="Jun 27, 2019 12:20:57.635285000 CEST" showname="Captured Time" value="1561630857.635285000" size="391"/>
  </proto>
  <proto name="frame" showname="Frame 4: 391 bytes on wire (3128 bits), 391 bytes captured (3128 bits) on interface 0" size="391" pos="0">
    <field name="frame.interface_id" showname="Interface id: 0" size="0" pos="0" show="0"/>
    <field name="frame.encap_type" showname="Encapsulation type: Ethernet (1)" size="0" pos="0" show="1"/>
    <field name="frame.time" showname="Arrival Time: Jun 27, 2019 12:20:57.635285000 CEST" size="0" pos="0" show="&quot;Jun 27, 2019 12:20:57.635285000 CEST&quot;"/>
    <field name="frame.offset_shift" showname="Time shift for this packet: 0.000000000 seconds" size="0" pos="0" show="0.000000000"/>
    <field name="frame.time_epoch" showname="Epoch Time: 1561630857.635285000 seconds" size="0" pos="0" show="1561630857.635285000"/>
    <field name="frame.time_delta" showname="Time delta from previous captured frame: 0.000873000 seconds" size="0" pos="0" show="0.000873000"/>
    <field name="frame.time_delta_displayed" showname="Time delta from previous displayed frame: 0.000873000 seconds" size="0" pos="0" show="0.000873000"/>
    <field name="frame.time_relative" showname="Time since reference or first frame: 0.004602000 seconds" size="0" pos="0" show="0.004602000"/>
    <field name="frame.number" showname="Frame Number: 4" size="0" pos="0" show="4"/>
    <field name="frame.len" showname="Frame Length: 391 bytes (3128 bits)" size="0" pos="0" show="391"/>
    <field name="frame.cap_len" showname="Capture Length: 391 bytes (3128 bits)" size="0" pos="0" show="391"/>
    <field name="frame.marked" showname="Frame is marked: False" size="0" pos="0" show="0"/>
    <field name="frame.ignored" showname="Frame is ignored: False" size="0" pos="0" show="0"/>
    <field name="frame.protocols" showname="Protocols in frame: eth:ip:tcp:data" size="0" pos="0" show="eth:ip:tcp:data"/>
  </proto>
  <proto name="eth" showname="Ethernet II, Src: 02:42:ac:11:00:02 (02:42:ac:11:00:02), Dst: 02:42:71:12:56:af (02:42:71:12:56:af)" size="14" pos="0">
    <field name="eth.dst" showname="Destination: 02:42:71:12:56:af (02:42:71:12:56:af)" size="6" pos="0" show="02:42:71:12:56:af" value="0242711256af">
      <field name="eth.addr" showname="Address: 02:42:71:12:56:af (02:42:71:12:56:af)" size="6" pos="0" show="02:42:71:12:56:af" value="0242711256af"/>
      <field name="eth.lg" showname=".... ..1. .... .... .... .... = LG bit: Locally administered address (this is NOT the factory default)" size="3" pos="0" show="1" value="1" unmaskedvalue="024271"/>
      <field name="eth.ig" showname=".... ...0 .... .... .... .... = IG bit: Individual address (unicast)" size="3" pos="0" show="0" value="0" unmaskedvalue="024271"/>
    </field>
    <field name="eth.src" showname="Source: 02:42:ac:11:00:02 (02:42:ac:11:00:02)" size="6" pos="6" show="02:42:ac:11:00:02" value="0242ac110002">
      <field name="eth.addr" showname="Address: 02:42:ac:11:00:02 (02:42:ac:11:00:02)" size="6" pos="6" show="02:42:ac:11:00:02" value="0242ac110002"/>
      <field name="eth.lg" showname=".... ..1. .... .... .... .... = LG bit: Locally administered address (this is NOT the factory default)" size="3" pos="6" show="1" value="1" unmaskedvalue="0242ac"/>
      <field name="eth.ig" showname=".... ...0 .... .... .... .... = IG bit: Individual address (unicast)" size="3" pos="6" show="0" value="0" unmaskedvalue="0242ac"/>
    </field>
    <field name="eth.type" showname="Type: IP (0x0800)" size="2" pos="12" show="2048" value="0800"/>
  </proto>
  <proto name="ip" showname="Internet Protocol Version 4, Src: 172.17.0.2 (172.17.0.2), Dst: 1.1.1.1 (1.1.1.1)" size="20" pos="14">
    <field name="ip.version" showname="Version: 4" size="1" pos="14" show="4" value="45"/>
    <field name="ip.hdr_len" showname="Header length: 20 bytes" size="1" pos="14" show="20" value="45"/>
    <field name="ip.dsfield" showname="Differentiated Services Field: 0x00 (DSCP 0x00: Default; ECN: 0x00: Not-ECT (Not ECN-Capable Transport))" size="1" pos="15" show="0" value="00">
      <field name="ip.dsfield.dscp" showname="0000 00.. = Differentiated Services Codepoint: Default (0x00)" size="1" pos="15" show="0" value="0" unmaskedvalue="00"/>
      <field name="ip.dsfield.ecn" showname=".... ..00 = Explicit Congestion Notification: Not-ECT (Not ECN-Capable Transport) (0x00)" size="1" pos="15" show="0" value="0" unmaskedvalue="00"/>
    </field>
    <field name="ip.len" showname="Total Length: 377" size="2" pos="16" show="377" value="0179"/>
    <field name="ip.id" showname="Identification: 0x7f04 (32516)" size="2" pos="18" show="32516" value="7f04"/>
    <field name="ip.flags" showname="Flags: 0x02 (Don&apos;t Fragment)" size="1" pos="20" show="2" value="40">
      <field name="ip.flags.rb" showname="0... .... = Reserved bit: Not set" size="1" pos="20" show="0" value="40"/>
      <field name="ip.flags.df" showname=".1.. .... = Don&apos;t fragment: Set" size="1" pos="20" show="1" value="40"/>
      <field name="ip.flags.mf" showname="..0. .... = More fragments: Not set" size="1" pos="20" show="0" value="40"/>
    </field>
    <field name="ip.frag_offset" showname="Fragment offset: 0" size="2" pos="20" show="0" value="4000"/>
    <field name="ip.ttl" showname="Time to live: 64" size="1" pos="22" show="64" value="40"/>
    <field name="ip.proto" showname="Protocol: TCP (6)" size="1" pos="23" show="6" value="06"/>
    <field name="ip.checksum" showname="Header checksum: 0x0c66 [validation disabled]" size="2" pos="24" show="3174" value="0c66">
      <field name="ip.checksum_good" showname="Good: False" size="2" pos="24" show="0" value="0c66"/>
      <field name="ip.checksum_bad" showname="Bad: False" size="2" pos="24" show="0" value="0c66"/>
    </field>
    <field name="ip.src" showname="Source: 172.17.0.2 (172.17.0.2)" size="4" pos="26" show="172.17.0.2" value="ac110002"/>
    <field name="ip.addr" showname="Source or Destination Address: 172.17.0.2 (172.17.0.2)" hide="yes" size="4" pos="26" show="172.17.0.2" value="ac110002"/>
    <field name="ip.src_host" showname="Source Host: 172.17.0.2" hide="yes" size="4" pos="26" show="172.17.0.2" value="ac110002"/>
    <field name="ip.host" showname="Source or Destination Host: 172.17.0.2" hide="yes" size="4" pos="26" show="172.17.0.2" value="ac110002"/>
    <field name="ip.dst" showname="Destination: 1.1.1.1 (1.1.1.1)" size="4" pos="30" show="1.1.1.1" value="01010101"/>
    <field name="ip.addr" showname="Source or Destination Address: 1.1.1.1 (1.1.1.1)" hide="yes" size="4" pos="30" show="1.1.1.1" value="01010101"/>
    <field name="ip.dst_host" showname="Destination Host: 1.1.1.1" hide="yes" size="4" pos="30" show="1.1.1.1" value="01010101"/>
    <field name="ip.host" showname="Source or Destination Host: 1.1.1.1" hide="yes" size="4" pos="30" show="1.1.1.1" value="01010101"/>
  </proto>
  <proto name="tcp" showname="Transmission Control Protocol, Src Port: 59666 (59666), Dst Port: 853 (853), Seq: 1, Ack: 1, Len: 337" size="20" pos="34">
    <field name="tcp.srcport" showname="Source port: 59666 (59666)" size="2" pos="34" show="59666" value="e912"/>
    <field name="tcp.dstport" showname="Destination port: 853 (853)" size="2" pos="36" show="853" value="0355"/>
    <field name="tcp.port" showname="Source or Destination Port: 59666" hide="yes" size="2" pos="34" show="59666" value="e912"/>
    <field name="tcp.port" showname="Source or Destination Port: 853" hide="yes" size="2" pos="36" show="853" value="0355"/>
    <field name="tcp.stream" showname="Stream index: 0" size="0" pos="34" show="0"/>
    <field name="tcp.len" showname="TCP Segment Len: 337" hide="yes" size="1" pos="46" show="337" value="50"/>
    <field name="tcp.seq" showname="Sequence number: 1    (relative sequence number)" size="4" pos="38" show="1" value="5f4215b8"/>
    <field name="tcp.nxtseq" showname="Next sequence number: 338    (relative sequence number)" size="0" pos="34" show="338"/>
    <field name="tcp.ack" showname="Acknowledgment number: 1    (relative ack number)" size="4" pos="42" show="1" value="5f9ac9c1"/>
    <field name="tcp.hdr_len" showname="Header length: 20 bytes" size="1" pos="46" show="20" value="50"/>
    <field name="tcp.flags" showname="Flags: 0x018 (PSH, ACK)" size="2" pos="46" show="24" value="18" unmaskedvalue="5018">
      <field name="tcp.flags.res" showname="000. .... .... = Reserved: Not set" size="1" pos="46" show="0" value="0" unmaskedvalue="50"/>
      <field name="tcp.flags.ns" showname="...0 .... .... = Nonce: Not set" size="1" pos="46" show="0" value="0" unmaskedvalue="50"/>
      <field name="tcp.flags.cwr" showname=".... 0... .... = Congestion Window Reduced (CWR): Not set" size="1" pos="47" show="0" value="0" unmaskedvalue="18"/>
      <field name="tcp.flags.ecn" showname=".... .0.. .... = ECN-Echo: Not set" size="1" pos="47" show="0" value="0" unmaskedvalue="18"/>
      <field name="tcp.flags.urg" showname=".... ..0. .... = Urgent: Not set" size="1" pos="47" show="0" value="0" unmaskedvalue="18"/>
      <field name="tcp.flags.ack" showname=".... ...1 .... = Acknowledgment: Set" size="1" pos="47" show="1" value="1" unmaskedvalue="18"/>
      <field name="tcp.flags.push" showname=".... .... 1... = Push: Set" size="1" pos="47" show="1" value="1" unmaskedvalue="18"/>
      <field name="tcp.flags.reset" showname=".... .... .0.. = Reset: Not set" size="1" pos="47" show="0" value="0" unmaskedvalue="18"/>
      <field name="tcp.flags.syn" showname=".... .... ..0. = Syn: Not set" size="1" pos="47" show="0" value="0" unmaskedvalue="18"/>
      <field name="tcp.flags.fin" showname=".... .... ...0 = Fin: Not set" size="1" pos="47" show="0" value="0" unmaskedvalue="18"/>
    </field>
    <field name="tcp.window_size_value" showname="Window size value: 229" size="2" pos="48" show="229" value="00e5"/>
    <field name="tcp.window_size" showname="Calculated window size: 29312" size="2" pos="48" show="29312" value="00e5"/>
    <field name="tcp.window_size_scalefactor" showname="Window size scaling factor: 128" size="2" pos="48" show="128" value="00e5"/>
    <field name="tcp.checksum" showname="Checksum: 0xaf80 [validation disabled]" size="2" pos="50" show="44928" value="af80">
      <field name="tcp.checksum_good" showname="Good Checksum: False" size="2" pos="50" show="0" value="af80"/>
      <field name="tcp.checksum_bad" showname="Bad Checksum: False" size="2" pos="50" show="0" value="af80"/>
    </field>
    <field name="tcp.analysis" showname="SEQ/ACK analysis" size="0" pos="34" show="" value="">
      <field name="tcp.analysis.bytes_in_flight" showname="Bytes in flight: 337" size="0" pos="34" show="337"/>
    </field>
  </proto>
  <proto name="fake-field-wrapper">
    <field name="data" value="160301014c010001480303ef1c0096b71b48857c832d87e9f712f48e7422ed101f6bc9aa23f4d11fe23e2d00003a1302130313011304c02ccca9c0adc00ac02bc0acc009c030cca8c014c02fc013009dc09d0035009cc09c002f009fccaac09f0039009ec09e0033010000e5000500050100000000000a00140012001700180019001d01000101010201030104000b00020100000d0020001e040108090804040308070501080a080505030601080b08060603020102030016000000170000002300000033006b006900170041048a767500f6ea76237cdbe3b4f67b1ddcfe62fcd94c10c1f80f3a18c10b8912c5e24f380929c5acc8b13da045cef168c267cc4b6d85b65bfba37ba31be446d136001d002007cd3ce123972a8f4513503a4fb6c5eda98744875f00706a1effaf4e0c3b995b002b0009080304030303020301ff01000100002d0003020100001c00024001">
      <field name="data.data" showname="Data: 160301014c010001480303ef1c0096b71b48857c832d87e9..." size="337" pos="54" show="16:03:01:01:4c:01:00:01:48:03:03:ef:1c:00:96:b7:1b:48:85:7c:83:2d:87:e9:f7:12:f4:8e:74:22:ed:10:1f:6b:c9:aa:23:f4:d1:1f:e2:3e:2d:00:00:3a:13:02:13:03:13:01:13:04:c0:2c:cc:a9:c0:ad:c0:0a:c0:2b:c0:ac:c0:09:c0:30:cc:a8:c0:14:c0:2f:c0:13:00:9d:c0:9d:00:35:00:9c:c0:9c:00:2f:00:9f:cc:aa:c0:9f:00:39:00:9e:c0:9e:00:33:01:00:00:e5:00:05:00:05:01:00:00:00:00:00:0a:00:14:00:12:00:17:00:18:00:19:00:1d:01:00:01:01:01:02:01:03:01:04:00:0b:00:02:01:00:00:0d:00:20:00:1e:04:01:08:09:08:04:04:03:08:07:05:01:08:0a:08:05:05:03:06:01:08:0b:08:06:06:03:02:01:02:03:00:16:00:00:00:17:00:00:00:23:00:00:00:33:00:6b:00:69:00:17:00:41:04:8a:76:75:00:f6:ea:76:23:7c:db:e3:b4:f6:7b:1d:dc:fe:62:fc:d9:4c:10:c1:f8:0f:3a:18:c1:0b:89:12:c5:e2:4f:38:09:29:c5:ac:c8:b1:3d:a0:45:ce:f1:68:c2:67:cc:4b:6d:85:b6:5b:fb:a3:7b:a3:1b:e4:46:d1:36:00:1d:00:20:07:cd:3c:e1:23:97:2a:8f:45:13:50:3a:4f:b6:c5:ed:a9:87:44:87:5f:00:70:6a:1e:ff:af:4e:0c:3b:99:5b:00:2b:00:09:08:03:04:03:03:03:02:03:01:ff:01:00:01:00:00:2d:00:03:02:01:00:00:1c:00:02:40:01" value="160301014c010001480303ef1c0096b71b48857c832d87e9f712f48e7422ed101f6bc9aa23f4d11fe23e2d00003a1302130313011304c02ccca9c0adc00ac02bc0acc009c030cca8c014c02fc013009dc09d0035009cc09c002f009fccaac09f0039009ec09e0033010000e5000500050100000000000a00140012001700180019001d01000101010201030104000b00020100000d0020001e040108090804040308070501080a080505030601080b08060603020102030016000000170000002300000033006b006900170041048a767500f6ea76237cdbe3b4f67b1ddcfe62fcd94c10c1f80f3a18c10b8912c5e24f380929c5acc8b13da045cef168c267cc4b6d85b65bfba37ba31be446d136001d002007cd3ce123972a8f4513503a4fb6c5eda98744875f00706a1effaf4e0c3b995b002b0009080304030303020301ff01000100002d0003020100001c00024001"/>
      <field name="data.len" showname="Length: 337" size="0" pos="54" show="337"/>
  </field>
</proto>
</packet>


<packet>
  <proto name="geninfo" pos="0" showname="General information" size="54">
    <field name="num" pos="0" show="5" showname="Number" value="5" size="54"/>
    <field name="len" pos="0" show="54" showname="Frame Length" value="36" size="54"/>
    <field name="caplen" pos="0" show="54" showname="Captured Length" value="36" size="54"/>
    <field name="timestamp" pos="0" show="Jun 27, 2019 12:20:57.638870000 CEST" showname="Captured Time" value="1561630857.638870000" size="54"/>
  </proto>
  <proto name="frame" showname="Frame 5: 54 bytes on wire (432 bits), 54 bytes captured (432 bits) on interface 0" size="54" pos="0">
    <field name="frame.interface_id" showname="Interface id: 0" size="0" pos="0" show="0"/>
    <field name="frame.encap_type" showname="Encapsulation type: Ethernet (1)" size="0" pos="0" show="1"/>
    <field name="frame.time" showname="Arrival Time: Jun 27, 2019 12:20:57.638870000 CEST" size="0" pos="0" show="&quot;Jun 27, 2019 12:20:57.638870000 CEST&quot;"/>
    <field name="frame.offset_shift" showname="Time shift for this packet: 0.000000000 seconds" size="0" pos="0" show="0.000000000"/>
    <field name="frame.time_epoch" showname="Epoch Time: 1561630857.638870000 seconds" size="0" pos="0" show="1561630857.638870000"/>
    <field name="frame.time_delta" showname="Time delta from previous captured frame: 0.003585000 seconds" size="0" pos="0" show="0.003585000"/>
    <field name="frame.time_delta_displayed" showname="Time delta from previous displayed frame: 0.003585000 seconds" size="0" pos="0" show="0.003585000"/>
    <field name="frame.time_relative" showname="Time since reference or first frame: 0.008187000 seconds" size="0" pos="0" show="0.008187000"/>
    <field name="frame.number" showname="Frame Number: 5" size="0" pos="0" show="5"/>
    <field name="frame.len" showname="Frame Length: 54 bytes (432 bits)" size="0" pos="0" show="54"/>
    <field name="frame.cap_len" showname="Capture Length: 54 bytes (432 bits)" size="0" pos="0" show="54"/>
    <field name="frame.marked" showname="Frame is marked: False" size="0" pos="0" show="0"/>
    <field name="frame.ignored" showname="Frame is ignored: False" size="0" pos="0" show="0"/>
    <field name="frame.protocols" showname="Protocols in frame: eth:ip:tcp" size="0" pos="0" show="eth:ip:tcp"/>
  </proto>
  <proto name="eth" showname="Ethernet II, Src: 02:42:71:12:56:af (02:42:71:12:56:af), Dst: 02:42:ac:11:00:02 (02:42:ac:11:00:02)" size="14" pos="0">
    <field name="eth.dst" showname="Destination: 02:42:ac:11:00:02 (02:42:ac:11:00:02)" size="6" pos="0" show="02:42:ac:11:00:02" value="0242ac110002">
      <field name="eth.addr" showname="Address: 02:42:ac:11:00:02 (02:42:ac:11:00:02)" size="6" pos="0" show="02:42:ac:11:00:02" value="0242ac110002"/>
      <field name="eth.lg" showname=".... ..1. .... .... .... .... = LG bit: Locally administered address (this is NOT the factory default)" size="3" pos="0" show="1" value="1" unmaskedvalue="0242ac"/>
      <field name="eth.ig" showname=".... ...0 .... .... .... .... = IG bit: Individual address (unicast)" size="3" pos="0" show="0" value="0" unmaskedvalue="0242ac"/>
    </field>
    <field name="eth.src" showname="Source: 02:42:71:12:56:af (02:42:71:12:56:af)" size="6" pos="6" show="02:42:71:12:56:af" value="0242711256af">
      <field name="eth.addr" showname="Address: 02:42:71:12:56:af (02:42:71:12:56:af)" size="6" pos="6" show="02:42:71:12:56:af" value="0242711256af"/>
      <field name="eth.lg" showname=".... ..1. .... .... .... .... = LG bit: Locally administered address (this is NOT the factory default)" size="3" pos="6" show="1" value="1" unmaskedvalue="024271"/>
      <field name="eth.ig" showname=".... ...0 .... .... .... .... = IG bit: Individual address (unicast)" size="3" pos="6" show="0" value="0" unmaskedvalue="024271"/>
    </field>
    <field name="eth.type" showname="Type: IP (0x0800)" size="2" pos="12" show="2048" value="0800"/>
  </proto>
  <proto name="ip" showname="Internet Protocol Version 4, Src: 1.1.1.1 (1.1.1.1), Dst: 172.17.0.2 (172.17.0.2)" size="20" pos="14">
    <field name="ip.version" showname="Version: 4" size="1" pos="14" show="4" value="45"/>
    <field name="ip.hdr_len" showname="Header length: 20 bytes" size="1" pos="14" show="20" value="45"/>
    <field name="ip.dsfield" showname="Differentiated Services Field: 0x00 (DSCP 0x00: Default; ECN: 0x00: Not-ECT (Not ECN-Capable Transport))" size="1" pos="15" show="0" value="00">
      <field name="ip.dsfield.dscp" showname="0000 00.. = Differentiated Services Codepoint: Default (0x00)" size="1" pos="15" show="0" value="0" unmaskedvalue="00"/>
      <field name="ip.dsfield.ecn" showname=".... ..00 = Explicit Congestion Notification: Not-ECT (Not ECN-Capable Transport) (0x00)" size="1" pos="15" show="0" value="0" unmaskedvalue="00"/>
    </field>
    <field name="ip.len" showname="Total Length: 40" size="2" pos="16" show="40" value="0028"/>
    <field name="ip.id" showname="Identification: 0x853e (34110)" size="2" pos="18" show="34110" value="853e"/>
    <field name="ip.flags" showname="Flags: 0x02 (Don&apos;t Fragment)" size="1" pos="20" show="2" value="40">
      <field name="ip.flags.rb" showname="0... .... = Reserved bit: Not set" size="1" pos="20" show="0" value="40"/>
      <field name="ip.flags.df" showname=".1.. .... = Don&apos;t fragment: Set" size="1" pos="20" show="1" value="40"/>
      <field name="ip.flags.mf" showname="..0. .... = More fragments: Not set" size="1" pos="20" show="0" value="40"/>
    </field>
    <field name="ip.frag_offset" showname="Fragment offset: 0" size="2" pos="20" show="0" value="4000"/>
    <field name="ip.ttl" showname="Time to live: 57" size="1" pos="22" show="57" value="39"/>
    <field name="ip.proto" showname="Protocol: TCP (6)" size="1" pos="23" show="6" value="06"/>
    <field name="ip.checksum" showname="Header checksum: 0x0e7d [validation disabled]" size="2" pos="24" show="3709" value="0e7d">
      <field name="ip.checksum_good" showname="Good: False" size="2" pos="24" show="0" value="0e7d"/>
      <field name="ip.checksum_bad" showname="Bad: False" size="2" pos="24" show="0" value="0e7d"/>
    </field>
    <field name="ip.src" showname="Source: 1.1.1.1 (1.1.1.1)" size="4" pos="26" show="1.1.1.1" value="01010101"/>
    <field name="ip.addr" showname="Source or Destination Address: 1.1.1.1 (1.1.1.1)" hide="yes" size="4" pos="26" show="1.1.1.1" value="01010101"/>
    <field name="ip.src_host" showname="Source Host: 1.1.1.1" hide="yes" size="4" pos="26" show="1.1.1.1" value="01010101"/>
    <field name="ip.host" showname="Source or Destination Host: 1.1.1.1" hide="yes" size="4" pos="26" show="1.1.1.1" value="01010101"/>
    <field name="ip.dst" showname="Destination: 172.17.0.2 (172.17.0.2)" size="4" pos="30" show="172.17.0.2" value="ac110002"/>
    <field name="ip.addr" showname="Source or Destination Address: 172.17.0.2 (172.17.0.2)" hide="yes" size="4" pos="30" show="172.17.0.2" value="ac110002"/>
    <field name="ip.dst_host" showname="Destination Host: 172.17.0.2" hide="yes" size="4" pos="30" show="172.17.0.2" value="ac110002"/>
    <field name="ip.host" showname="Source or Destination Host: 172.17.0.2" hide="yes" size="4" pos="30" show="172.17.0.2" value="ac110002"/>
  </proto>
  <proto name="tcp" showname="Transmission Control Protocol, Src Port: 853 (853), Dst Port: 59666 (59666), Seq: 1, Ack: 338, Len: 0" size="20" pos="34">
    <field name="tcp.srcport" showname="Source port: 853 (853)" size="2" pos="34" show="853" value="0355"/>
    <field name="tcp.dstport" showname="Destination port: 59666 (59666)" size="2" pos="36" show="59666" value="e912"/>
    <field name="tcp.port" showname="Source or Destination Port: 853" hide="yes" size="2" pos="34" show="853" value="0355"/>
    <field name="tcp.port" showname="Source or Destination Port: 59666" hide="yes" size="2" pos="36" show="59666" value="e912"/>
    <field name="tcp.stream" showname="Stream index: 0" size="0" pos="34" show="0"/>
    <field name="tcp.len" showname="TCP Segment Len: 0" hide="yes" size="1" pos="46" show="0" value="50"/>
    <field name="tcp.seq" showname="Sequence number: 1    (relative sequence number)" size="4" pos="38" show="1" value="5f9ac9c1"/>
    <field name="tcp.ack" showname="Acknowledgment number: 338    (relative ack number)" size="4" pos="42" show="338" value="5f421709"/>
    <field name="tcp.hdr_len" showname="Header length: 20 bytes" size="1" pos="46" show="20" value="50"/>
    <field name="tcp.flags" showname="Flags: 0x010 (ACK)" size="2" pos="46" show="16" value="10" unmaskedvalue="5010">
      <field name="tcp.flags.res" showname="000. .... .... = Reserved: Not set" size="1" pos="46" show="0" value="0" unmaskedvalue="50"/>
      <field name="tcp.flags.ns" showname="...0 .... .... = Nonce: Not set" size="1" pos="46" show="0" value="0" unmaskedvalue="50"/>
      <field name="tcp.flags.cwr" showname=".... 0... .... = Congestion Window Reduced (CWR): Not set" size="1" pos="47" show="0" value="0" unmaskedvalue="10"/>
      <field name="tcp.flags.ecn" showname=".... .0.. .... = ECN-Echo: Not set" size="1" pos="47" show="0" value="0" unmaskedvalue="10"/>
      <field name="tcp.flags.urg" showname=".... ..0. .... = Urgent: Not set" size="1" pos="47" show="0" value="0" unmaskedvalue="10"/>
      <field name="tcp.flags.ack" showname=".... ...1 .... = Acknowledgment: Set" size="1" pos="47" show="1" value="1" unmaskedvalue="10"/>
      <field name="tcp.flags.push" showname=".... .... 0... = Push: Not set" size="1" pos="47" show="0" value="0" unmaskedvalue="10"/>
      <field name="tcp.flags.reset" showname=".... .... .0.. = Reset: Not set" size="1" pos="47" show="0" value="0" unmaskedvalue="10"/>
      <field name="tcp.flags.syn" showname=".... .... ..0. = Syn: Not set" size="1" pos="47" show="0" value="0" unmaskedvalue="10"/>
      <field name="tcp.flags.fin" showname=".... .... ...0 = Fin: Not set" size="1" pos="47" show="0" value="0" unmaskedvalue="10"/>
    </field>
    <field name="tcp.window_size_value" showname="Window size value: 30" size="2" pos="48" show="30" value="001e"/>
    <field name="tcp.window_size" showname="Calculated window size: 30720" size="2" pos="48" show="30720" value="001e"/>
    <field name="tcp.window_size_scalefactor" showname="Window size scaling factor: 1024" size="2" pos="48" show="1024" value="001e"/>
    <field name="tcp.checksum" showname="Checksum: 0x7592 [validation disabled]" size="2" pos="50" show="30098" value="7592">
      <field name="tcp.checksum_good" showname="Good Checksum: False" size="2" pos="50" show="0" value="7592"/>
      <field name="tcp.checksum_bad" showname="Bad Checksum: False" size="2" pos="50" show="0" value="7592"/>
    </field>
    <field name="tcp.analysis" showname="SEQ/ACK analysis" size="0" pos="34" show="" value="">
      <field name="tcp.analysis.acks_frame" showname="This is an ACK to the segment in frame: 4" size="0" pos="34" show="4"/>
      <field name="tcp.analysis.ack_rtt" showname="The RTT to ACK the segment was: 0.003585000 seconds" size="0" pos="34" show="0.003585000"/>
    </field>
  </proto>
</packet>


<packet>
  <proto name="geninfo" pos="0" showname="General information" size="188">
    <field name="num" pos="0" show="6" showname="Number" value="6" size="188"/>
    <field name="len" pos="0" show="188" showname="Frame Length" value="bc" size="188"/>
    <field name="caplen" pos="0" show="188" showname="Captured Length" value="bc" size="188"/>
    <field name="timestamp" pos="0" show="Jun 27, 2019 12:20:57.639468000 CEST" showname="Captured Time" value="1561630857.639468000" size="188"/>
  </proto>
  <proto name="frame" showname="Frame 6: 188 bytes on wire (1504 bits), 188 bytes captured (1504 bits) on interface 0" size="188" pos="0">
    <field name="frame.interface_id" showname="Interface id: 0" size="0" pos="0" show="0"/>
    <field name="frame.encap_type" showname="Encapsulation type: Ethernet (1)" size="0" pos="0" show="1"/>
    <field name="frame.time" showname="Arrival Time: Jun 27, 2019 12:20:57.639468000 CEST" size="0" pos="0" show="&quot;Jun 27, 2019 12:20:57.639468000 CEST&quot;"/>
    <field name="frame.offset_shift" showname="Time shift for this packet: 0.000000000 seconds" size="0" pos="0" show="0.000000000"/>
    <field name="frame.time_epoch" showname="Epoch Time: 1561630857.639468000 seconds" size="0" pos="0" show="1561630857.639468000"/>
    <field name="frame.time_delta" showname="Time delta from previous captured frame: 0.000598000 seconds" size="0" pos="0" show="0.000598000"/>
    <field name="frame.time_delta_displayed" showname="Time delta from previous displayed frame: 0.000598000 seconds" size="0" pos="0" show="0.000598000"/>
    <field name="frame.time_relative" showname="Time since reference or first frame: 0.008785000 seconds" size="0" pos="0" show="0.008785000"/>
    <field name="frame.number" showname="Frame Number: 6" size="0" pos="0" show="6"/>
    <field name="frame.len" showname="Frame Length: 188 bytes (1504 bits)" size="0" pos="0" show="188"/>
    <field name="frame.cap_len" showname="Capture Length: 188 bytes (1504 bits)" size="0" pos="0" show="188"/>
    <field name="frame.marked" showname="Frame is marked: False" size="0" pos="0" show="0"/>
    <field name="frame.ignored" showname="Frame is ignored: False" size="0" pos="0" show="0"/>
    <field name="frame.protocols" showname="Protocols in frame: eth:ip:tcp:data" size="0" pos="0" show="eth:ip:tcp:data"/>
  </proto>
  <proto name="eth" showname="Ethernet II, Src: 02:42:71:12:56:af (02:42:71:12:56:af), Dst: 02:42:ac:11:00:02 (02:42:ac:11:00:02)" size="14" pos="0">
    <field name="eth.dst" showname="Destination: 02:42:ac:11:00:02 (02:42:ac:11:00:02)" size="6" pos="0" show="02:42:ac:11:00:02" value="0242ac110002">
      <field name="eth.addr" showname="Address: 02:42:ac:11:00:02 (02:42:ac:11:00:02)" size="6" pos="0" show="02:42:ac:11:00:02" value="0242ac110002"/>
      <field name="eth.lg" showname=".... ..1. .... .... .... .... = LG bit: Locally administered address (this is NOT the factory default)" size="3" pos="0" show="1" value="1" unmaskedvalue="0242ac"/>
      <field name="eth.ig" showname=".... ...0 .... .... .... .... = IG bit: Individual address (unicast)" size="3" pos="0" show="0" value="0" unmaskedvalue="0242ac"/>
    </field>
    <field name="eth.src" showname="Source: 02:42:71:12:56:af (02:42:71:12:56:af)" size="6" pos="6" show="02:42:71:12:56:af" value="0242711256af">
      <field name="eth.addr" showname="Address: 02:42:71:12:56:af (02:42:71:12:56:af)" size="6" pos="6" show="02:42:71:12:56:af" value="0242711256af"/>
      <field name="eth.lg" showname=".... ..1. .... .... .... .... = LG bit: Locally administered address (this is NOT the factory default)" size="3" pos="6" show="1" value="1" unmaskedvalue="024271"/>
      <field name="eth.ig" showname=".... ...0 .... .... .... .... = IG bit: Individual address (unicast)" size="3" pos="6" show="0" value="0" unmaskedvalue="024271"/>
    </field>
    <field name="eth.type" showname="Type: IP (0x0800)" size="2" pos="12" show="2048" value="0800"/>
  </proto>
  <proto name="ip" showname="Internet Protocol Version 4, Src: 1.1.1.1 (1.1.1.1), Dst: 172.17.0.2 (172.17.0.2)" size="20" pos="14">
    <field name="ip.version" showname="Version: 4" size="1" pos="14" show="4" value="45"/>
    <field name="ip.hdr_len" showname="Header length: 20 bytes" size="1" pos="14" show="20" value="45"/>
    <field name="ip.dsfield" showname="Differentiated Services Field: 0x00 (DSCP 0x00: Default; ECN: 0x00: Not-ECT (Not ECN-Capable Transport))" size="1" pos="15" show="0" value="00">
      <field name="ip.dsfield.dscp" showname="0000 00.. = Differentiated Services Codepoint: Default (0x00)" size="1" pos="15" show="0" value="0" unmaskedvalue="00"/>
      <field name="ip.dsfield.ecn" showname=".... ..00 = Explicit Congestion Notification: Not-ECT (Not ECN-Capable Transport) (0x00)" size="1" pos="15" show="0" value="0" unmaskedvalue="00"/>
    </field>
    <field name="ip.len" showname="Total Length: 174" size="2" pos="16" show="174" value="00ae"/>
    <field name="ip.id" showname="Identification: 0x853f (34111)" size="2" pos="18" show="34111" value="853f"/>
    <field name="ip.flags" showname="Flags: 0x02 (Don&apos;t Fragment)" size="1" pos="20" show="2" value="40">
      <field name="ip.flags.rb" showname="0... .... = Reserved bit: Not set" size="1" pos="20" show="0" value="40"/>
      <field name="ip.flags.df" showname=".1.. .... = Don&apos;t fragment: Set" size="1" pos="20" show="1" value="40"/>
      <field name="ip.flags.mf" showname="..0. .... = More fragments: Not set" size="1" pos="20" show="0" value="40"/>
    </field>
    <field name="ip.frag_offset" showname="Fragment offset: 0" size="2" pos="20" show="0" value="4000"/>
    <field name="ip.ttl" showname="Time to live: 57" size="1" pos="22" show="57" value="39"/>
    <field name="ip.proto" showname="Protocol: TCP (6)" size="1" pos="23" show="6" value="06"/>
    <field name="ip.checksum" showname="Header checksum: 0x0df6 [validation disabled]" size="2" pos="24" show="3574" value="0df6">
      <field name="ip.checksum_good" showname="Good: False" size="2" pos="24" show="0" value="0df6"/>
      <field name="ip.checksum_bad" showname="Bad: False" size="2" pos="24" show="0" value="0df6"/>
    </field>
    <field name="ip.src" showname="Source: 1.1.1.1 (1.1.1.1)" size="4" pos="26" show="1.1.1.1" value="01010101"/>
    <field name="ip.addr" showname="Source or Destination Address: 1.1.1.1 (1.1.1.1)" hide="yes" size="4" pos="26" show="1.1.1.1" value="01010101"/>
    <field name="ip.src_host" showname="Source Host: 1.1.1.1" hide="yes" size="4" pos="26" show="1.1.1.1" value="01010101"/>
    <field name="ip.host" showname="Source or Destination Host: 1.1.1.1" hide="yes" size="4" pos="26" show="1.1.1.1" value="01010101"/>
    <field name="ip.dst" showname="Destination: 172.17.0.2 (172.17.0.2)" size="4" pos="30" show="172.17.0.2" value="ac110002"/>
    <field name="ip.addr" showname="Source or Destination Address: 172.17.0.2 (172.17.0.2)" hide="yes" size="4" pos="30" show="172.17.0.2" value="ac110002"/>
    <field name="ip.dst_host" showname="Destination Host: 172.17.0.2" hide="yes" size="4" pos="30" show="172.17.0.2" value="ac110002"/>
    <field name="ip.host" showname="Source or Destination Host: 172.17.0.2" hide="yes" size="4" pos="30" show="172.17.0.2" value="ac110002"/>
  </proto>
  <proto name="tcp" showname="Transmission Control Protocol, Src Port: 853 (853), Dst Port: 59666 (59666), Seq: 1, Ack: 338, Len: 134" size="20" pos="34">
    <field name="tcp.srcport" showname="Source port: 853 (853)" size="2" pos="34" show="853" value="0355"/>
    <field name="tcp.dstport" showname="Destination port: 59666 (59666)" size="2" pos="36" show="59666" value="e912"/>
    <field name="tcp.port" showname="Source or Destination Port: 853" hide="yes" size="2" pos="34" show="853" value="0355"/>
    <field name="tcp.port" showname="Source or Destination Port: 59666" hide="yes" size="2" pos="36" show="59666" value="e912"/>
    <field name="tcp.stream" showname="Stream index: 0" size="0" pos="34" show="0"/>
    <field name="tcp.len" showname="TCP Segment Len: 134" hide="yes" size="1" pos="46" show="134" value="50"/>
    <field name="tcp.seq" showname="Sequence number: 1    (relative sequence number)" size="4" pos="38" show="1" value="5f9ac9c1"/>
    <field name="tcp.nxtseq" showname="Next sequence number: 135    (relative sequence number)" size="0" pos="34" show="135"/>
    <field name="tcp.ack" showname="Acknowledgment number: 338    (relative ack number)" size="4" pos="42" show="338" value="5f421709"/>
    <field name="tcp.hdr_len" showname="Header length: 20 bytes" size="1" pos="46" show="20" value="50"/>
    <field name="tcp.flags" showname="Flags: 0x018 (PSH, ACK)" size="2" pos="46" show="24" value="18" unmaskedvalue="5018">
      <field name="tcp.flags.res" showname="000. .... .... = Reserved: Not set" size="1" pos="46" show="0" value="0" unmaskedvalue="50"/>
      <field name="tcp.flags.ns" showname="...0 .... .... = Nonce: Not set" size="1" pos="46" show="0" value="0" unmaskedvalue="50"/>
      <field name="tcp.flags.cwr" showname=".... 0... .... = Congestion Window Reduced (CWR): Not set" size="1" pos="47" show="0" value="0" unmaskedvalue="18"/>
      <field name="tcp.flags.ecn" showname=".... .0.. .... = ECN-Echo: Not set" size="1" pos="47" show="0" value="0" unmaskedvalue="18"/>
      <field name="tcp.flags.urg" showname=".... ..0. .... = Urgent: Not set" size="1" pos="47" show="0" value="0" unmaskedvalue="18"/>
      <field name="tcp.flags.ack" showname=".... ...1 .... = Acknowledgment: Set" size="1" pos="47" show="1" value="1" unmaskedvalue="18"/>
      <field name="tcp.flags.push" showname=".... .... 1... = Push: Set" size="1" pos="47" show="1" value="1" unmaskedvalue="18"/>
      <field name="tcp.flags.reset" showname=".... .... .0.. = Reset: Not set" size="1" pos="47" show="0" value="0" unmaskedvalue="18"/>
      <field name="tcp.flags.syn" showname=".... .... ..0. = Syn: Not set" size="1" pos="47" show="0" value="0" unmaskedvalue="18"/>
      <field name="tcp.flags.fin" showname=".... .... ...0 = Fin: Not set" size="1" pos="47" show="0" value="0" unmaskedvalue="18"/>
    </field>
    <field name="tcp.window_size_value" showname="Window size value: 30" size="2" pos="48" show="30" value="001e"/>
    <field name="tcp.window_size" showname="Calculated window size: 30720" size="2" pos="48" show="30720" value="001e"/>
    <field name="tcp.window_size_scalefactor" showname="Window size scaling factor: 1024" size="2" pos="48" show="1024" value="001e"/>
    <field name="tcp.checksum" showname="Checksum: 0xc79f [validation disabled]" size="2" pos="50" show="51103" value="c79f">
      <field name="tcp.checksum_good" showname="Good Checksum: False" size="2" pos="50" show="0" value="c79f"/>
      <field name="tcp.checksum_bad" showname="Bad Checksum: False" size="2" pos="50" show="0" value="c79f"/>
    </field>
    <field name="tcp.analysis" showname="SEQ/ACK analysis" size="0" pos="34" show="" value="">
      <field name="tcp.analysis.bytes_in_flight" showname="Bytes in flight: 134" size="0" pos="34" show="134"/>
    </field>
  </proto>
  <proto name="fake-field-wrapper">
    <field name="data" value="160303007b0200007703030760871b81b23f46a35726fc9444c538c11e1246dc740890444f574e4752440100130200004f0033004500170041044485130488474a8181f89344ccaacf1a56b6ae34c9d5738f0faeebd36f9758eac98cad2051cb6727d755cbff8ff1c397c3235ae24a7d0c7f92bcf20d466b696c002b00020304140303000101">
      <field name="data.data" showname="Data: 160303007b0200007703030760871b81b23f46a35726fc94..." size="134" pos="54" show="16:03:03:00:7b:02:00:00:77:03:03:07:60:87:1b:81:b2:3f:46:a3:57:26:fc:94:44:c5:38:c1:1e:12:46:dc:74:08:90:44:4f:57:4e:47:52:44:01:00:13:02:00:00:4f:00:33:00:45:00:17:00:41:04:44:85:13:04:88:47:4a:81:81:f8:93:44:cc:aa:cf:1a:56:b6:ae:34:c9:d5:73:8f:0f:ae:eb:d3:6f:97:58:ea:c9:8c:ad:20:51:cb:67:27:d7:55:cb:ff:8f:f1:c3:97:c3:23:5a:e2:4a:7d:0c:7f:92:bc:f2:0d:46:6b:69:6c:00:2b:00:02:03:04:14:03:03:00:01:01" value="160303007b0200007703030760871b81b23f46a35726fc9444c538c11e1246dc740890444f574e4752440100130200004f0033004500170041044485130488474a8181f89344ccaacf1a56b6ae34c9d5738f0faeebd36f9758eac98cad2051cb6727d755cbff8ff1c397c3235ae24a7d0c7f92bcf20d466b696c002b00020304140303000101"/>
      <field name="data.len" showname="Length: 134" size="0" pos="54" show="134"/>
  </field>
</proto>
</packet>


<packet>
  <proto name="geninfo" pos="0" showname="General information" size="54">
    <field name="num" pos="0" show="7" showname="Number" value="7" size="54"/>
    <field name="len" pos="0" show="54" showname="Frame Length" value="36" size="54"/>
    <field name="caplen" pos="0" show="54" showname="Captured Length" value="36" size="54"/>
    <field name="timestamp" pos="0" show="Jun 27, 2019 12:20:57.639492000 CEST" showname="Captured Time" value="1561630857.639492000" size="54"/>
  </proto>
  <proto name="frame" showname="Frame 7: 54 bytes on wire (432 bits), 54 bytes captured (432 bits) on interface 0" size="54" pos="0">
    <field name="frame.interface_id" showname="Interface id: 0" size="0" pos="0" show="0"/>
    <field name="frame.encap_type" showname="Encapsulation type: Ethernet (1)" size="0" pos="0" show="1"/>
    <field name="frame.time" showname="Arrival Time: Jun 27, 2019 12:20:57.639492000 CEST" size="0" pos="0" show="&quot;Jun 27, 2019 12:20:57.639492000 CEST&quot;"/>
    <field name="frame.offset_shift" showname="Time shift for this packet: 0.000000000 seconds" size="0" pos="0" show="0.000000000"/>
    <field name="frame.time_epoch" showname="Epoch Time: 1561630857.639492000 seconds" size="0" pos="0" show="1561630857.639492000"/>
    <field name="frame.time_delta" showname="Time delta from previous captured frame: 0.000024000 seconds" size="0" pos="0" show="0.000024000"/>
    <field name="frame.time_delta_displayed" showname="Time delta from previous displayed frame: 0.000024000 seconds" size="0" pos="0" show="0.000024000"/>
    <field name="frame.time_relative" showname="Time since reference or first frame: 0.008809000 seconds" size="0" pos="0" show="0.008809000"/>
    <field name="frame.number" showname="Frame Number: 7" size="0" pos="0" show="7"/>
    <field name="frame.len" showname="Frame Length: 54 bytes (432 bits)" size="0" pos="0" show="54"/>
    <field name="frame.cap_len" showname="Capture Length: 54 bytes (432 bits)" size="0" pos="0" show="54"/>
    <field name="frame.marked" showname="Frame is marked: False" size="0" pos="0" show="0"/>
    <field name="frame.ignored" showname="Frame is ignored: False" size="0" pos="0" show="0"/>
    <field name="frame.protocols" showname="Protocols in frame: eth:ip:tcp" size="0" pos="0" show="eth:ip:tcp"/>
  </proto>
  <proto name="eth" showname="Ethernet II, Src: 02:42:ac:11:00:02 (02:42:ac:11:00:02), Dst: 02:42:71:12:56:af (02:42:71:12:56:af)" size="14" pos="0">
    <field name="eth.dst" showname="Destination: 02:42:71:12:56:af (02:42:71:12:56:af)" size="6" pos="0" show="02:42:71:12:56:af" value="0242711256af">
      <field name="eth.addr" showname="Address: 02:42:71:12:56:af (02:42:71:12:56:af)" size="6" pos="0" show="02:42:71:12:56:af" value="0242711256af"/>
      <field name="eth.lg" showname=".... ..1. .... .... .... .... = LG bit: Locally administered address (this is NOT the factory default)" size="3" pos="0" show="1" value="1" unmaskedvalue="024271"/>
      <field name="eth.ig" showname=".... ...0 .... .... .... .... = IG bit: Individual address (unicast)" size="3" pos="0" show="0" value="0" unmaskedvalue="024271"/>
    </field>
    <field name="eth.src" showname="Source: 02:42:ac:11:00:02 (02:42:ac:11:00:02)" size="6" pos="6" show="02:42:ac:11:00:02" value="0242ac110002">
      <field name="eth.addr" showname="Address: 02:42:ac:11:00:02 (02:42:ac:11:00:02)" size="6" pos="6" show="02:42:ac:11:00:02" value="0242ac110002"/>
      <field name="eth.lg" showname=".... ..1. .... .... .... .... = LG bit: Locally administered address (this is NOT the factory default)" size="3" pos="6" show="1" value="1" unmaskedvalue="0242ac"/>
      <field name="eth.ig" showname=".... ...0 .... .... .... .... = IG bit: Individual address (unicast)" size="3" pos="6" show="0" value="0" unmaskedvalue="0242ac"/>
    </field>
    <field name="eth.type" showname="Type: IP (0x0800)" size="2" pos="12" show="2048" value="0800"/>
  </proto>
  <proto name="ip" showname="Internet Protocol Version 4, Src: 172.17.0.2 (172.17.0.2), Dst: 1.1.1.1 (1.1.1.1)" size="20" pos="14">
    <field name="ip.version" showname="Version: 4" size="1" pos="14" show="4" value="45"/>
    <field name="ip.hdr_len" showname="Header length: 20 bytes" size="1" pos="14" show="20" value="45"/>
    <field name="ip.dsfield" showname="Differentiated Services Field: 0x00 (DSCP 0x00: Default; ECN: 0x00: Not-ECT (Not ECN-Capable Transport))" size="1" pos="15" show="0" value="00">
      <field name="ip.dsfield.dscp" showname="0000 00.. = Differentiated Services Codepoint: Default (0x00)" size="1" pos="15" show="0" value="0" unmaskedvalue="00"/>
      <field name="ip.dsfield.ecn" showname=".... ..00 = Explicit Congestion Notification: Not-ECT (Not ECN-Capable Transport) (0x00)" size="1" pos="15" show="0" value="0" unmaskedvalue="00"/>
    </field>
    <field name="ip.len" showname="Total Length: 40" size="2" pos="16" show="40" value="0028"/>
    <field name="ip.id" showname="Identification: 0x7f05 (32517)" size="2" pos="18" show="32517" value="7f05"/>
    <field name="ip.flags" showname="Flags: 0x02 (Don&apos;t Fragment)" size="1" pos="20" show="2" value="40">
      <field name="ip.flags.rb" showname="0... .... = Reserved bit: Not set" size="1" pos="20" show="0" value="40"/>
      <field name="ip.flags.df" showname=".1.. .... = Don&apos;t fragment: Set" size="1" pos="20" show="1" value="40"/>
      <field name="ip.flags.mf" showname="..0. .... = More fragments: Not set" size="1" pos="20" show="0" value="40"/>
    </field>
    <field name="ip.frag_offset" showname="Fragment offset: 0" size="2" pos="20" show="0" value="4000"/>
    <field name="ip.ttl" showname="Time to live: 64" size="1" pos="22" show="64" value="40"/>
    <field name="ip.proto" showname="Protocol: TCP (6)" size="1" pos="23" show="6" value="06"/>
    <field name="ip.checksum" showname="Header checksum: 0x0db6 [validation disabled]" size="2" pos="24" show="3510" value="0db6">
      <field name="ip.checksum_good" showname="Good: False" size="2" pos="24" show="0" value="0db6"/>
      <field name="ip.checksum_bad" showname="Bad: False" size="2" pos="24" show="0" value="0db6"/>
    </field>
    <field name="ip.src" showname="Source: 172.17.0.2 (172.17.0.2)" size="4" pos="26" show="172.17.0.2" value="ac110002"/>
    <field name="ip.addr" showname="Source or Destination Address: 172.17.0.2 (172.17.0.2)" hide="yes" size="4" pos="26" show="172.17.0.2" value="ac110002"/>
    <field name="ip.src_host" showname="Source Host: 172.17.0.2" hide="yes" size="4" pos="26" show="172.17.0.2" value="ac110002"/>
    <field name="ip.host" showname="Source or Destination Host: 172.17.0.2" hide="yes" size="4" pos="26" show="172.17.0.2" value="ac110002"/>
    <field name="ip.dst" showname="Destination: 1.1.1.1 (1.1.1.1)" size="4" pos="30" show="1.1.1.1" value="01010101"/>
    <field name="ip.addr" showname="Source or Destination Address: 1.1.1.1 (1.1.1.1)" hide="yes" size="4" pos="30" show="1.1.1.1" value="01010101"/>
    <field name="ip.dst_host" showname="Destination Host: 1.1.1.1" hide="yes" size="4" pos="30" show="1.1.1.1" value="01010101"/>
    <field name="ip.host" showname="Source or Destination Host: 1.1.1.1" hide="yes" size="4" pos="30" show="1.1.1.1" value="01010101"/>
  </proto>
  <proto name="tcp" showname="Transmission Control Protocol, Src Port: 59666 (59666), Dst Port: 853 (853), Seq: 338, Ack: 135, Len: 0" size="20" pos="34">
    <field name="tcp.srcport" showname="Source port: 59666 (59666)" size="2" pos="34" show="59666" value="e912"/>
    <field name="tcp.dstport" showname="Destination port: 853 (853)" size="2" pos="36" show="853" value="0355"/>
    <field name="tcp.port" showname="Source or Destination Port: 59666" hide="yes" size="2" pos="34" show="59666" value="e912"/>
    <field name="tcp.port" showname="Source or Destination Port: 853" hide="yes" size="2" pos="36" show="853" value="0355"/>
    <field name="tcp.stream" showname="Stream index: 0" size="0" pos="34" show="0"/>
    <field name="tcp.len" showname="TCP Segment Len: 0" hide="yes" size="1" pos="46" show="0" value="50"/>
    <field name="tcp.seq" showname="Sequence number: 338    (relative sequence number)" size="4" pos="38" show="338" value="5f421709"/>
    <field name="tcp.ack" showname="Acknowledgment number: 135    (relative ack number)" size="4" pos="42" show="135" value="5f9aca47"/>
    <field name="tcp.hdr_len" showname="Header length: 20 bytes" size="1" pos="46" show="20" value="50"/>
    <field name="tcp.flags" showname="Flags: 0x010 (ACK)" size="2" pos="46" show="16" value="10" unmaskedvalue="5010">
      <field name="tcp.flags.res" showname="000. .... .... = Reserved: Not set" size="1" pos="46" show="0" value="0" unmaskedvalue="50"/>
      <field name="tcp.flags.ns" showname="...0 .... .... = Nonce: Not set" size="1" pos="46" show="0" value="0" unmaskedvalue="50"/>
      <field name="tcp.flags.cwr" showname=".... 0... .... = Congestion Window Reduced (CWR): Not set" size="1" pos="47" show="0" value="0" unmaskedvalue="10"/>
      <field name="tcp.flags.ecn" showname=".... .0.. .... = ECN-Echo: Not set" size="1" pos="47" show="0" value="0" unmaskedvalue="10"/>
      <field name="tcp.flags.urg" showname=".... ..0. .... = Urgent: Not set" size="1" pos="47" show="0" value="0" unmaskedvalue="10"/>
      <field name="tcp.flags.ack" showname=".... ...1 .... = Acknowledgment: Set" size="1" pos="47" show="1" value="1" unmaskedvalue="10"/>
      <field name="tcp.flags.push" showname=".... .... 0... = Push: Not set" size="1" pos="47" show="0" value="0" unmaskedvalue="10"/>
      <field name="tcp.flags.reset" showname=".... .... .0.. = Reset: Not set" size="1" pos="47" show="0" value="0" unmaskedvalue="10"/>
      <field name="tcp.flags.syn" showname=".... .... ..0. = Syn: Not set" size="1" pos="47" show="0" value="0" unmaskedvalue="10"/>
      <field name="tcp.flags.fin" showname=".... .... ...0 = Fin: Not set" size="1" pos="47" show="0" value="0" unmaskedvalue="10"/>
    </field>
    <field name="tcp.window_size_value" showname="Window size value: 237" size="2" pos="48" show="237" value="00ed"/>
    <field name="tcp.window_size" showname="Calculated window size: 30336" size="2" pos="48" show="30336" value="00ed"/>
    <field name="tcp.window_size_scalefactor" showname="Window size scaling factor: 128" size="2" pos="48" show="128" value="00ed"/>
    <field name="tcp.checksum" showname="Checksum: 0xae2f [validation disabled]" size="2" pos="50" show="44591" value="ae2f">
      <field name="tcp.checksum_good" showname="Good Checksum: False" size="2" pos="50" show="0" value="ae2f"/>
      <field name="tcp.checksum_bad" showname="Bad Checksum: False" size="2" pos="50" show="0" value="ae2f"/>
    </field>
    <field name="tcp.analysis" showname="SEQ/ACK analysis" size="0" pos="34" show="" value="">
      <field name="tcp.analysis.acks_frame" showname="This is an ACK to the segment in frame: 6" size="0" pos="34" show="6"/>
      <field name="tcp.analysis.ack_rtt" showname="The RTT to ACK the segment was: 0.000024000 seconds" size="0" pos="34" show="0.000024000"/>
    </field>
  </proto>
</packet>


<packet>
  <proto name="geninfo" pos="0" showname="General information" size="1514">
    <field name="num" pos="0" show="8" showname="Number" value="8" size="1514"/>
    <field name="len" pos="0" show="1514" showname="Frame Length" value="5ea" size="1514"/>
    <field name="caplen" pos="0" show="1514" showname="Captured Length" value="5ea" size="1514"/>
    <field name="timestamp" pos="0" show="Jun 27, 2019 12:20:57.639726000 CEST" showname="Captured Time" value="1561630857.639726000" size="1514"/>
  </proto>
  <proto name="frame" showname="Frame 8: 1514 bytes on wire (12112 bits), 1514 bytes captured (12112 bits) on interface 0" size="1514" pos="0">
    <field name="frame.interface_id" showname="Interface id: 0" size="0" pos="0" show="0"/>
    <field name="frame.encap_type" showname="Encapsulation type: Ethernet (1)" size="0" pos="0" show="1"/>
    <field name="frame.time" showname="Arrival Time: Jun 27, 2019 12:20:57.639726000 CEST" size="0" pos="0" show="&quot;Jun 27, 2019 12:20:57.639726000 CEST&quot;"/>
    <field name="frame.offset_shift" showname="Time shift for this packet: 0.000000000 seconds" size="0" pos="0" show="0.000000000"/>
    <field name="frame.time_epoch" showname="Epoch Time: 1561630857.639726000 seconds" size="0" pos="0" show="1561630857.639726000"/>
    <field name="frame.time_delta" showname="Time delta from previous captured frame: 0.000234000 seconds" size="0" pos="0" show="0.000234000"/>
    <field name="frame.time_delta_displayed" showname="Time delta from previous displayed frame: 0.000234000 seconds" size="0" pos="0" show="0.000234000"/>
    <field name="frame.time_relative" showname="Time since reference or first frame: 0.009043000 seconds" size="0" pos="0" show="0.009043000"/>
    <field name="frame.number" showname="Frame Number: 8" size="0" pos="0" show="8"/>
    <field name="frame.len" showname="Frame Length: 1514 bytes (12112 bits)" size="0" pos="0" show="1514"/>
    <field name="frame.cap_len" showname="Capture Length: 1514 bytes (12112 bits)" size="0" pos="0" show="1514"/>
    <field name="frame.marked" showname="Frame is marked: False" size="0" pos="0" show="0"/>
    <field name="frame.ignored" showname="Frame is ignored: False" size="0" pos="0" show="0"/>
    <field name="frame.protocols" showname="Protocols in frame: eth:ip:tcp:data" size="0" pos="0" show="eth:ip:tcp:data"/>
  </proto>
  <proto name="eth" showname="Ethernet II, Src: 02:42:71:12:56:af (02:42:71:12:56:af), Dst: 02:42:ac:11:00:02 (02:42:ac:11:00:02)" size="14" pos="0">
    <field name="eth.dst" showname="Destination: 02:42:ac:11:00:02 (02:42:ac:11:00:02)" size="6" pos="0" show="02:42:ac:11:00:02" value="0242ac110002">
      <field name="eth.addr" showname="Address: 02:42:ac:11:00:02 (02:42:ac:11:00:02)" size="6" pos="0" show="02:42:ac:11:00:02" value="0242ac110002"/>
      <field name="eth.lg" showname=".... ..1. .... .... .... .... = LG bit: Locally administered address (this is NOT the factory default)" size="3" pos="0" show="1" value="1" unmaskedvalue="0242ac"/>
      <field name="eth.ig" showname=".... ...0 .... .... .... .... = IG bit: Individual address (unicast)" size="3" pos="0" show="0" value="0" unmaskedvalue="0242ac"/>
    </field>
    <field name="eth.src" showname="Source: 02:42:71:12:56:af (02:42:71:12:56:af)" size="6" pos="6" show="02:42:71:12:56:af" value="0242711256af">
      <field name="eth.addr" showname="Address: 02:42:71:12:56:af (02:42:71:12:56:af)" size="6" pos="6" show="02:42:71:12:56:af" value="0242711256af"/>
      <field name="eth.lg" showname=".... ..1. .... .... .... .... = LG bit: Locally administered address (this is NOT the factory default)" size="3" pos="6" show="1" value="1" unmaskedvalue="024271"/>
      <field name="eth.ig" showname=".... ...0 .... .... .... .... = IG bit: Individual address (unicast)" size="3" pos="6" show="0" value="0" unmaskedvalue="024271"/>
    </field>
    <field name="eth.type" showname="Type: IP (0x0800)" size="2" pos="12" show="2048" value="0800"/>
  </proto>
  <proto name="ip" showname="Internet Protocol Version 4, Src: 1.1.1.1 (1.1.1.1), Dst: 172.17.0.2 (172.17.0.2)" size="20" pos="14">
    <field name="ip.version" showname="Version: 4" size="1" pos="14" show="4" value="45"/>
    <field name="ip.hdr_len" showname="Header length: 20 bytes" size="1" pos="14" show="20" value="45"/>
    <field name="ip.dsfield" showname="Differentiated Services Field: 0x00 (DSCP 0x00: Default; ECN: 0x00: Not-ECT (Not ECN-Capable Transport))" size="1" pos="15" show="0" value="00">
      <field name="ip.dsfield.dscp" showname="0000 00.. = Differentiated Services Codepoint: Default (0x00)" size="1" pos="15" show="0" value="0" unmaskedvalue="00"/>
      <field name="ip.dsfield.ecn" showname=".... ..00 = Explicit Congestion Notification: Not-ECT (Not ECN-Capable Transport) (0x00)" size="1" pos="15" show="0" value="0" unmaskedvalue="00"/>
    </field>
    <field name="ip.len" showname="Total Length: 1500" size="2" pos="16" show="1500" value="05dc"/>
    <field name="ip.id" showname="Identification: 0x8540 (34112)" size="2" pos="18" show="34112" value="8540"/>
    <field name="ip.flags" showname="Flags: 0x02 (Don&apos;t Fragment)" size="1" pos="20" show="2" value="40">
      <field name="ip.flags.rb" showname="0... .... = Reserved bit: Not set" size="1" pos="20" show="0" value="40"/>
      <field name="ip.flags.df" showname=".1.. .... = Don&apos;t fragment: Set" size="1" pos="20" show="1" value="40"/>
      <field name="ip.flags.mf" showname="..0. .... = More fragments: Not set" size="1" pos="20" show="0" value="40"/>
    </field>
    <field name="ip.frag_offset" showname="Fragment offset: 0" size="2" pos="20" show="0" value="4000"/>
    <field name="ip.ttl" showname="Time to live: 57" size="1" pos="22" show="57" value="39"/>
    <field name="ip.proto" showname="Protocol: TCP (6)" size="1" pos="23" show="6" value="06"/>
    <field name="ip.checksum" showname="Header checksum: 0x08c7 [validation disabled]" size="2" pos="24" show="2247" value="08c7">
      <field name="ip.checksum_good" showname="Good: False" size="2" pos="24" show="0" value="08c7"/>
      <field name="ip.checksum_bad" showname="Bad: False" size="2" pos="24" show="0" value="08c7"/>
    </field>
    <field name="ip.src" showname="Source: 1.1.1.1 (1.1.1.1)" size="4" pos="26" show="1.1.1.1" value="01010101"/>
    <field name="ip.addr" showname="Source or Destination Address: 1.1.1.1 (1.1.1.1)" hide="yes" size="4" pos="26" show="1.1.1.1" value="01010101"/>
    <field name="ip.src_host" showname="Source Host: 1.1.1.1" hide="yes" size="4" pos="26" show="1.1.1.1" value="01010101"/>
    <field name="ip.host" showname="Source or Destination Host: 1.1.1.1" hide="yes" size="4" pos="26" show="1.1.1.1" value="01010101"/>
    <field name="ip.dst" showname="Destination: 172.17.0.2 (172.17.0.2)" size="4" pos="30" show="172.17.0.2" value="ac110002"/>
    <field name="ip.addr" showname="Source or Destination Address: 172.17.0.2 (172.17.0.2)" hide="yes" size="4" pos="30" show="172.17.0.2" value="ac110002"/>
    <field name="ip.dst_host" showname="Destination Host: 172.17.0.2" hide="yes" size="4" pos="30" show="172.17.0.2" value="ac110002"/>
    <field name="ip.host" showname="Source or Destination Host: 172.17.0.2" hide="yes" size="4" pos="30" show="172.17.0.2" value="ac110002"/>
  </proto>
  <proto name="tcp" showname="Transmission Control Protocol, Src Port: 853 (853), Dst Port: 59666 (59666), Seq: 135, Ack: 338, Len: 1460" size="20" pos="34">
    <field name="tcp.srcport" showname="Source port: 853 (853)" size="2" pos="34" show="853" value="0355"/>
    <field name="tcp.dstport" showname="Destination port: 59666 (59666)" size="2" pos="36" show="59666" value="e912"/>
    <field name="tcp.port" showname="Source or Destination Port: 853" hide="yes" size="2" pos="34" show="853" value="0355"/>
    <field name="tcp.port" showname="Source or Destination Port: 59666" hide="yes" size="2" pos="36" show="59666" value="e912"/>
    <field name="tcp.stream" showname="Stream index: 0" size="0" pos="34" show="0"/>
    <field name="tcp.len" showname="TCP Segment Len: 1460" hide="yes" size="1" pos="46" show="1460" value="50"/>
    <field name="tcp.seq" showname="Sequence number: 135    (relative sequence number)" size="4" pos="38" show="135" value="5f9aca47"/>
    <field name="tcp.nxtseq" showname="Next sequence number: 1595    (relative sequence number)" size="0" pos="34" show="1595"/>
    <field name="tcp.ack" showname="Acknowledgment number: 338    (relative ack number)" size="4" pos="42" show="338" value="5f421709"/>
    <field name="tcp.hdr_len" showname="Header length: 20 bytes" size="1" pos="46" show="20" value="50"/>
    <field name="tcp.flags" showname="Flags: 0x010 (ACK)" size="2" pos="46" show="16" value="10" unmaskedvalue="5010">
      <field name="tcp.flags.res" showname="000. .... .... = Reserved: Not set" size="1" pos="46" show="0" value="0" unmaskedvalue="50"/>
      <field name="tcp.flags.ns" showname="...0 .... .... = Nonce: Not set" size="1" pos="46" show="0" value="0" unmaskedvalue="50"/>
      <field name="tcp.flags.cwr" showname=".... 0... .... = Congestion Window Reduced (CWR): Not set" size="1" pos="47" show="0" value="0" unmaskedvalue="10"/>
      <field name="tcp.flags.ecn" showname=".... .0.. .... = ECN-Echo: Not set" size="1" pos="47" show="0" value="0" unmaskedvalue="10"/>
      <field name="tcp.flags.urg" showname=".... ..0. .... = Urgent: Not set" size="1" pos="47" show="0" value="0" unmaskedvalue="10"/>
      <field name="tcp.flags.ack" showname=".... ...1 .... = Acknowledgment: Set" size="1" pos="47" show="1" value="1" unmaskedvalue="10"/>
      <field name="tcp.flags.push" showname=".... .... 0... = Push: Not set" size="1" pos="47" show="0" value="0" unmaskedvalue="10"/>
      <field name="tcp.flags.reset" showname=".... .... .0.. = Reset: Not set" size="1" pos="47" show="0" value="0" unmaskedvalue="10"/>
      <field name="tcp.flags.syn" showname=".... .... ..0. = Syn: Not set" size="1" pos="47" show="0" value="0" unmaskedvalue="10"/>
      <field name="tcp.flags.fin" showname=".... .... ...0 = Fin: Not set" size="1" pos="47" show="0" value="0" unmaskedvalue="10"/>
    </field>
    <field name="tcp.window_size_value" showname="Window size value: 30" size="2" pos="48" show="30" value="001e"/>
    <field name="tcp.window_size" showname="Calculated window size: 30720" size="2" pos="48" show="30720" value="001e"/>
    <field name="tcp.window_size_scalefactor" showname="Window size scaling factor: 1024" size="2" pos="48" show="1024" value="001e"/>
    <field name="tcp.checksum" showname="Checksum: 0x1843 [validation disabled]" size="2" pos="50" show="6211" value="1843">
      <field name="tcp.checksum_good" showname="Good Checksum: False" size="2" pos="50" show="0" value="1843"/>
      <field name="tcp.checksum_bad" showname="Bad Checksum: False" size="2" pos="50" show="0" value="1843"/>
    </field>
    <field name="tcp.analysis" showname="SEQ/ACK analysis" size="0" pos="34" show="" value="">
      <field name="tcp.analysis.bytes_in_flight" showname="Bytes in flight: 1460" size="0" pos="34" show="1460"/>
    </field>
  </proto>
  <proto name="fake-field-wrapper">
    <field name="data" value="170303001dc9049030e627443cd99cbde6508436e3e6add33dcc220c61645bbdbf28170303099dbcf587188e417feefe8ce2028b2f878d5120c864a8de549f8a825a33fd5eb76ad2bfb672667b2abd89ff52f81a6aefde7ed3eddf60042b5f686f0b59bc3dd04518d5fd59aa033dcf9bcf5b62c74c2b87b9ecfc17b7c4788537ccfb031552d1e3355da163e232bf246e6a27c33cf2c0003e9d4d5626d84a667e36f5769832e929a44fada56c7652804def542771a6b2e6da25689deb7a3503ce172419a44c3b2852c66ba2f2ca185608cfa68471a0e00565f61ab7e49f123a757406f25e42586b92827ae1529db467e70e6100daf55836f31e18fb74d296a65aa1283780a6599f3314de6da2cdbc07030e0929ce7e886ae2347879ef3789f2b85511d6f941c1b6e7eadd071c9add8183f8f48e8ae02e9eec4b0a1c9d07f4c3df29779bf4fe6b7d6cfed6d4f1395991fda234590f86baf614406df332e69b3988ced14742e8b8ba4c280aa9b3fb891a643135692dde530b5c92d050aa80fa0861c88b2def5d0bc17a0cc8c5796c420c78e812be4158422491fe08c00ed076224630aaf7b58d2f2deba22f5faec865053474bb35c41e3c4ee8e41b354742e07dd4da52486805a44b60492a024490ac4140e3b3e8150795772bfb53405cf8a8808540587a5cfe4ce7a6ee3107f90211b23961b1e66241010887e61a1d1fc4f985f05d62bb1e4fd258e1b35f1ae8976676e176c8e4fa14993ecbc1bef5993627c34747584ab3a29baa1af5104854664da2616c909a224608b6114477b5db2393ff580f3930d57ff9c46f7725b62e74b0515da9adff72c98ecfc1eaa5558f40b230104a5ac7bceaf3f5a4a4401a8551421319b3b8d50fff13a3b5dd4d384d118ae64adf35d168dcf36920b137fe51e37f3399c6c17e2bee30f22f41d0ed0ab7c620a1a8e6d8c05d2c92851204e20644eeb2c16cf5052c39ae10a934d0e1ea00ee05aded04c49d44234156fb283e287e98913372b2c0321aebc0561beda9b93449527da0487e710cc38a3fdb3d9ac71486829b47a5772b161773eab004b1febeee16fc1a325a2a220d5e7f87fa6b0505fbb9da2cc0931e3be7e3d117c31835ea502925cfd8c3f8f26cecb4cae0bbd9d10b8c1a7d4e4b1836f3d252fbbd570419d639f1bcb866d3a753db53cbb56b488679d43869be06160ab6d031c7f258a44fb5c2e0ab4f1787a025fa1aa03119587417cf4d33e80225bd528ef7f4a24ddb6d267be6c7177d63b01d7d358b9d94a5a4cee0a7134571946421bf2e9dd4715fb1d1c7e03117cfcfc87cbed68f1c261a512a9928185a244593627c439ad186f01541fe010d7a2e53691e62417c322f70f29833b5480a80497d744288f430bd5b26503186015d04f6c490769d6f87af36729728d8eee994a145bade54b7f6671fac9decef2d0942e9b018e070112dc38f6a1a2b0e0e8fda97bc9f23e14b7bef5bbfad1e247aa731a11f0fc0a146a36aa50ae75e84cde6b25c024f93ae89efdcf4d3d7d41521c45be78b0e0235a11296c257cf653812125878f966a7778416adfaa701e5aebf32a9e30a84c37f3064982f50d913135ace8a2d673566eabbcb60cc2448fb313158b81014a8e48dd6b2a3fc93d35b41bbe8500cb2fdcb784fed3804b4b91977695aa636d97c92e44c4e5ecb5e9a60022ec1fd7407182c0cdbdb1df3454fd1d75c2c71ee9e657b5d026ce5804080f7238ac1fbe6767ec0f19d45f035ea0ffd73a1eb34fb45082bb5adb6f0eb8f798011621827556e863585a30b3a17b387c5177f5bda8ba83f1f6d4bdc857acc9251bf01c46c648dbb94bcd81a3867120eb4f09e5a1d496262d367be62e6d821b5f81ebcf9ea5bd22705885e316d0c858788066bad6989491fc330009cd6bbc10771a67225ea5d525268afd6d83c052daab8696ec7d009c55fa2100cbb8278a0c742f3ad883011f71642cf231bbdd6c255135e083517edc39535d01c8de7cd533473bda466b613ef48132421c7bfa522bbe466753e6e29b9a3c5bef7b352273d544ca2962ada10">
      <field name="data.data" showname="Data: 170303001dc9049030e627443cd99cbde6508436e3e6add3..." size="1460" pos="54" show="17:03:03:00:1d:c9:04:90:30:e6:27:44:3c:d9:9c:bd:e6:50:84:36:e3:e6:ad:d3:3d:cc:22:0c:61:64:5b:bd:bf:28:17:03:03:09:9d:bc:f5:87:18:8e:41:7f:ee:fe:8c:e2:02:8b:2f:87:8d:51:20:c8:64:a8:de:54:9f:8a:82:5a:33:fd:5e:b7:6a:d2:bf:b6:72:66:7b:2a:bd:89:ff:52:f8:1a:6a:ef:de:7e:d3:ed:df:60:04:2b:5f:68:6f:0b:59:bc:3d:d0:45:18:d5:fd:59:aa:03:3d:cf:9b:cf:5b:62:c7:4c:2b:87:b9:ec:fc:17:b7:c4:78:85:37:cc:fb:03:15:52:d1:e3:35:5d:a1:63:e2:32:bf:24:6e:6a:27:c3:3c:f2:c0:00:3e:9d:4d:56:26:d8:4a:66:7e:36:f5:76:98:32:e9:29:a4:4f:ad:a5:6c:76:52:80:4d:ef:54:27:71:a6:b2:e6:da:25:68:9d:eb:7a:35:03:ce:17:24:19:a4:4c:3b:28:52:c6:6b:a2:f2:ca:18:56:08:cf:a6:84:71:a0:e0:05:65:f6:1a:b7:e4:9f:12:3a:75:74:06:f2:5e:42:58:6b:92:82:7a:e1:52:9d:b4:67:e7:0e:61:00:da:f5:58:36:f3:1e:18:fb:74:d2:96:a6:5a:a1:28:37:80:a6:59:9f:33:14:de:6d:a2:cd:bc:07:03:0e:09:29:ce:7e:88:6a:e2:34:78:79:ef:37:89:f2:b8:55:11:d6:f9:41:c1:b6:e7:ea:dd:07:1c:9a:dd:81:83:f8:f4:8e:8a:e0:2e:9e:ec:4b:0a:1c:9d:07:f4:c3:df:29:77:9b:f4:fe:6b:7d:6c:fe:d6:d4:f1:39:59:91:fd:a2:34:59:0f:86:ba:f6:14:40:6d:f3:32:e6:9b:39:88:ce:d1:47:42:e8:b8:ba:4c:28:0a:a9:b3:fb:89:1a:64:31:35:69:2d:de:53:0b:5c:92:d0:50:aa:80:fa:08:61:c8:8b:2d:ef:5d:0b:c1:7a:0c:c8:c5:79:6c:42:0c:78:e8:12:be:41:58:42:24:91:fe:08:c0:0e:d0:76:22:46:30:aa:f7:b5:8d:2f:2d:eb:a2:2f:5f:ae:c8:65:05:34:74:bb:35:c4:1e:3c:4e:e8:e4:1b:35:47:42:e0:7d:d4:da:52:48:68:05:a4:4b:60:49:2a:02:44:90:ac:41:40:e3:b3:e8:15:07:95:77:2b:fb:53:40:5c:f8:a8:80:85:40:58:7a:5c:fe:4c:e7:a6:ee:31:07:f9:02:11:b2:39:61:b1:e6:62:41:01:08:87:e6:1a:1d:1f:c4:f9:85:f0:5d:62:bb:1e:4f:d2:58:e1:b3:5f:1a:e8:97:66:76:e1:76:c8:e4:fa:14:99:3e:cb:c1:be:f5:99:36:27:c3:47:47:58:4a:b3:a2:9b:aa:1a:f5:10:48:54:66:4d:a2:61:6c:90:9a:22:46:08:b6:11:44:77:b5:db:23:93:ff:58:0f:39:30:d5:7f:f9:c4:6f:77:25:b6:2e:74:b0:51:5d:a9:ad:ff:72:c9:8e:cf:c1:ea:a5:55:8f:40:b2:30:10:4a:5a:c7:bc:ea:f3:f5:a4:a4:40:1a:85:51:42:13:19:b3:b8:d5:0f:ff:13:a3:b5:dd:4d:38:4d:11:8a:e6:4a:df:35:d1:68:dc:f3:69:20:b1:37:fe:51:e3:7f:33:99:c6:c1:7e:2b:ee:30:f2:2f:41:d0:ed:0a:b7:c6:20:a1:a8:e6:d8:c0:5d:2c:92:85:12:04:e2:06:44:ee:b2:c1:6c:f5:05:2c:39:ae:10:a9:34:d0:e1:ea:00:ee:05:ad:ed:04:c4:9d:44:23:41:56:fb:28:3e:28:7e:98:91:33:72:b2:c0:32:1a:eb:c0:56:1b:ed:a9:b9:34:49:52:7d:a0:48:7e:71:0c:c3:8a:3f:db:3d:9a:c7:14:86:82:9b:47:a5:77:2b:16:17:73:ea:b0:04:b1:fe:be:ee:16:fc:1a:32:5a:2a:22:0d:5e:7f:87:fa:6b:05:05:fb:b9:da:2c:c0:93:1e:3b:e7:e3:d1:17:c3:18:35:ea:50:29:25:cf:d8:c3:f8:f2:6c:ec:b4:ca:e0:bb:d9:d1:0b:8c:1a:7d:4e:4b:18:36:f3:d2:52:fb:bd:57:04:19:d6:39:f1:bc:b8:66:d3:a7:53:db:53:cb:b5:6b:48:86:79:d4:38:69:be:06:16:0a:b6:d0:31:c7:f2:58:a4:4f:b5:c2:e0:ab:4f:17:87:a0:25:fa:1a:a0:31:19:58:74:17:cf:4d:33:e8:02:25:bd:52:8e:f7:f4:a2:4d:db:6d:26:7b:e6:c7:17:7d:63:b0:1d:7d:35:8b:9d:94:a5:a4:ce:e0:a7:13:45:71:94:64:21:bf:2e:9d:d4:71:5f:b1:d1:c7:e0:31:17:cf:cf:c8:7c:be:d6:8f:1c:26:1a:51:2a:99:28:18:5a:24:45:93:62:7c:43:9a:d1:86:f0:15:41:fe:01:0d:7a:2e:53:69:1e:62:41:7c:32:2f:70:f2:98:33:b5:48:0a:80:49:7d:74:42:88:f4:30:bd:5b:26:50:31:86:01:5d:04:f6:c4:90:76:9d:6f:87:af:36:72:97:28:d8:ee:e9:94:a1:45:ba:de:54:b7:f6:67:1f:ac:9d:ec:ef:2d:09:42:e9:b0:18:e0:70:11:2d:c3:8f:6a:1a:2b:0e:0e:8f:da:97:bc:9f:23:e1:4b:7b:ef:5b:bf:ad:1e:24:7a:a7:31:a1:1f:0f:c0:a1:46:a3:6a:a5:0a:e7:5e:84:cd:e6:b2:5c:02:4f:93:ae:89:ef:dc:f4:d3:d7:d4:15:21:c4:5b:e7:8b:0e:02:35:a1:12:96:c2:57:cf:65:38:12:12:58:78:f9:66:a7:77:84:16:ad:fa:a7:01:e5:ae:bf:32:a9:e3:0a:84:c3:7f:30:64:98:2f:50:d9:13:13:5a:ce:8a:2d:67:35:66:ea:bb:cb:60:cc:24:48:fb:31:31:58:b8:10:14:a8:e4:8d:d6:b2:a3:fc:93:d3:5b:41:bb:e8:50:0c:b2:fd:cb:78:4f:ed:38:04:b4:b9:19:77:69:5a:a6:36:d9:7c:92:e4:4c:4e:5e:cb:5e:9a:60:02:2e:c1:fd:74:07:18:2c:0c:db:db:1d:f3:45:4f:d1:d7:5c:2c:71:ee:9e:65:7b:5d:02:6c:e5:80:40:80:f7:23:8a:c1:fb:e6:76:7e:c0:f1:9d:45:f0:35:ea:0f:fd:73:a1:eb:34:fb:45:08:2b:b5:ad:b6:f0:eb:8f:79:80:11:62:18:27:55:6e:86:35:85:a3:0b:3a:17:b3:87:c5:17:7f:5b:da:8b:a8:3f:1f:6d:4b:dc:85:7a:cc:92:51:bf:01:c4:6c:64:8d:bb:94:bc:d8:1a:38:67:12:0e:b4:f0:9e:5a:1d:49:62:62:d3:67:be:62:e6:d8:21:b5:f8:1e:bc:f9:ea:5b:d2:27:05:88:5e:31:6d:0c:85:87:88:06:6b:ad:69:89:49:1f:c3:30:00:9c:d6:bb:c1:07:71:a6:72:25:ea:5d:52:52:68:af:d6:d8:3c:05:2d:aa:b8:69:6e:c7:d0:09:c5:5f:a2:10:0c:bb:82:78:a0:c7:42:f3:ad:88:30:11:f7:16:42:cf:23:1b:bd:d6:c2:55:13:5e:08:35:17:ed:c3:95:35:d0:1c:8d:e7:cd:53:34:73:bd:a4:66:b6:13:ef:48:13:24:21:c7:bf:a5:22:bb:e4:66:75:3e:6e:29:b9:a3:c5:be:f7:b3:52:27:3d:54:4c:a2:96:2a:da:10" value="170303001dc9049030e627443cd99cbde6508436e3e6add33dcc220c61645bbdbf28170303099dbcf587188e417feefe8ce2028b2f878d5120c864a8de549f8a825a33fd5eb76ad2bfb672667b2abd89ff52f81a6aefde7ed3eddf60042b5f686f0b59bc3dd04518d5fd59aa033dcf9bcf5b62c74c2b87b9ecfc17b7c4788537ccfb031552d1e3355da163e232bf246e6a27c33cf2c0003e9d4d5626d84a667e36f5769832e929a44fada56c7652804def542771a6b2e6da25689deb7a3503ce172419a44c3b2852c66ba2f2ca185608cfa68471a0e00565f61ab7e49f123a757406f25e42586b92827ae1529db467e70e6100daf55836f31e18fb74d296a65aa1283780a6599f3314de6da2cdbc07030e0929ce7e886ae2347879ef3789f2b85511d6f941c1b6e7eadd071c9add8183f8f48e8ae02e9eec4b0a1c9d07f4c3df29779bf4fe6b7d6cfed6d4f1395991fda234590f86baf614406df332e69b3988ced14742e8b8ba4c280aa9b3fb891a643135692dde530b5c92d050aa80fa0861c88b2def5d0bc17a0cc8c5796c420c78e812be4158422491fe08c00ed076224630aaf7b58d2f2deba22f5faec865053474bb35c41e3c4ee8e41b354742e07dd4da52486805a44b60492a024490ac4140e3b3e8150795772bfb53405cf8a8808540587a5cfe4ce7a6ee3107f90211b23961b1e66241010887e61a1d1fc4f985f05d62bb1e4fd258e1b35f1ae8976676e176c8e4fa14993ecbc1bef5993627c34747584ab3a29baa1af5104854664da2616c909a224608b6114477b5db2393ff580f3930d57ff9c46f7725b62e74b0515da9adff72c98ecfc1eaa5558f40b230104a5ac7bceaf3f5a4a4401a8551421319b3b8d50fff13a3b5dd4d384d118ae64adf35d168dcf36920b137fe51e37f3399c6c17e2bee30f22f41d0ed0ab7c620a1a8e6d8c05d2c92851204e20644eeb2c16cf5052c39ae10a934d0e1ea00ee05aded04c49d44234156fb283e287e98913372b2c0321aebc0561beda9b93449527da0487e710cc38a3fdb3d9ac71486829b47a5772b161773eab004b1febeee16fc1a325a2a220d5e7f87fa6b0505fbb9da2cc0931e3be7e3d117c31835ea502925cfd8c3f8f26cecb4cae0bbd9d10b8c1a7d4e4b1836f3d252fbbd570419d639f1bcb866d3a753db53cbb56b488679d43869be06160ab6d031c7f258a44fb5c2e0ab4f1787a025fa1aa03119587417cf4d33e80225bd528ef7f4a24ddb6d267be6c7177d63b01d7d358b9d94a5a4cee0a7134571946421bf2e9dd4715fb1d1c7e03117cfcfc87cbed68f1c261a512a9928185a244593627c439ad186f01541fe010d7a2e53691e62417c322f70f29833b5480a80497d744288f430bd5b26503186015d04f6c490769d6f87af36729728d8eee994a145bade54b7f6671fac9decef2d0942e9b018e070112dc38f6a1a2b0e0e8fda97bc9f23e14b7bef5bbfad1e247aa731a11f0fc0a146a36aa50ae75e84cde6b25c024f93ae89efdcf4d3d7d41521c45be78b0e0235a11296c257cf653812125878f966a7778416adfaa701e5aebf32a9e30a84c37f3064982f50d913135ace8a2d673566eabbcb60cc2448fb313158b81014a8e48dd6b2a3fc93d35b41bbe8500cb2fdcb784fed3804b4b91977695aa636d97c92e44c4e5ecb5e9a60022ec1fd7407182c0cdbdb1df3454fd1d75c2c71ee9e657b5d026ce5804080f7238ac1fbe6767ec0f19d45f035ea0ffd73a1eb34fb45082bb5adb6f0eb8f798011621827556e863585a30b3a17b387c5177f5bda8ba83f1f6d4bdc857acc9251bf01c46c648dbb94bcd81a3867120eb4f09e5a1d496262d367be62e6d821b5f81ebcf9ea5bd22705885e316d0c858788066bad6989491fc330009cd6bbc10771a67225ea5d525268afd6d83c052daab8696ec7d009c55fa2100cbb8278a0c742f3ad883011f71642cf231bbdd6c255135e083517edc39535d01c8de7cd533473bda466b613ef48132421c7bfa522bbe466753e6e29b9a3c5bef7b352273d544ca2962ada10"/>
      <field name="data.len" showname="Length: 1460" size="0" pos="54" show="1460"/>
  </field>
</proto>
</packet>


<packet>
  <proto name="geninfo" pos="0" showname="General information" size="54">
    <field name="num" pos="0" show="9" showname="Number" value="9" size="54"/>
    <field name="len" pos="0" show="54" showname="Frame Length" value="36" size="54"/>
    <field name="caplen" pos="0" show="54" showname="Captured Length" value="36" size="54"/>
    <field name="timestamp" pos="0" show="Jun 27, 2019 12:20:57.639745000 CEST" showname="Captured Time" value="1561630857.639745000" size="54"/>
  </proto>
  <proto name="frame" showname="Frame 9: 54 bytes on wire (432 bits), 54 bytes captured (432 bits) on interface 0" size="54" pos="0">
    <field name="frame.interface_id" showname="Interface id: 0" size="0" pos="0" show="0"/>
    <field name="frame.encap_type" showname="Encapsulation type: Ethernet (1)" size="0" pos="0" show="1"/>
    <field name="frame.time" showname="Arrival Time: Jun 27, 2019 12:20:57.639745000 CEST" size="0" pos="0" show="&quot;Jun 27, 2019 12:20:57.639745000 CEST&quot;"/>
    <field name="frame.offset_shift" showname="Time shift for this packet: 0.000000000 seconds" size="0" pos="0" show="0.000000000"/>
    <field name="frame.time_epoch" showname="Epoch Time: 1561630857.639745000 seconds" size="0" pos="0" show="1561630857.639745000"/>
    <field name="frame.time_delta" showname="Time delta from previous captured frame: 0.000019000 seconds" size="0" pos="0" show="0.000019000"/>
    <field name="frame.time_delta_displayed" showname="Time delta from previous displayed frame: 0.000019000 seconds" size="0" pos="0" show="0.000019000"/>
    <field name="frame.time_relative" showname="Time since reference or first frame: 0.009062000 seconds" size="0" pos="0" show="0.009062000"/>
    <field name="frame.number" showname="Frame Number: 9" size="0" pos="0" show="9"/>
    <field name="frame.len" showname="Frame Length: 54 bytes (432 bits)" size="0" pos="0" show="54"/>
    <field name="frame.cap_len" showname="Capture Length: 54 bytes (432 bits)" size="0" pos="0" show="54"/>
    <field name="frame.marked" showname="Frame is marked: False" size="0" pos="0" show="0"/>
    <field name="frame.ignored" showname="Frame is ignored: False" size="0" pos="0" show="0"/>
    <field name="frame.protocols" showname="Protocols in frame: eth:ip:tcp" size="0" pos="0" show="eth:ip:tcp"/>
  </proto>
  <proto name="eth" showname="Ethernet II, Src: 02:42:ac:11:00:02 (02:42:ac:11:00:02), Dst: 02:42:71:12:56:af (02:42:71:12:56:af)" size="14" pos="0">
    <field name="eth.dst" showname="Destination: 02:42:71:12:56:af (02:42:71:12:56:af)" size="6" pos="0" show="02:42:71:12:56:af" value="0242711256af">
      <field name="eth.addr" showname="Address: 02:42:71:12:56:af (02:42:71:12:56:af)" size="6" pos="0" show="02:42:71:12:56:af" value="0242711256af"/>
      <field name="eth.lg" showname=".... ..1. .... .... .... .... = LG bit: Locally administered address (this is NOT the factory default)" size="3" pos="0" show="1" value="1" unmaskedvalue="024271"/>
      <field name="eth.ig" showname=".... ...0 .... .... .... .... = IG bit: Individual address (unicast)" size="3" pos="0" show="0" value="0" unmaskedvalue="024271"/>
    </field>
    <field name="eth.src" showname="Source: 02:42:ac:11:00:02 (02:42:ac:11:00:02)" size="6" pos="6" show="02:42:ac:11:00:02" value="0242ac110002">
      <field name="eth.addr" showname="Address: 02:42:ac:11:00:02 (02:42:ac:11:00:02)" size="6" pos="6" show="02:42:ac:11:00:02" value="0242ac110002"/>
      <field name="eth.lg" showname=".... ..1. .... .... .... .... = LG bit: Locally administered address (this is NOT the factory default)" size="3" pos="6" show="1" value="1" unmaskedvalue="0242ac"/>
      <field name="eth.ig" showname=".... ...0 .... .... .... .... = IG bit: Individual address (unicast)" size="3" pos="6" show="0" value="0" unmaskedvalue="0242ac"/>
    </field>
    <field name="eth.type" showname="Type: IP (0x0800)" size="2" pos="12" show="2048" value="0800"/>
  </proto>
  <proto name="ip" showname="Internet Protocol Version 4, Src: 172.17.0.2 (172.17.0.2), Dst: 1.1.1.1 (1.1.1.1)" size="20" pos="14">
    <field name="ip.version" showname="Version: 4" size="1" pos="14" show="4" value="45"/>
    <field name="ip.hdr_len" showname="Header length: 20 bytes" size="1" pos="14" show="20" value="45"/>
    <field name="ip.dsfield" showname="Differentiated Services Field: 0x00 (DSCP 0x00: Default; ECN: 0x00: Not-ECT (Not ECN-Capable Transport))" size="1" pos="15" show="0" value="00">
      <field name="ip.dsfield.dscp" showname="0000 00.. = Differentiated Services Codepoint: Default (0x00)" size="1" pos="15" show="0" value="0" unmaskedvalue="00"/>
      <field name="ip.dsfield.ecn" showname=".... ..00 = Explicit Congestion Notification: Not-ECT (Not ECN-Capable Transport) (0x00)" size="1" pos="15" show="0" value="0" unmaskedvalue="00"/>
    </field>
    <field name="ip.len" showname="Total Length: 40" size="2" pos="16" show="40" value="0028"/>
    <field name="ip.id" showname="Identification: 0x7f06 (32518)" size="2" pos="18" show="32518" value="7f06"/>
    <field name="ip.flags" showname="Flags: 0x02 (Don&apos;t Fragment)" size="1" pos="20" show="2" value="40">
      <field name="ip.flags.rb" showname="0... .... = Reserved bit: Not set" size="1" pos="20" show="0" value="40"/>
      <field name="ip.flags.df" showname=".1.. .... = Don&apos;t fragment: Set" size="1" pos="20" show="1" value="40"/>
      <field name="ip.flags.mf" showname="..0. .... = More fragments: Not set" size="1" pos="20" show="0" value="40"/>
    </field>
    <field name="ip.frag_offset" showname="Fragment offset: 0" size="2" pos="20" show="0" value="4000"/>
    <field name="ip.ttl" showname="Time to live: 64" size="1" pos="22" show="64" value="40"/>
    <field name="ip.proto" showname="Protocol: TCP (6)" size="1" pos="23" show="6" value="06"/>
    <field name="ip.checksum" showname="Header checksum: 0x0db5 [validation disabled]" size="2" pos="24" show="3509" value="0db5">
      <field name="ip.checksum_good" showname="Good: False" size="2" pos="24" show="0" value="0db5"/>
      <field name="ip.checksum_bad" showname="Bad: False" size="2" pos="24" show="0" value="0db5"/>
    </field>
    <field name="ip.src" showname="Source: 172.17.0.2 (172.17.0.2)" size="4" pos="26" show="172.17.0.2" value="ac110002"/>
    <field name="ip.addr" showname="Source or Destination Address: 172.17.0.2 (172.17.0.2)" hide="yes" size="4" pos="26" show="172.17.0.2" value="ac110002"/>
    <field name="ip.src_host" showname="Source Host: 172.17.0.2" hide="yes" size="4" pos="26" show="172.17.0.2" value="ac110002"/>
    <field name="ip.host" showname="Source or Destination Host: 172.17.0.2" hide="yes" size="4" pos="26" show="172.17.0.2" value="ac110002"/>
    <field name="ip.dst" showname="Destination: 1.1.1.1 (1.1.1.1)" size="4" pos="30" show="1.1.1.1" value="01010101"/>
    <field name="ip.addr" showname="Source or Destination Address: 1.1.1.1 (1.1.1.1)" hide="yes" size="4" pos="30" show="1.1.1.1" value="01010101"/>
    <field name="ip.dst_host" showname="Destination Host: 1.1.1.1" hide="yes" size="4" pos="30" show="1.1.1.1" value="01010101"/>
    <field name="ip.host" showname="Source or Destination Host: 1.1.1.1" hide="yes" size="4" pos="30" show="1.1.1.1" value="01010101"/>
  </proto>
  <proto name="tcp" showname="Transmission Control Protocol, Src Port: 59666 (59666), Dst Port: 853 (853), Seq: 338, Ack: 1595, Len: 0" size="20" pos="34">
    <field name="tcp.srcport" showname="Source port: 59666 (59666)" size="2" pos="34" show="59666" value="e912"/>
    <field name="tcp.dstport" showname="Destination port: 853 (853)" size="2" pos="36" show="853" value="0355"/>
    <field name="tcp.port" showname="Source or Destination Port: 59666" hide="yes" size="2" pos="34" show="59666" value="e912"/>
    <field name="tcp.port" showname="Source or Destination Port: 853" hide="yes" size="2" pos="36" show="853" value="0355"/>
    <field name="tcp.stream" showname="Stream index: 0" size="0" pos="34" show="0"/>
    <field name="tcp.len" showname="TCP Segment Len: 0" hide="yes" size="1" pos="46" show="0" value="50"/>
    <field name="tcp.seq" showname="Sequence number: 338    (relative sequence number)" size="4" pos="38" show="338" value="5f421709"/>
    <field name="tcp.ack" showname="Acknowledgment number: 1595    (relative ack number)" size="4" pos="42" show="1595" value="5f9acffb"/>
    <field name="tcp.hdr_len" showname="Header length: 20 bytes" size="1" pos="46" show="20" value="50"/>
    <field name="tcp.flags" showname="Flags: 0x010 (ACK)" size="2" pos="46" show="16" value="10" unmaskedvalue="5010">
      <field name="tcp.flags.res" showname="000. .... .... = Reserved: Not set" size="1" pos="46" show="0" value="0" unmaskedvalue="50"/>
      <field name="tcp.flags.ns" showname="...0 .... .... = Nonce: Not set" size="1" pos="46" show="0" value="0" unmaskedvalue="50"/>
      <field name="tcp.flags.cwr" showname=".... 0... .... = Congestion Window Reduced (CWR): Not set" size="1" pos="47" show="0" value="0" unmaskedvalue="10"/>
      <field name="tcp.flags.ecn" showname=".... .0.. .... = ECN-Echo: Not set" size="1" pos="47" show="0" value="0" unmaskedvalue="10"/>
      <field name="tcp.flags.urg" showname=".... ..0. .... = Urgent: Not set" size="1" pos="47" show="0" value="0" unmaskedvalue="10"/>
      <field name="tcp.flags.ack" showname=".... ...1 .... = Acknowledgment: Set" size="1" pos="47" show="1" value="1" unmaskedvalue="10"/>
      <field name="tcp.flags.push" showname=".... .... 0... = Push: Not set" size="1" pos="47" show="0" value="0" unmaskedvalue="10"/>
      <field name="tcp.flags.reset" showname=".... .... .0.. = Reset: Not set" size="1" pos="47" show="0" value="0" unmaskedvalue="10"/>
      <field name="tcp.flags.syn" showname=".... .... ..0. = Syn: Not set" size="1" pos="47" show="0" value="0" unmaskedvalue="10"/>
      <field name="tcp.flags.fin" showname=".... .... ...0 = Fin: Not set" size="1" pos="47" show="0" value="0" unmaskedvalue="10"/>
    </field>
    <field name="tcp.window_size_value" showname="Window size value: 260" size="2" pos="48" show="260" value="0104"/>
    <field name="tcp.window_size" showname="Calculated window size: 33280" size="2" pos="48" show="33280" value="0104"/>
    <field name="tcp.window_size_scalefactor" showname="Window size scaling factor: 128" size="2" pos="48" show="128" value="0104"/>
    <field name="tcp.checksum" showname="Checksum: 0xae2f [validation disabled]" size="2" pos="50" show="44591" value="ae2f">
      <field name="tcp.checksum_good" showname="Good Checksum: False" size="2" pos="50" show="0" value="ae2f"/>
      <field name="tcp.checksum_bad" showname="Bad Checksum: False" size="2" pos="50" show="0" value="ae2f"/>
    </field>
    <field name="tcp.analysis" showname="SEQ/ACK analysis" size="0" pos="34" show="" value="">
      <field name="tcp.analysis.acks_frame" showname="This is an ACK to the segment in frame: 8" size="0" pos="34" show="8"/>
      <field name="tcp.analysis.ack_rtt" showname="The RTT to ACK the segment was: 0.000019000 seconds" size="0" pos="34" show="0.000019000"/>
    </field>
  </proto>
</packet>


<packet>
  <proto name="geninfo" pos="0" showname="General information" size="1270">
    <field name="num" pos="0" show="10" showname="Number" value="a" size="1270"/>
    <field name="len" pos="0" show="1270" showname="Frame Length" value="4f6" size="1270"/>
    <field name="caplen" pos="0" show="1270" showname="Captured Length" value="4f6" size="1270"/>
    <field name="timestamp" pos="0" show="Jun 27, 2019 12:20:57.639778000 CEST" showname="Captured Time" value="1561630857.639778000" size="1270"/>
  </proto>
  <proto name="frame" showname="Frame 10: 1270 bytes on wire (10160 bits), 1270 bytes captured (10160 bits) on interface 0" size="1270" pos="0">
    <field name="frame.interface_id" showname="Interface id: 0" size="0" pos="0" show="0"/>
    <field name="frame.encap_type" showname="Encapsulation type: Ethernet (1)" size="0" pos="0" show="1"/>
    <field name="frame.time" showname="Arrival Time: Jun 27, 2019 12:20:57.639778000 CEST" size="0" pos="0" show="&quot;Jun 27, 2019 12:20:57.639778000 CEST&quot;"/>
    <field name="frame.offset_shift" showname="Time shift for this packet: 0.000000000 seconds" size="0" pos="0" show="0.000000000"/>
    <field name="frame.time_epoch" showname="Epoch Time: 1561630857.639778000 seconds" size="0" pos="0" show="1561630857.639778000"/>
    <field name="frame.time_delta" showname="Time delta from previous captured frame: 0.000033000 seconds" size="0" pos="0" show="0.000033000"/>
    <field name="frame.time_delta_displayed" showname="Time delta from previous displayed frame: 0.000033000 seconds" size="0" pos="0" show="0.000033000"/>
    <field name="frame.time_relative" showname="Time since reference or first frame: 0.009095000 seconds" size="0" pos="0" show="0.009095000"/>
    <field name="frame.number" showname="Frame Number: 10" size="0" pos="0" show="10"/>
    <field name="frame.len" showname="Frame Length: 1270 bytes (10160 bits)" size="0" pos="0" show="1270"/>
    <field name="frame.cap_len" showname="Capture Length: 1270 bytes (10160 bits)" size="0" pos="0" show="1270"/>
    <field name="frame.marked" showname="Frame is marked: False" size="0" pos="0" show="0"/>
    <field name="frame.ignored" showname="Frame is ignored: False" size="0" pos="0" show="0"/>
    <field name="frame.protocols" showname="Protocols in frame: eth:ip:tcp:data" size="0" pos="0" show="eth:ip:tcp:data"/>
  </proto>
  <proto name="eth" showname="Ethernet II, Src: 02:42:71:12:56:af (02:42:71:12:56:af), Dst: 02:42:ac:11:00:02 (02:42:ac:11:00:02)" size="14" pos="0">
    <field name="eth.dst" showname="Destination: 02:42:ac:11:00:02 (02:42:ac:11:00:02)" size="6" pos="0" show="02:42:ac:11:00:02" value="0242ac110002">
      <field name="eth.addr" showname="Address: 02:42:ac:11:00:02 (02:42:ac:11:00:02)" size="6" pos="0" show="02:42:ac:11:00:02" value="0242ac110002"/>
      <field name="eth.lg" showname=".... ..1. .... .... .... .... = LG bit: Locally administered address (this is NOT the factory default)" size="3" pos="0" show="1" value="1" unmaskedvalue="0242ac"/>
      <field name="eth.ig" showname=".... ...0 .... .... .... .... = IG bit: Individual address (unicast)" size="3" pos="0" show="0" value="0" unmaskedvalue="0242ac"/>
    </field>
    <field name="eth.src" showname="Source: 02:42:71:12:56:af (02:42:71:12:56:af)" size="6" pos="6" show="02:42:71:12:56:af" value="0242711256af">
      <field name="eth.addr" showname="Address: 02:42:71:12:56:af (02:42:71:12:56:af)" size="6" pos="6" show="02:42:71:12:56:af" value="0242711256af"/>
      <field name="eth.lg" showname=".... ..1. .... .... .... .... = LG bit: Locally administered address (this is NOT the factory default)" size="3" pos="6" show="1" value="1" unmaskedvalue="024271"/>
      <field name="eth.ig" showname=".... ...0 .... .... .... .... = IG bit: Individual address (unicast)" size="3" pos="6" show="0" value="0" unmaskedvalue="024271"/>
    </field>
    <field name="eth.type" showname="Type: IP (0x0800)" size="2" pos="12" show="2048" value="0800"/>
  </proto>
  <proto name="ip" showname="Internet Protocol Version 4, Src: 1.1.1.1 (1.1.1.1), Dst: 172.17.0.2 (172.17.0.2)" size="20" pos="14">
    <field name="ip.version" showname="Version: 4" size="1" pos="14" show="4" value="45"/>
    <field name="ip.hdr_len" showname="Header length: 20 bytes" size="1" pos="14" show="20" value="45"/>
    <field name="ip.dsfield" showname="Differentiated Services Field: 0x00 (DSCP 0x00: Default; ECN: 0x00: Not-ECT (Not ECN-Capable Transport))" size="1" pos="15" show="0" value="00">
      <field name="ip.dsfield.dscp" showname="0000 00.. = Differentiated Services Codepoint: Default (0x00)" size="1" pos="15" show="0" value="0" unmaskedvalue="00"/>
      <field name="ip.dsfield.ecn" showname=".... ..00 = Explicit Congestion Notification: Not-ECT (Not ECN-Capable Transport) (0x00)" size="1" pos="15" show="0" value="0" unmaskedvalue="00"/>
    </field>
    <field name="ip.len" showname="Total Length: 1256" size="2" pos="16" show="1256" value="04e8"/>
    <field name="ip.id" showname="Identification: 0x0541 (1345)" size="2" pos="18" show="1345" value="0541"/>
    <field name="ip.flags" showname="Flags: 0x02 (Don&apos;t Fragment)" size="1" pos="20" show="2" value="40">
      <field name="ip.flags.rb" showname="0... .... = Reserved bit: Not set" size="1" pos="20" show="0" value="40"/>
      <field name="ip.flags.df" showname=".1.. .... = Don&apos;t fragment: Set" size="1" pos="20" show="1" value="40"/>
      <field name="ip.flags.mf" showname="..0. .... = More fragments: Not set" size="1" pos="20" show="0" value="40"/>
    </field>
    <field name="ip.frag_offset" showname="Fragment offset: 0" size="2" pos="20" show="0" value="4000"/>
    <field name="ip.ttl" showname="Time to live: 57" size="1" pos="22" show="57" value="39"/>
    <field name="ip.proto" showname="Protocol: TCP (6)" size="1" pos="23" show="6" value="06"/>
    <field name="ip.checksum" showname="Header checksum: 0x89ba [validation disabled]" size="2" pos="24" show="35258" value="89ba">
      <field name="ip.checksum_good" showname="Good: False" size="2" pos="24" show="0" value="89ba"/>
      <field name="ip.checksum_bad" showname="Bad: False" size="2" pos="24" show="0" value="89ba"/>
    </field>
    <field name="ip.src" showname="Source: 1.1.1.1 (1.1.1.1)" size="4" pos="26" show="1.1.1.1" value="01010101"/>
    <field name="ip.addr" showname="Source or Destination Address: 1.1.1.1 (1.1.1.1)" hide="yes" size="4" pos="26" show="1.1.1.1" value="01010101"/>
    <field name="ip.src_host" showname="Source Host: 1.1.1.1" hide="yes" size="4" pos="26" show="1.1.1.1" value="01010101"/>
    <field name="ip.host" showname="Source or Destination Host: 1.1.1.1" hide="yes" size="4" pos="26" show="1.1.1.1" value="01010101"/>
    <field name="ip.dst" showname="Destination: 172.17.0.2 (172.17.0.2)" size="4" pos="30" show="172.17.0.2" value="ac110002"/>
    <field name="ip.addr" showname="Source or Destination Address: 172.17.0.2 (172.17.0.2)" hide="yes" size="4" pos="30" show="172.17.0.2" value="ac110002"/>
    <field name="ip.dst_host" showname="Destination Host: 172.17.0.2" hide="yes" size="4" pos="30" show="172.17.0.2" value="ac110002"/>
    <field name="ip.host" showname="Source or Destination Host: 172.17.0.2" hide="yes" size="4" pos="30" show="172.17.0.2" value="ac110002"/>
  </proto>
  <proto name="tcp" showname="Transmission Control Protocol, Src Port: 853 (853), Dst Port: 59666 (59666), Seq: 1595, Ack: 338, Len: 1216" size="20" pos="34">
    <field name="tcp.srcport" showname="Source port: 853 (853)" size="2" pos="34" show="853" value="0355"/>
    <field name="tcp.dstport" showname="Destination port: 59666 (59666)" size="2" pos="36" show="59666" value="e912"/>
    <field name="tcp.port" showname="Source or Destination Port: 853" hide="yes" size="2" pos="34" show="853" value="0355"/>
    <field name="tcp.port" showname="Source or Destination Port: 59666" hide="yes" size="2" pos="36" show="59666" value="e912"/>
    <field name="tcp.stream" showname="Stream index: 0" size="0" pos="34" show="0"/>
    <field name="tcp.len" showname="TCP Segment Len: 1216" hide="yes" size="1" pos="46" show="1216" value="50"/>
    <field name="tcp.seq" showname="Sequence number: 1595    (relative sequence number)" size="4" pos="38" show="1595" value="5f9acffb"/>
    <field name="tcp.nxtseq" showname="Next sequence number: 2811    (relative sequence number)" size="0" pos="34" show="2811"/>
    <field name="tcp.ack" showname="Acknowledgment number: 338    (relative ack number)" size="4" pos="42" show="338" value="5f421709"/>
    <field name="tcp.hdr_len" showname="Header length: 20 bytes" size="1" pos="46" show="20" value="50"/>
    <field name="tcp.flags" showname="Flags: 0x018 (PSH, ACK)" size="2" pos="46" show="24" value="18" unmaskedvalue="5018">
      <field name="tcp.flags.res" showname="000. .... .... = Reserved: Not set" size="1" pos="46" show="0" value="0" unmaskedvalue="50"/>
      <field name="tcp.flags.ns" showname="...0 .... .... = Nonce: Not set" size="1" pos="46" show="0" value="0" unmaskedvalue="50"/>
      <field name="tcp.flags.cwr" showname=".... 0... .... = Congestion Window Reduced (CWR): Not set" size="1" pos="47" show="0" value="0" unmaskedvalue="18"/>
      <field name="tcp.flags.ecn" showname=".... .0.. .... = ECN-Echo: Not set" size="1" pos="47" show="0" value="0" unmaskedvalue="18"/>
      <field name="tcp.flags.urg" showname=".... ..0. .... = Urgent: Not set" size="1" pos="47" show="0" value="0" unmaskedvalue="18"/>
      <field name="tcp.flags.ack" showname=".... ...1 .... = Acknowledgment: Set" size="1" pos="47" show="1" value="1" unmaskedvalue="18"/>
      <field name="tcp.flags.push" showname=".... .... 1... = Push: Set" size="1" pos="47" show="1" value="1" unmaskedvalue="18"/>
      <field name="tcp.flags.reset" showname=".... .... .0.. = Reset: Not set" size="1" pos="47" show="0" value="0" unmaskedvalue="18"/>
      <field name="tcp.flags.syn" showname=".... .... ..0. = Syn: Not set" size="1" pos="47" show="0" value="0" unmaskedvalue="18"/>
      <field name="tcp.flags.fin" showname=".... .... ...0 = Fin: Not set" size="1" pos="47" show="0" value="0" unmaskedvalue="18"/>
    </field>
    <field name="tcp.window_size_value" showname="Window size value: 30" size="2" pos="48" show="30" value="001e"/>
    <field name="tcp.window_size" showname="Calculated window size: 30720" size="2" pos="48" show="30720" value="001e"/>
    <field name="tcp.window_size_scalefactor" showname="Window size scaling factor: 1024" size="2" pos="48" show="1024" value="001e"/>
    <field name="tcp.checksum" showname="Checksum: 0xbd07 [validation disabled]" size="2" pos="50" show="48391" value="bd07">
      <field name="tcp.checksum_good" showname="Good Checksum: False" size="2" pos="50" show="0" value="bd07"/>
      <field name="tcp.checksum_bad" showname="Bad Checksum: False" size="2" pos="50" show="0" value="bd07"/>
    </field>
    <field name="tcp.analysis" showname="SEQ/ACK analysis" size="0" pos="34" show="" value="">
      <field name="tcp.analysis.bytes_in_flight" showname="Bytes in flight: 1216" size="0" pos="34" show="1216"/>
    </field>
  </proto>
  <proto name="fake-field-wrapper">
    <field name="data" value="d4f592f186504937c9d8278ffc7ce272627ca687560309757bc62bccc48325bfc629b6dff56f001867e903b2c0ac0118708a9f53b7eca4d4995a19168a5a59fb4ce4fc8b798ed2a7c83047baafabab1c9879d3d21ef68c8213993e912b7f6288cd0f314755dd009c6f940b043a95a6b61dae9a93d014b83f6c8a1ddb18026c3e20d86fb878ec16883770aa774ffc5859faeec2314884bc75da65fdb463bfd0848053791042d8fad1b77c23e318ff21f25d49c03624605bde76d77f23ab121afd595709db441b50bc2c33cb19ca22094293da4abc90c74fce5a24594dbd05a7c56a7c5d9ee482bdae6832a6b6bde9b11e5a936a0727b90f9f2cbe2664bd9984978901c848548e7a2458db087cd4ce856202c7e7d5474e0e7cd1b61fb957bbbb706674f8bbeaf32bd2cd5e212aaf6561d9867f092a2284e3d48650888476c573364a00d35553e4fb727287a88d486aee9c2c624c02c7d26f03d0c01199572bca11aef0c4f9c4aba42cacf741c2334a2dcabeff33f27d85c484a320336f3eae32058b1abf1b3b4e5101fdeaabf28f23e673e5ca08db9636ca6676c8b0377954381dc188e8bbaf66ef194446dddeddbe29b20c5afda754bd8c8933434db103c7ae7620115524e6ed3d2eeaffda52aa33355e1364ce6d30f429dbdd9a26dfb14c353d620a8ad1d4de69ef99e318c9471da4f70e7bf96ab390dde9a99e61520fb1465c3ef52d305348ab402fac69b56dadd411e5a3f2a21bb177fe58638ce17ff1c5abf5548979d96a6c24eeeb2d05162ec55e7050a21b0306a5b88e47ef3ceb24a6a26ff290afd7b856d9a0cf59e4a83a0df79161ab2f3d12c88601082c33d7d28c97ae9363a5ffcc04ded69b31a57a710481c5d890bf145e3ee76adbf9cb52dd0b6301c6f4a1001b1d6ef5ca51dac0644a38b2f7cd2c26b05722e2e7be8b885ffb54a1b3ad4bc49b619a9d01f6d89a025b89d59a8988744b9dd5b67aa0fe43154f89ffead6543d043b856a7bdf4f74c2f80f70366cd29b4d6071c15044b628c72991c013b1b610143305ffe970a704c28ecbaf445d518bad94ea3aea95c68c5432adddad99180657b8a9126ed35e00f2a9dbeabfe9c0d655fdcc969584fd7c66f51ddf3ae7eca87fffce4eaf860650c971b3d56e16e7dfb74b91ba4556a9a7ff1f0f1b9b45c284fe5e362c0618333b91cb724422a78b06f465b347d192bd70229efc8c4b187a97ac6284d2ffabf15490e18f7bd15f7353ce46737866318216676b8bfa5538c5e64d1a5d71fd23690090b6fa726f0a8c124a0618bcf3260f02562843c3565e3d4e89bd24cf90f7680373bc23f7b82c0e89abcf93c3c49bd8a526cbb91bb1ebcd2852dd1a50d7adb1444866a9d9d29c06b7c95b67ad138fd002ebafca3edf3db92571f5299315cd64ef9e4f16270cf01d111dd73a515fa80264343467b0957eec3eaaff6e496c0d1ae31d58201703030061e268fe976ba43c96ed3d375861533d49362b7e155f54b43148353542ab7e70a7c0e6358181b99e629fb3a90669f7672bcea275d781a758981330ee9940016d518250f905cce0d876e6e7b708c313501c5ba02401c2b16f6d34a58beccbfa54633a1703030045d38e250193df9699c291db795dc2f66a582dbf1116e645af9c0199520a9e6a9d9e925b38d5175b67db037659c2681107fa494f77c6687604f2e019439b5573887eb84531e6">
      <field name="data.data" showname="Data: d4f592f186504937c9d8278ffc7ce272627ca68756030975..." size="1216" pos="54" show="d4:f5:92:f1:86:50:49:37:c9:d8:27:8f:fc:7c:e2:72:62:7c:a6:87:56:03:09:75:7b:c6:2b:cc:c4:83:25:bf:c6:29:b6:df:f5:6f:00:18:67:e9:03:b2:c0:ac:01:18:70:8a:9f:53:b7:ec:a4:d4:99:5a:19:16:8a:5a:59:fb:4c:e4:fc:8b:79:8e:d2:a7:c8:30:47:ba:af:ab:ab:1c:98:79:d3:d2:1e:f6:8c:82:13:99:3e:91:2b:7f:62:88:cd:0f:31:47:55:dd:00:9c:6f:94:0b:04:3a:95:a6:b6:1d:ae:9a:93:d0:14:b8:3f:6c:8a:1d:db:18:02:6c:3e:20:d8:6f:b8:78:ec:16:88:37:70:aa:77:4f:fc:58:59:fa:ee:c2:31:48:84:bc:75:da:65:fd:b4:63:bf:d0:84:80:53:79:10:42:d8:fa:d1:b7:7c:23:e3:18:ff:21:f2:5d:49:c0:36:24:60:5b:de:76:d7:7f:23:ab:12:1a:fd:59:57:09:db:44:1b:50:bc:2c:33:cb:19:ca:22:09:42:93:da:4a:bc:90:c7:4f:ce:5a:24:59:4d:bd:05:a7:c5:6a:7c:5d:9e:e4:82:bd:ae:68:32:a6:b6:bd:e9:b1:1e:5a:93:6a:07:27:b9:0f:9f:2c:be:26:64:bd:99:84:97:89:01:c8:48:54:8e:7a:24:58:db:08:7c:d4:ce:85:62:02:c7:e7:d5:47:4e:0e:7c:d1:b6:1f:b9:57:bb:bb:70:66:74:f8:bb:ea:f3:2b:d2:cd:5e:21:2a:af:65:61:d9:86:7f:09:2a:22:84:e3:d4:86:50:88:84:76:c5:73:36:4a:00:d3:55:53:e4:fb:72:72:87:a8:8d:48:6a:ee:9c:2c:62:4c:02:c7:d2:6f:03:d0:c0:11:99:57:2b:ca:11:ae:f0:c4:f9:c4:ab:a4:2c:ac:f7:41:c2:33:4a:2d:ca:be:ff:33:f2:7d:85:c4:84:a3:20:33:6f:3e:ae:32:05:8b:1a:bf:1b:3b:4e:51:01:fd:ea:ab:f2:8f:23:e6:73:e5:ca:08:db:96:36:ca:66:76:c8:b0:37:79:54:38:1d:c1:88:e8:bb:af:66:ef:19:44:46:dd:de:dd:be:29:b2:0c:5a:fd:a7:54:bd:8c:89:33:43:4d:b1:03:c7:ae:76:20:11:55:24:e6:ed:3d:2e:ea:ff:da:52:aa:33:35:5e:13:64:ce:6d:30:f4:29:db:dd:9a:26:df:b1:4c:35:3d:62:0a:8a:d1:d4:de:69:ef:99:e3:18:c9:47:1d:a4:f7:0e:7b:f9:6a:b3:90:dd:e9:a9:9e:61:52:0f:b1:46:5c:3e:f5:2d:30:53:48:ab:40:2f:ac:69:b5:6d:ad:d4:11:e5:a3:f2:a2:1b:b1:77:fe:58:63:8c:e1:7f:f1:c5:ab:f5:54:89:79:d9:6a:6c:24:ee:eb:2d:05:16:2e:c5:5e:70:50:a2:1b:03:06:a5:b8:8e:47:ef:3c:eb:24:a6:a2:6f:f2:90:af:d7:b8:56:d9:a0:cf:59:e4:a8:3a:0d:f7:91:61:ab:2f:3d:12:c8:86:01:08:2c:33:d7:d2:8c:97:ae:93:63:a5:ff:cc:04:de:d6:9b:31:a5:7a:71:04:81:c5:d8:90:bf:14:5e:3e:e7:6a:db:f9:cb:52:dd:0b:63:01:c6:f4:a1:00:1b:1d:6e:f5:ca:51:da:c0:64:4a:38:b2:f7:cd:2c:26:b0:57:22:e2:e7:be:8b:88:5f:fb:54:a1:b3:ad:4b:c4:9b:61:9a:9d:01:f6:d8:9a:02:5b:89:d5:9a:89:88:74:4b:9d:d5:b6:7a:a0:fe:43:15:4f:89:ff:ea:d6:54:3d:04:3b:85:6a:7b:df:4f:74:c2:f8:0f:70:36:6c:d2:9b:4d:60:71:c1:50:44:b6:28:c7:29:91:c0:13:b1:b6:10:14:33:05:ff:e9:70:a7:04:c2:8e:cb:af:44:5d:51:8b:ad:94:ea:3a:ea:95:c6:8c:54:32:ad:dd:ad:99:18:06:57:b8:a9:12:6e:d3:5e:00:f2:a9:db:ea:bf:e9:c0:d6:55:fd:cc:96:95:84:fd:7c:66:f5:1d:df:3a:e7:ec:a8:7f:ff:ce:4e:af:86:06:50:c9:71:b3:d5:6e:16:e7:df:b7:4b:91:ba:45:56:a9:a7:ff:1f:0f:1b:9b:45:c2:84:fe:5e:36:2c:06:18:33:3b:91:cb:72:44:22:a7:8b:06:f4:65:b3:47:d1:92:bd:70:22:9e:fc:8c:4b:18:7a:97:ac:62:84:d2:ff:ab:f1:54:90:e1:8f:7b:d1:5f:73:53:ce:46:73:78:66:31:82:16:67:6b:8b:fa:55:38:c5:e6:4d:1a:5d:71:fd:23:69:00:90:b6:fa:72:6f:0a:8c:12:4a:06:18:bc:f3:26:0f:02:56:28:43:c3:56:5e:3d:4e:89:bd:24:cf:90:f7:68:03:73:bc:23:f7:b8:2c:0e:89:ab:cf:93:c3:c4:9b:d8:a5:26:cb:b9:1b:b1:eb:cd:28:52:dd:1a:50:d7:ad:b1:44:48:66:a9:d9:d2:9c:06:b7:c9:5b:67:ad:13:8f:d0:02:eb:af:ca:3e:df:3d:b9:25:71:f5:29:93:15:cd:64:ef:9e:4f:16:27:0c:f0:1d:11:1d:d7:3a:51:5f:a8:02:64:34:34:67:b0:95:7e:ec:3e:aa:ff:6e:49:6c:0d:1a:e3:1d:58:20:17:03:03:00:61:e2:68:fe:97:6b:a4:3c:96:ed:3d:37:58:61:53:3d:49:36:2b:7e:15:5f:54:b4:31:48:35:35:42:ab:7e:70:a7:c0:e6:35:81:81:b9:9e:62:9f:b3:a9:06:69:f7:67:2b:ce:a2:75:d7:81:a7:58:98:13:30:ee:99:40:01:6d:51:82:50:f9:05:cc:e0:d8:76:e6:e7:b7:08:c3:13:50:1c:5b:a0:24:01:c2:b1:6f:6d:34:a5:8b:ec:cb:fa:54:63:3a:17:03:03:00:45:d3:8e:25:01:93:df:96:99:c2:91:db:79:5d:c2:f6:6a:58:2d:bf:11:16:e6:45:af:9c:01:99:52:0a:9e:6a:9d:9e:92:5b:38:d5:17:5b:67:db:03:76:59:c2:68:11:07:fa:49:4f:77:c6:68:76:04:f2:e0:19:43:9b:55:73:88:7e:b8:45:31:e6" value="d4f592f186504937c9d8278ffc7ce272627ca687560309757bc62bccc48325bfc629b6dff56f001867e903b2c0ac0118708a9f53b7eca4d4995a19168a5a59fb4ce4fc8b798ed2a7c83047baafabab1c9879d3d21ef68c8213993e912b7f6288cd0f314755dd009c6f940b043a95a6b61dae9a93d014b83f6c8a1ddb18026c3e20d86fb878ec16883770aa774ffc5859faeec2314884bc75da65fdb463bfd0848053791042d8fad1b77c23e318ff21f25d49c03624605bde76d77f23ab121afd595709db441b50bc2c33cb19ca22094293da4abc90c74fce5a24594dbd05a7c56a7c5d9ee482bdae6832a6b6bde9b11e5a936a0727b90f9f2cbe2664bd9984978901c848548e7a2458db087cd4ce856202c7e7d5474e0e7cd1b61fb957bbbb706674f8bbeaf32bd2cd5e212aaf6561d9867f092a2284e3d48650888476c573364a00d35553e4fb727287a88d486aee9c2c624c02c7d26f03d0c01199572bca11aef0c4f9c4aba42cacf741c2334a2dcabeff33f27d85c484a320336f3eae32058b1abf1b3b4e5101fdeaabf28f23e673e5ca08db9636ca6676c8b0377954381dc188e8bbaf66ef194446dddeddbe29b20c5afda754bd8c8933434db103c7ae7620115524e6ed3d2eeaffda52aa33355e1364ce6d30f429dbdd9a26dfb14c353d620a8ad1d4de69ef99e318c9471da4f70e7bf96ab390dde9a99e61520fb1465c3ef52d305348ab402fac69b56dadd411e5a3f2a21bb177fe58638ce17ff1c5abf5548979d96a6c24eeeb2d05162ec55e7050a21b0306a5b88e47ef3ceb24a6a26ff290afd7b856d9a0cf59e4a83a0df79161ab2f3d12c88601082c33d7d28c97ae9363a5ffcc04ded69b31a57a710481c5d890bf145e3ee76adbf9cb52dd0b6301c6f4a1001b1d6ef5ca51dac0644a38b2f7cd2c26b05722e2e7be8b885ffb54a1b3ad4bc49b619a9d01f6d89a025b89d59a8988744b9dd5b67aa0fe43154f89ffead6543d043b856a7bdf4f74c2f80f70366cd29b4d6071c15044b628c72991c013b1b610143305ffe970a704c28ecbaf445d518bad94ea3aea95c68c5432adddad99180657b8a9126ed35e00f2a9dbeabfe9c0d655fdcc969584fd7c66f51ddf3ae7eca87fffce4eaf860650c971b3d56e16e7dfb74b91ba4556a9a7ff1f0f1b9b45c284fe5e362c0618333b91cb724422a78b06f465b347d192bd70229efc8c4b187a97ac6284d2ffabf15490e18f7bd15f7353ce46737866318216676b8bfa5538c5e64d1a5d71fd23690090b6fa726f0a8c124a0618bcf3260f02562843c3565e3d4e89bd24cf90f7680373bc23f7b82c0e89abcf93c3c49bd8a526cbb91bb1ebcd2852dd1a50d7adb1444866a9d9d29c06b7c95b67ad138fd002ebafca3edf3db92571f5299315cd64ef9e4f16270cf01d111dd73a515fa80264343467b0957eec3eaaff6e496c0d1ae31d58201703030061e268fe976ba43c96ed3d375861533d49362b7e155f54b43148353542ab7e70a7c0e6358181b99e629fb3a90669f7672bcea275d781a758981330ee9940016d518250f905cce0d876e6e7b708c313501c5ba02401c2b16f6d34a58beccbfa54633a1703030045d38e250193df9699c291db795dc2f66a582dbf1116e645af9c0199520a9e6a9d9e925b38d5175b67db037659c2681107fa494f77c6687604f2e019439b5573887eb84531e6"/>
      <field name="data.len" showname="Length: 1216" size="0" pos="54" show="1216"/>
  </field>
</proto>
</packet>


<packet>
  <proto name="geninfo" pos="0" showname="General information" size="54">
    <field name="num" pos="0" show="11" showname="Number" value="b" size="54"/>
    <field name="len" pos="0" show="54" showname="Frame Length" value="36" size="54"/>
    <field name="caplen" pos="0" show="54" showname="Captured Length" value="36" size="54"/>
    <field name="timestamp" pos="0" show="Jun 27, 2019 12:20:57.639792000 CEST" showname="Captured Time" value="1561630857.639792000" size="54"/>
  </proto>
  <proto name="frame" showname="Frame 11: 54 bytes on wire (432 bits), 54 bytes captured (432 bits) on interface 0" size="54" pos="0">
    <field name="frame.interface_id" showname="Interface id: 0" size="0" pos="0" show="0"/>
    <field name="frame.encap_type" showname="Encapsulation type: Ethernet (1)" size="0" pos="0" show="1"/>
    <field name="frame.time" showname="Arrival Time: Jun 27, 2019 12:20:57.639792000 CEST" size="0" pos="0" show="&quot;Jun 27, 2019 12:20:57.639792000 CEST&quot;"/>
    <field name="frame.offset_shift" showname="Time shift for this packet: 0.000000000 seconds" size="0" pos="0" show="0.000000000"/>
    <field name="frame.time_epoch" showname="Epoch Time: 1561630857.639792000 seconds" size="0" pos="0" show="1561630857.639792000"/>
    <field name="frame.time_delta" showname="Time delta from previous captured frame: 0.000014000 seconds" size="0" pos="0" show="0.000014000"/>
    <field name="frame.time_delta_displayed" showname="Time delta from previous displayed frame: 0.000014000 seconds" size="0" pos="0" show="0.000014000"/>
    <field name="frame.time_relative" showname="Time since reference or first frame: 0.009109000 seconds" size="0" pos="0" show="0.009109000"/>
    <field name="frame.number" showname="Frame Number: 11" size="0" pos="0" show="11"/>
    <field name="frame.len" showname="Frame Length: 54 bytes (432 bits)" size="0" pos="0" show="54"/>
    <field name="frame.cap_len" showname="Capture Length: 54 bytes (432 bits)" size="0" pos="0" show="54"/>
    <field name="frame.marked" showname="Frame is marked: False" size="0" pos="0" show="0"/>
    <field name="frame.ignored" showname="Frame is ignored: False" size="0" pos="0" show="0"/>
    <field name="frame.protocols" showname="Protocols in frame: eth:ip:tcp" size="0" pos="0" show="eth:ip:tcp"/>
  </proto>
  <proto name="eth" showname="Ethernet II, Src: 02:42:ac:11:00:02 (02:42:ac:11:00:02), Dst: 02:42:71:12:56:af (02:42:71:12:56:af)" size="14" pos="0">
    <field name="eth.dst" showname="Destination: 02:42:71:12:56:af (02:42:71:12:56:af)" size="6" pos="0" show="02:42:71:12:56:af" value="0242711256af">
      <field name="eth.addr" showname="Address: 02:42:71:12:56:af (02:42:71:12:56:af)" size="6" pos="0" show="02:42:71:12:56:af" value="0242711256af"/>
      <field name="eth.lg" showname=".... ..1. .... .... .... .... = LG bit: Locally administered address (this is NOT the factory default)" size="3" pos="0" show="1" value="1" unmaskedvalue="024271"/>
      <field name="eth.ig" showname=".... ...0 .... .... .... .... = IG bit: Individual address (unicast)" size="3" pos="0" show="0" value="0" unmaskedvalue="024271"/>
    </field>
    <field name="eth.src" showname="Source: 02:42:ac:11:00:02 (02:42:ac:11:00:02)" size="6" pos="6" show="02:42:ac:11:00:02" value="0242ac110002">
      <field name="eth.addr" showname="Address: 02:42:ac:11:00:02 (02:42:ac:11:00:02)" size="6" pos="6" show="02:42:ac:11:00:02" value="0242ac110002"/>
      <field name="eth.lg" showname=".... ..1. .... .... .... .... = LG bit: Locally administered address (this is NOT the factory default)" size="3" pos="6" show="1" value="1" unmaskedvalue="0242ac"/>
      <field name="eth.ig" showname=".... ...0 .... .... .... .... = IG bit: Individual address (unicast)" size="3" pos="6" show="0" value="0" unmaskedvalue="0242ac"/>
    </field>
    <field name="eth.type" showname="Type: IP (0x0800)" size="2" pos="12" show="2048" value="0800"/>
  </proto>
  <proto name="ip" showname="Internet Protocol Version 4, Src: 172.17.0.2 (172.17.0.2), Dst: 1.1.1.1 (1.1.1.1)" size="20" pos="14">
    <field name="ip.version" showname="Version: 4" size="1" pos="14" show="4" value="45"/>
    <field name="ip.hdr_len" showname="Header length: 20 bytes" size="1" pos="14" show="20" value="45"/>
    <field name="ip.dsfield" showname="Differentiated Services Field: 0x00 (DSCP 0x00: Default; ECN: 0x00: Not-ECT (Not ECN-Capable Transport))" size="1" pos="15" show="0" value="00">
      <field name="ip.dsfield.dscp" showname="0000 00.. = Differentiated Services Codepoint: Default (0x00)" size="1" pos="15" show="0" value="0" unmaskedvalue="00"/>
      <field name="ip.dsfield.ecn" showname=".... ..00 = Explicit Congestion Notification: Not-ECT (Not ECN-Capable Transport) (0x00)" size="1" pos="15" show="0" value="0" unmaskedvalue="00"/>
    </field>
    <field name="ip.len" showname="Total Length: 40" size="2" pos="16" show="40" value="0028"/>
    <field name="ip.id" showname="Identification: 0x7f07 (32519)" size="2" pos="18" show="32519" value="7f07"/>
    <field name="ip.flags" showname="Flags: 0x02 (Don&apos;t Fragment)" size="1" pos="20" show="2" value="40">
      <field name="ip.flags.rb" showname="0... .... = Reserved bit: Not set" size="1" pos="20" show="0" value="40"/>
      <field name="ip.flags.df" showname=".1.. .... = Don&apos;t fragment: Set" size="1" pos="20" show="1" value="40"/>
      <field name="ip.flags.mf" showname="..0. .... = More fragments: Not set" size="1" pos="20" show="0" value="40"/>
    </field>
    <field name="ip.frag_offset" showname="Fragment offset: 0" size="2" pos="20" show="0" value="4000"/>
    <field name="ip.ttl" showname="Time to live: 64" size="1" pos="22" show="64" value="40"/>
    <field name="ip.proto" showname="Protocol: TCP (6)" size="1" pos="23" show="6" value="06"/>
    <field name="ip.checksum" showname="Header checksum: 0x0db4 [validation disabled]" size="2" pos="24" show="3508" value="0db4">
      <field name="ip.checksum_good" showname="Good: False" size="2" pos="24" show="0" value="0db4"/>
      <field name="ip.checksum_bad" showname="Bad: False" size="2" pos="24" show="0" value="0db4"/>
    </field>
    <field name="ip.src" showname="Source: 172.17.0.2 (172.17.0.2)" size="4" pos="26" show="172.17.0.2" value="ac110002"/>
    <field name="ip.addr" showname="Source or Destination Address: 172.17.0.2 (172.17.0.2)" hide="yes" size="4" pos="26" show="172.17.0.2" value="ac110002"/>
    <field name="ip.src_host" showname="Source Host: 172.17.0.2" hide="yes" size="4" pos="26" show="172.17.0.2" value="ac110002"/>
    <field name="ip.host" showname="Source or Destination Host: 172.17.0.2" hide="yes" size="4" pos="26" show="172.17.0.2" value="ac110002"/>
    <field name="ip.dst" showname="Destination: 1.1.1.1 (1.1.1.1)" size="4" pos="30" show="1.1.1.1" value="01010101"/>
    <field name="ip.addr" showname="Source or Destination Address: 1.1.1.1 (1.1.1.1)" hide="yes" size="4" pos="30" show="1.1.1.1" value="01010101"/>
    <field name="ip.dst_host" showname="Destination Host: 1.1.1.1" hide="yes" size="4" pos="30" show="1.1.1.1" value="01010101"/>
    <field name="ip.host" showname="Source or Destination Host: 1.1.1.1" hide="yes" size="4" pos="30" show="1.1.1.1" value="01010101"/>
  </proto>
  <proto name="tcp" showname="Transmission Control Protocol, Src Port: 59666 (59666), Dst Port: 853 (853), Seq: 338, Ack: 2811, Len: 0" size="20" pos="34">
    <field name="tcp.srcport" showname="Source port: 59666 (59666)" size="2" pos="34" show="59666" value="e912"/>
    <field name="tcp.dstport" showname="Destination port: 853 (853)" size="2" pos="36" show="853" value="0355"/>
    <field name="tcp.port" showname="Source or Destination Port: 59666" hide="yes" size="2" pos="34" show="59666" value="e912"/>
    <field name="tcp.port" showname="Source or Destination Port: 853" hide="yes" size="2" pos="36" show="853" value="0355"/>
    <field name="tcp.stream" showname="Stream index: 0" size="0" pos="34" show="0"/>
    <field name="tcp.len" showname="TCP Segment Len: 0" hide="yes" size="1" pos="46" show="0" value="50"/>
    <field name="tcp.seq" showname="Sequence number: 338    (relative sequence number)" size="4" pos="38" show="338" value="5f421709"/>
    <field name="tcp.ack" showname="Acknowledgment number: 2811    (relative ack number)" size="4" pos="42" show="2811" value="5f9ad4bb"/>
    <field name="tcp.hdr_len" showname="Header length: 20 bytes" size="1" pos="46" show="20" value="50"/>
    <field name="tcp.flags" showname="Flags: 0x010 (ACK)" size="2" pos="46" show="16" value="10" unmaskedvalue="5010">
      <field name="tcp.flags.res" showname="000. .... .... = Reserved: Not set" size="1" pos="46" show="0" value="0" unmaskedvalue="50"/>
      <field name="tcp.flags.ns" showname="...0 .... .... = Nonce: Not set" size="1" pos="46" show="0" value="0" unmaskedvalue="50"/>
      <field name="tcp.flags.cwr" showname=".... 0... .... = Congestion Window Reduced (CWR): Not set" size="1" pos="47" show="0" value="0" unmaskedvalue="10"/>
      <field name="tcp.flags.ecn" showname=".... .0.. .... = ECN-Echo: Not set" size="1" pos="47" show="0" value="0" unmaskedvalue="10"/>
      <field name="tcp.flags.urg" showname=".... ..0. .... = Urgent: Not set" size="1" pos="47" show="0" value="0" unmaskedvalue="10"/>
      <field name="tcp.flags.ack" showname=".... ...1 .... = Acknowledgment: Set" size="1" pos="47" show="1" value="1" unmaskedvalue="10"/>
      <field name="tcp.flags.push" showname=".... .... 0... = Push: Not set" size="1" pos="47" show="0" value="0" unmaskedvalue="10"/>
      <field name="tcp.flags.reset" showname=".... .... .0.. = Reset: Not set" size="1" pos="47" show="0" value="0" unmaskedvalue="10"/>
      <field name="tcp.flags.syn" showname=".... .... ..0. = Syn: Not set" size="1" pos="47" show="0" value="0" unmaskedvalue="10"/>
      <field name="tcp.flags.fin" showname=".... .... ...0 = Fin: Not set" size="1" pos="47" show="0" value="0" unmaskedvalue="10"/>
    </field>
    <field name="tcp.window_size_value" showname="Window size value: 283" size="2" pos="48" show="283" value="011b"/>
    <field name="tcp.window_size" showname="Calculated window size: 36224" size="2" pos="48" show="36224" value="011b"/>
    <field name="tcp.window_size_scalefactor" showname="Window size scaling factor: 128" size="2" pos="48" show="128" value="011b"/>
    <field name="tcp.checksum" showname="Checksum: 0xae2f [validation disabled]" size="2" pos="50" show="44591" value="ae2f">
      <field name="tcp.checksum_good" showname="Good Checksum: False" size="2" pos="50" show="0" value="ae2f"/>
      <field name="tcp.checksum_bad" showname="Bad Checksum: False" size="2" pos="50" show="0" value="ae2f"/>
    </field>
    <field name="tcp.analysis" showname="SEQ/ACK analysis" size="0" pos="34" show="" value="">
      <field name="tcp.analysis.acks_frame" showname="This is an ACK to the segment in frame: 10" size="0" pos="34" show="10"/>
      <field name="tcp.analysis.ack_rtt" showname="The RTT to ACK the segment was: 0.000014000 seconds" size="0" pos="34" show="0.000014000"/>
    </field>
  </proto>
</packet>


<packet>
  <proto name="geninfo" pos="0" showname="General information" size="295">
    <field name="num" pos="0" show="12" showname="Number" value="c" size="295"/>
    <field name="len" pos="0" show="295" showname="Frame Length" value="127" size="295"/>
    <field name="caplen" pos="0" show="295" showname="Captured Length" value="127" size="295"/>
    <field name="timestamp" pos="0" show="Jun 27, 2019 12:20:57.639834000 CEST" showname="Captured Time" value="1561630857.639834000" size="295"/>
  </proto>
  <proto name="frame" showname="Frame 12: 295 bytes on wire (2360 bits), 295 bytes captured (2360 bits) on interface 0" size="295" pos="0">
    <field name="frame.interface_id" showname="Interface id: 0" size="0" pos="0" show="0"/>
    <field name="frame.encap_type" showname="Encapsulation type: Ethernet (1)" size="0" pos="0" show="1"/>
    <field name="frame.time" showname="Arrival Time: Jun 27, 2019 12:20:57.639834000 CEST" size="0" pos="0" show="&quot;Jun 27, 2019 12:20:57.639834000 CEST&quot;"/>
    <field name="frame.offset_shift" showname="Time shift for this packet: 0.000000000 seconds" size="0" pos="0" show="0.000000000"/>
    <field name="frame.time_epoch" showname="Epoch Time: 1561630857.639834000 seconds" size="0" pos="0" show="1561630857.639834000"/>
    <field name="frame.time_delta" showname="Time delta from previous captured frame: 0.000042000 seconds" size="0" pos="0" show="0.000042000"/>
    <field name="frame.time_delta_displayed" showname="Time delta from previous displayed frame: 0.000042000 seconds" size="0" pos="0" show="0.000042000"/>
    <field name="frame.time_relative" showname="Time since reference or first frame: 0.009151000 seconds" size="0" pos="0" show="0.009151000"/>
    <field name="frame.number" showname="Frame Number: 12" size="0" pos="0" show="12"/>
    <field name="frame.len" showname="Frame Length: 295 bytes (2360 bits)" size="0" pos="0" show="295"/>
    <field name="frame.cap_len" showname="Capture Length: 295 bytes (2360 bits)" size="0" pos="0" show="295"/>
    <field name="frame.marked" showname="Frame is marked: False" size="0" pos="0" show="0"/>
    <field name="frame.ignored" showname="Frame is ignored: False" size="0" pos="0" show="0"/>
    <field name="frame.protocols" showname="Protocols in frame: eth:ip:tcp:data" size="0" pos="0" show="eth:ip:tcp:data"/>
  </proto>
  <proto name="eth" showname="Ethernet II, Src: 02:42:71:12:56:af (02:42:71:12:56:af), Dst: 02:42:ac:11:00:02 (02:42:ac:11:00:02)" size="14" pos="0">
    <field name="eth.dst" showname="Destination: 02:42:ac:11:00:02 (02:42:ac:11:00:02)" size="6" pos="0" show="02:42:ac:11:00:02" value="0242ac110002">
      <field name="eth.addr" showname="Address: 02:42:ac:11:00:02 (02:42:ac:11:00:02)" size="6" pos="0" show="02:42:ac:11:00:02" value="0242ac110002"/>
      <field name="eth.lg" showname=".... ..1. .... .... .... .... = LG bit: Locally administered address (this is NOT the factory default)" size="3" pos="0" show="1" value="1" unmaskedvalue="0242ac"/>
      <field name="eth.ig" showname=".... ...0 .... .... .... .... = IG bit: Individual address (unicast)" size="3" pos="0" show="0" value="0" unmaskedvalue="0242ac"/>
    </field>
    <field name="eth.src" showname="Source: 02:42:71:12:56:af (02:42:71:12:56:af)" size="6" pos="6" show="02:42:71:12:56:af" value="0242711256af">
      <field name="eth.addr" showname="Address: 02:42:71:12:56:af (02:42:71:12:56:af)" size="6" pos="6" show="02:42:71:12:56:af" value="0242711256af"/>
      <field name="eth.lg" showname=".... ..1. .... .... .... .... = LG bit: Locally administered address (this is NOT the factory default)" size="3" pos="6" show="1" value="1" unmaskedvalue="024271"/>
      <field name="eth.ig" showname=".... ...0 .... .... .... .... = IG bit: Individual address (unicast)" size="3" pos="6" show="0" value="0" unmaskedvalue="024271"/>
    </field>
    <field name="eth.type" showname="Type: IP (0x0800)" size="2" pos="12" show="2048" value="0800"/>
  </proto>
  <proto name="ip" showname="Internet Protocol Version 4, Src: 1.1.1.1 (1.1.1.1), Dst: 172.17.0.2 (172.17.0.2)" size="20" pos="14">
    <field name="ip.version" showname="Version: 4" size="1" pos="14" show="4" value="45"/>
    <field name="ip.hdr_len" showname="Header length: 20 bytes" size="1" pos="14" show="20" value="45"/>
    <field name="ip.dsfield" showname="Differentiated Services Field: 0x00 (DSCP 0x00: Default; ECN: 0x00: Not-ECT (Not ECN-Capable Transport))" size="1" pos="15" show="0" value="00">
      <field name="ip.dsfield.dscp" showname="0000 00.. = Differentiated Services Codepoint: Default (0x00)" size="1" pos="15" show="0" value="0" unmaskedvalue="00"/>
      <field name="ip.dsfield.ecn" showname=".... ..00 = Explicit Congestion Notification: Not-ECT (Not ECN-Capable Transport) (0x00)" size="1" pos="15" show="0" value="0" unmaskedvalue="00"/>
    </field>
    <field name="ip.len" showname="Total Length: 281" size="2" pos="16" show="281" value="0119"/>
    <field name="ip.id" showname="Identification: 0x8542 (34114)" size="2" pos="18" show="34114" value="8542"/>
    <field name="ip.flags" showname="Flags: 0x02 (Don&apos;t Fragment)" size="1" pos="20" show="2" value="40">
      <field name="ip.flags.rb" showname="0... .... = Reserved bit: Not set" size="1" pos="20" show="0" value="40"/>
      <field name="ip.flags.df" showname=".1.. .... = Don&apos;t fragment: Set" size="1" pos="20" show="1" value="40"/>
      <field name="ip.flags.mf" showname="..0. .... = More fragments: Not set" size="1" pos="20" show="0" value="40"/>
    </field>
    <field name="ip.frag_offset" showname="Fragment offset: 0" size="2" pos="20" show="0" value="4000"/>
    <field name="ip.ttl" showname="Time to live: 57" size="1" pos="22" show="57" value="39"/>
    <field name="ip.proto" showname="Protocol: TCP (6)" size="1" pos="23" show="6" value="06"/>
    <field name="ip.checksum" showname="Header checksum: 0x0d88 [validation disabled]" size="2" pos="24" show="3464" value="0d88">
      <field name="ip.checksum_good" showname="Good: False" size="2" pos="24" show="0" value="0d88"/>
      <field name="ip.checksum_bad" showname="Bad: False" size="2" pos="24" show="0" value="0d88"/>
    </field>
    <field name="ip.src" showname="Source: 1.1.1.1 (1.1.1.1)" size="4" pos="26" show="1.1.1.1" value="01010101"/>
    <field name="ip.addr" showname="Source or Destination Address: 1.1.1.1 (1.1.1.1)" hide="yes" size="4" pos="26" show="1.1.1.1" value="01010101"/>
    <field name="ip.src_host" showname="Source Host: 1.1.1.1" hide="yes" size="4" pos="26" show="1.1.1.1" value="01010101"/>
    <field name="ip.host" showname="Source or Destination Host: 1.1.1.1" hide="yes" size="4" pos="26" show="1.1.1.1" value="01010101"/>
    <field name="ip.dst" showname="Destination: 172.17.0.2 (172.17.0.2)" size="4" pos="30" show="172.17.0.2" value="ac110002"/>
    <field name="ip.addr" showname="Source or Destination Address: 172.17.0.2 (172.17.0.2)" hide="yes" size="4" pos="30" show="172.17.0.2" value="ac110002"/>
    <field name="ip.dst_host" showname="Destination Host: 172.17.0.2" hide="yes" size="4" pos="30" show="172.17.0.2" value="ac110002"/>
    <field name="ip.host" showname="Source or Destination Host: 172.17.0.2" hide="yes" size="4" pos="30" show="172.17.0.2" value="ac110002"/>
  </proto>
  <proto name="tcp" showname="Transmission Control Protocol, Src Port: 853 (853), Dst Port: 59666 (59666), Seq: 2811, Ack: 338, Len: 241" size="20" pos="34">
    <field name="tcp.srcport" showname="Source port: 853 (853)" size="2" pos="34" show="853" value="0355"/>
    <field name="tcp.dstport" showname="Destination port: 59666 (59666)" size="2" pos="36" show="59666" value="e912"/>
    <field name="tcp.port" showname="Source or Destination Port: 853" hide="yes" size="2" pos="34" show="853" value="0355"/>
    <field name="tcp.port" showname="Source or Destination Port: 59666" hide="yes" size="2" pos="36" show="59666" value="e912"/>
    <field name="tcp.stream" showname="Stream index: 0" size="0" pos="34" show="0"/>
    <field name="tcp.len" showname="TCP Segment Len: 241" hide="yes" size="1" pos="46" show="241" value="50"/>
    <field name="tcp.seq" showname="Sequence number: 2811    (relative sequence number)" size="4" pos="38" show="2811" value="5f9ad4bb"/>
    <field name="tcp.nxtseq" showname="Next sequence number: 3052    (relative sequence number)" size="0" pos="34" show="3052"/>
    <field name="tcp.ack" showname="Acknowledgment number: 338    (relative ack number)" size="4" pos="42" show="338" value="5f421709"/>
    <field name="tcp.hdr_len" showname="Header length: 20 bytes" size="1" pos="46" show="20" value="50"/>
    <field name="tcp.flags" showname="Flags: 0x018 (PSH, ACK)" size="2" pos="46" show="24" value="18" unmaskedvalue="5018">
      <field name="tcp.flags.res" showname="000. .... .... = Reserved: Not set" size="1" pos="46" show="0" value="0" unmaskedvalue="50"/>
      <field name="tcp.flags.ns" showname="...0 .... .... = Nonce: Not set" size="1" pos="46" show="0" value="0" unmaskedvalue="50"/>
      <field name="tcp.flags.cwr" showname=".... 0... .... = Congestion Window Reduced (CWR): Not set" size="1" pos="47" show="0" value="0" unmaskedvalue="18"/>
      <field name="tcp.flags.ecn" showname=".... .0.. .... = ECN-Echo: Not set" size="1" pos="47" show="0" value="0" unmaskedvalue="18"/>
      <field name="tcp.flags.urg" showname=".... ..0. .... = Urgent: Not set" size="1" pos="47" show="0" value="0" unmaskedvalue="18"/>
      <field name="tcp.flags.ack" showname=".... ...1 .... = Acknowledgment: Set" size="1" pos="47" show="1" value="1" unmaskedvalue="18"/>
      <field name="tcp.flags.push" showname=".... .... 1... = Push: Set" size="1" pos="47" show="1" value="1" unmaskedvalue="18"/>
      <field name="tcp.flags.reset" showname=".... .... .0.. = Reset: Not set" size="1" pos="47" show="0" value="0" unmaskedvalue="18"/>
      <field name="tcp.flags.syn" showname=".... .... ..0. = Syn: Not set" size="1" pos="47" show="0" value="0" unmaskedvalue="18"/>
      <field name="tcp.flags.fin" showname=".... .... ...0 = Fin: Not set" size="1" pos="47" show="0" value="0" unmaskedvalue="18"/>
    </field>
    <field name="tcp.window_size_value" showname="Window size value: 30" size="2" pos="48" show="30" value="001e"/>
    <field name="tcp.window_size" showname="Calculated window size: 30720" size="2" pos="48" show="30720" value="001e"/>
    <field name="tcp.window_size_scalefactor" showname="Window size scaling factor: 1024" size="2" pos="48" show="1024" value="001e"/>
    <field name="tcp.checksum" showname="Checksum: 0xae2b [validation disabled]" size="2" pos="50" show="44587" value="ae2b">
      <field name="tcp.checksum_good" showname="Good Checksum: False" size="2" pos="50" show="0" value="ae2b"/>
      <field name="tcp.checksum_bad" showname="Bad Checksum: False" size="2" pos="50" show="0" value="ae2b"/>
    </field>
    <field name="tcp.analysis" showname="SEQ/ACK analysis" size="0" pos="34" show="" value="">
      <field name="tcp.analysis.bytes_in_flight" showname="Bytes in flight: 241" size="0" pos="34" show="241"/>
    </field>
  </proto>
  <proto name="fake-field-wrapper">
    <field name="data" value="17030300ecabb683a0ad41d628fbe191f7038cdf44368af1a92f41e23ad3f44a60352cf93d993bf6387b84d5f88b6afbea5aee01c537e84576ca122c509385539cae531ade26308f3bca3f4884903ede4138027746009ac63d61820db9f5771ab9ad291c864d64b29e2944d04af54a2211baf23e83179f2ebf324590a0c07f0c2992d32f69f975ae0dc203ba21a4d4d97bc77c000f86e0c20bf622e84fdcfb8d643d869281a05dad3621f9e48601a25c368b6d26de8c3696db9f9e6fe4cf38aceb3ef59f435354f4f8cd5394283ab4b54eeb01e935ef85b6ab6cb5fa25a06a6ab4f95f6914e08deee61ee732a7e85195dd">
      <field name="data.data" showname="Data: 17030300ecabb683a0ad41d628fbe191f7038cdf44368af1..." size="241" pos="54" show="17:03:03:00:ec:ab:b6:83:a0:ad:41:d6:28:fb:e1:91:f7:03:8c:df:44:36:8a:f1:a9:2f:41:e2:3a:d3:f4:4a:60:35:2c:f9:3d:99:3b:f6:38:7b:84:d5:f8:8b:6a:fb:ea:5a:ee:01:c5:37:e8:45:76:ca:12:2c:50:93:85:53:9c:ae:53:1a:de:26:30:8f:3b:ca:3f:48:84:90:3e:de:41:38:02:77:46:00:9a:c6:3d:61:82:0d:b9:f5:77:1a:b9:ad:29:1c:86:4d:64:b2:9e:29:44:d0:4a:f5:4a:22:11:ba:f2:3e:83:17:9f:2e:bf:32:45:90:a0:c0:7f:0c:29:92:d3:2f:69:f9:75:ae:0d:c2:03:ba:21:a4:d4:d9:7b:c7:7c:00:0f:86:e0:c2:0b:f6:22:e8:4f:dc:fb:8d:64:3d:86:92:81:a0:5d:ad:36:21:f9:e4:86:01:a2:5c:36:8b:6d:26:de:8c:36:96:db:9f:9e:6f:e4:cf:38:ac:eb:3e:f5:9f:43:53:54:f4:f8:cd:53:94:28:3a:b4:b5:4e:eb:01:e9:35:ef:85:b6:ab:6c:b5:fa:25:a0:6a:6a:b4:f9:5f:69:14:e0:8d:ee:e6:1e:e7:32:a7:e8:51:95:dd" value="17030300ecabb683a0ad41d628fbe191f7038cdf44368af1a92f41e23ad3f44a60352cf93d993bf6387b84d5f88b6afbea5aee01c537e84576ca122c509385539cae531ade26308f3bca3f4884903ede4138027746009ac63d61820db9f5771ab9ad291c864d64b29e2944d04af54a2211baf23e83179f2ebf324590a0c07f0c2992d32f69f975ae0dc203ba21a4d4d97bc77c000f86e0c20bf622e84fdcfb8d643d869281a05dad3621f9e48601a25c368b6d26de8c3696db9f9e6fe4cf38aceb3ef59f435354f4f8cd5394283ab4b54eeb01e935ef85b6ab6cb5fa25a06a6ab4f95f6914e08deee61ee732a7e85195dd"/>
      <field name="data.len" showname="Length: 241" size="0" pos="54" show="241"/>
  </field>
</proto>
</packet>


<packet>
  <proto name="geninfo" pos="0" showname="General information" size="54">
    <field name="num" pos="0" show="13" showname="Number" value="d" size="54"/>
    <field name="len" pos="0" show="54" showname="Frame Length" value="36" size="54"/>
    <field name="caplen" pos="0" show="54" showname="Captured Length" value="36" size="54"/>
    <field name="timestamp" pos="0" show="Jun 27, 2019 12:20:57.639847000 CEST" showname="Captured Time" value="1561630857.639847000" size="54"/>
  </proto>
  <proto name="frame" showname="Frame 13: 54 bytes on wire (432 bits), 54 bytes captured (432 bits) on interface 0" size="54" pos="0">
    <field name="frame.interface_id" showname="Interface id: 0" size="0" pos="0" show="0"/>
    <field name="frame.encap_type" showname="Encapsulation type: Ethernet (1)" size="0" pos="0" show="1"/>
    <field name="frame.time" showname="Arrival Time: Jun 27, 2019 12:20:57.639847000 CEST" size="0" pos="0" show="&quot;Jun 27, 2019 12:20:57.639847000 CEST&quot;"/>
    <field name="frame.offset_shift" showname="Time shift for this packet: 0.000000000 seconds" size="0" pos="0" show="0.000000000"/>
    <field name="frame.time_epoch" showname="Epoch Time: 1561630857.639847000 seconds" size="0" pos="0" show="1561630857.639847000"/>
    <field name="frame.time_delta" showname="Time delta from previous captured frame: 0.000013000 seconds" size="0" pos="0" show="0.000013000"/>
    <field name="frame.time_delta_displayed" showname="Time delta from previous displayed frame: 0.000013000 seconds" size="0" pos="0" show="0.000013000"/>
    <field name="frame.time_relative" showname="Time since reference or first frame: 0.009164000 seconds" size="0" pos="0" show="0.009164000"/>
    <field name="frame.number" showname="Frame Number: 13" size="0" pos="0" show="13"/>
    <field name="frame.len" showname="Frame Length: 54 bytes (432 bits)" size="0" pos="0" show="54"/>
    <field name="frame.cap_len" showname="Capture Length: 54 bytes (432 bits)" size="0" pos="0" show="54"/>
    <field name="frame.marked" showname="Frame is marked: False" size="0" pos="0" show="0"/>
    <field name="frame.ignored" showname="Frame is ignored: False" size="0" pos="0" show="0"/>
    <field name="frame.protocols" showname="Protocols in frame: eth:ip:tcp" size="0" pos="0" show="eth:ip:tcp"/>
  </proto>
  <proto name="eth" showname="Ethernet II, Src: 02:42:ac:11:00:02 (02:42:ac:11:00:02), Dst: 02:42:71:12:56:af (02:42:71:12:56:af)" size="14" pos="0">
    <field name="eth.dst" showname="Destination: 02:42:71:12:56:af (02:42:71:12:56:af)" size="6" pos="0" show="02:42:71:12:56:af" value="0242711256af">
      <field name="eth.addr" showname="Address: 02:42:71:12:56:af (02:42:71:12:56:af)" size="6" pos="0" show="02:42:71:12:56:af" value="0242711256af"/>
      <field name="eth.lg" showname=".... ..1. .... .... .... .... = LG bit: Locally administered address (this is NOT the factory default)" size="3" pos="0" show="1" value="1" unmaskedvalue="024271"/>
      <field name="eth.ig" showname=".... ...0 .... .... .... .... = IG bit: Individual address (unicast)" size="3" pos="0" show="0" value="0" unmaskedvalue="024271"/>
    </field>
    <field name="eth.src" showname="Source: 02:42:ac:11:00:02 (02:42:ac:11:00:02)" size="6" pos="6" show="02:42:ac:11:00:02" value="0242ac110002">
      <field name="eth.addr" showname="Address: 02:42:ac:11:00:02 (02:42:ac:11:00:02)" size="6" pos="6" show="02:42:ac:11:00:02" value="0242ac110002"/>
      <field name="eth.lg" showname=".... ..1. .... .... .... .... = LG bit: Locally administered address (this is NOT the factory default)" size="3" pos="6" show="1" value="1" unmaskedvalue="0242ac"/>
      <field name="eth.ig" showname=".... ...0 .... .... .... .... = IG bit: Individual address (unicast)" size="3" pos="6" show="0" value="0" unmaskedvalue="0242ac"/>
    </field>
    <field name="eth.type" showname="Type: IP (0x0800)" size="2" pos="12" show="2048" value="0800"/>
  </proto>
  <proto name="ip" showname="Internet Protocol Version 4, Src: 172.17.0.2 (172.17.0.2), Dst: 1.1.1.1 (1.1.1.1)" size="20" pos="14">
    <field name="ip.version" showname="Version: 4" size="1" pos="14" show="4" value="45"/>
    <field name="ip.hdr_len" showname="Header length: 20 bytes" size="1" pos="14" show="20" value="45"/>
    <field name="ip.dsfield" showname="Differentiated Services Field: 0x00 (DSCP 0x00: Default; ECN: 0x00: Not-ECT (Not ECN-Capable Transport))" size="1" pos="15" show="0" value="00">
      <field name="ip.dsfield.dscp" showname="0000 00.. = Differentiated Services Codepoint: Default (0x00)" size="1" pos="15" show="0" value="0" unmaskedvalue="00"/>
      <field name="ip.dsfield.ecn" showname=".... ..00 = Explicit Congestion Notification: Not-ECT (Not ECN-Capable Transport) (0x00)" size="1" pos="15" show="0" value="0" unmaskedvalue="00"/>
    </field>
    <field name="ip.len" showname="Total Length: 40" size="2" pos="16" show="40" value="0028"/>
    <field name="ip.id" showname="Identification: 0x7f08 (32520)" size="2" pos="18" show="32520" value="7f08"/>
    <field name="ip.flags" showname="Flags: 0x02 (Don&apos;t Fragment)" size="1" pos="20" show="2" value="40">
      <field name="ip.flags.rb" showname="0... .... = Reserved bit: Not set" size="1" pos="20" show="0" value="40"/>
      <field name="ip.flags.df" showname=".1.. .... = Don&apos;t fragment: Set" size="1" pos="20" show="1" value="40"/>
      <field name="ip.flags.mf" showname="..0. .... = More fragments: Not set" size="1" pos="20" show="0" value="40"/>
    </field>
    <field name="ip.frag_offset" showname="Fragment offset: 0" size="2" pos="20" show="0" value="4000"/>
    <field name="ip.ttl" showname="Time to live: 64" size="1" pos="22" show="64" value="40"/>
    <field name="ip.proto" showname="Protocol: TCP (6)" size="1" pos="23" show="6" value="06"/>
    <field name="ip.checksum" showname="Header checksum: 0x0db3 [validation disabled]" size="2" pos="24" show="3507" value="0db3">
      <field name="ip.checksum_good" showname="Good: False" size="2" pos="24" show="0" value="0db3"/>
      <field name="ip.checksum_bad" showname="Bad: False" size="2" pos="24" show="0" value="0db3"/>
    </field>
    <field name="ip.src" showname="Source: 172.17.0.2 (172.17.0.2)" size="4" pos="26" show="172.17.0.2" value="ac110002"/>
    <field name="ip.addr" showname="Source or Destination Address: 172.17.0.2 (172.17.0.2)" hide="yes" size="4" pos="26" show="172.17.0.2" value="ac110002"/>
    <field name="ip.src_host" showname="Source Host: 172.17.0.2" hide="yes" size="4" pos="26" show="172.17.0.2" value="ac110002"/>
    <field name="ip.host" showname="Source or Destination Host: 172.17.0.2" hide="yes" size="4" pos="26" show="172.17.0.2" value="ac110002"/>
    <field name="ip.dst" showname="Destination: 1.1.1.1 (1.1.1.1)" size="4" pos="30" show="1.1.1.1" value="01010101"/>
    <field name="ip.addr" showname="Source or Destination Address: 1.1.1.1 (1.1.1.1)" hide="yes" size="4" pos="30" show="1.1.1.1" value="01010101"/>
    <field name="ip.dst_host" showname="Destination Host: 1.1.1.1" hide="yes" size="4" pos="30" show="1.1.1.1" value="01010101"/>
    <field name="ip.host" showname="Source or Destination Host: 1.1.1.1" hide="yes" size="4" pos="30" show="1.1.1.1" value="01010101"/>
  </proto>
  <proto name="tcp" showname="Transmission Control Protocol, Src Port: 59666 (59666), Dst Port: 853 (853), Seq: 338, Ack: 3052, Len: 0" size="20" pos="34">
    <field name="tcp.srcport" showname="Source port: 59666 (59666)" size="2" pos="34" show="59666" value="e912"/>
    <field name="tcp.dstport" showname="Destination port: 853 (853)" size="2" pos="36" show="853" value="0355"/>
    <field name="tcp.port" showname="Source or Destination Port: 59666" hide="yes" size="2" pos="34" show="59666" value="e912"/>
    <field name="tcp.port" showname="Source or Destination Port: 853" hide="yes" size="2" pos="36" show="853" value="0355"/>
    <field name="tcp.stream" showname="Stream index: 0" size="0" pos="34" show="0"/>
    <field name="tcp.len" showname="TCP Segment Len: 0" hide="yes" size="1" pos="46" show="0" value="50"/>
    <field name="tcp.seq" showname="Sequence number: 338    (relative sequence number)" size="4" pos="38" show="338" value="5f421709"/>
    <field name="tcp.ack" showname="Acknowledgment number: 3052    (relative ack number)" size="4" pos="42" show="3052" value="5f9ad5ac"/>
    <field name="tcp.hdr_len" showname="Header length: 20 bytes" size="1" pos="46" show="20" value="50"/>
    <field name="tcp.flags" showname="Flags: 0x010 (ACK)" size="2" pos="46" show="16" value="10" unmaskedvalue="5010">
      <field name="tcp.flags.res" showname="000. .... .... = Reserved: Not set" size="1" pos="46" show="0" value="0" unmaskedvalue="50"/>
      <field name="tcp.flags.ns" showname="...0 .... .... = Nonce: Not set" size="1" pos="46" show="0" value="0" unmaskedvalue="50"/>
      <field name="tcp.flags.cwr" showname=".... 0... .... = Congestion Window Reduced (CWR): Not set" size="1" pos="47" show="0" value="0" unmaskedvalue="10"/>
      <field name="tcp.flags.ecn" showname=".... .0.. .... = ECN-Echo: Not set" size="1" pos="47" show="0" value="0" unmaskedvalue="10"/>
      <field name="tcp.flags.urg" showname=".... ..0. .... = Urgent: Not set" size="1" pos="47" show="0" value="0" unmaskedvalue="10"/>
      <field name="tcp.flags.ack" showname=".... ...1 .... = Acknowledgment: Set" size="1" pos="47" show="1" value="1" unmaskedvalue="10"/>
      <field name="tcp.flags.push" showname=".... .... 0... = Push: Not set" size="1" pos="47" show="0" value="0" unmaskedvalue="10"/>
      <field name="tcp.flags.reset" showname=".... .... .0.. = Reset: Not set" size="1" pos="47" show="0" value="0" unmaskedvalue="10"/>
      <field name="tcp.flags.syn" showname=".... .... ..0. = Syn: Not set" size="1" pos="47" show="0" value="0" unmaskedvalue="10"/>
      <field name="tcp.flags.fin" showname=".... .... ...0 = Fin: Not set" size="1" pos="47" show="0" value="0" unmaskedvalue="10"/>
    </field>
    <field name="tcp.window_size_value" showname="Window size value: 305" size="2" pos="48" show="305" value="0131"/>
    <field name="tcp.window_size" showname="Calculated window size: 39040" size="2" pos="48" show="39040" value="0131"/>
    <field name="tcp.window_size_scalefactor" showname="Window size scaling factor: 128" size="2" pos="48" show="128" value="0131"/>
    <field name="tcp.checksum" showname="Checksum: 0xae2f [validation disabled]" size="2" pos="50" show="44591" value="ae2f">
      <field name="tcp.checksum_good" showname="Good Checksum: False" size="2" pos="50" show="0" value="ae2f"/>
      <field name="tcp.checksum_bad" showname="Bad Checksum: False" size="2" pos="50" show="0" value="ae2f"/>
    </field>
    <field name="tcp.analysis" showname="SEQ/ACK analysis" size="0" pos="34" show="" value="">
      <field name="tcp.analysis.acks_frame" showname="This is an ACK to the segment in frame: 12" size="0" pos="34" show="12"/>
      <field name="tcp.analysis.ack_rtt" showname="The RTT to ACK the segment was: 0.000013000 seconds" size="0" pos="34" show="0.000013000"/>
    </field>
  </proto>
</packet>


<packet>
  <proto name="geninfo" pos="0" showname="General information" size="60">
    <field name="num" pos="0" show="14" showname="Number" value="e" size="60"/>
    <field name="len" pos="0" show="60" showname="Frame Length" value="3c" size="60"/>
    <field name="caplen" pos="0" show="60" showname="Captured Length" value="3c" size="60"/>
    <field name="timestamp" pos="0" show="Jun 27, 2019 12:20:57.640448000 CEST" showname="Captured Time" value="1561630857.640448000" size="60"/>
  </proto>
  <proto name="frame" showname="Frame 14: 60 bytes on wire (480 bits), 60 bytes captured (480 bits) on interface 0" size="60" pos="0">
    <field name="frame.interface_id" showname="Interface id: 0" size="0" pos="0" show="0"/>
    <field name="frame.encap_type" showname="Encapsulation type: Ethernet (1)" size="0" pos="0" show="1"/>
    <field name="frame.time" showname="Arrival Time: Jun 27, 2019 12:20:57.640448000 CEST" size="0" pos="0" show="&quot;Jun 27, 2019 12:20:57.640448000 CEST&quot;"/>
    <field name="frame.offset_shift" showname="Time shift for this packet: 0.000000000 seconds" size="0" pos="0" show="0.000000000"/>
    <field name="frame.time_epoch" showname="Epoch Time: 1561630857.640448000 seconds" size="0" pos="0" show="1561630857.640448000"/>
    <field name="frame.time_delta" showname="Time delta from previous captured frame: 0.000601000 seconds" size="0" pos="0" show="0.000601000"/>
    <field name="frame.time_delta_displayed" showname="Time delta from previous displayed frame: 0.000601000 seconds" size="0" pos="0" show="0.000601000"/>
    <field name="frame.time_relative" showname="Time since reference or first frame: 0.009765000 seconds" size="0" pos="0" show="0.009765000"/>
    <field name="frame.number" showname="Frame Number: 14" size="0" pos="0" show="14"/>
    <field name="frame.len" showname="Frame Length: 60 bytes (480 bits)" size="0" pos="0" show="60"/>
    <field name="frame.cap_len" showname="Capture Length: 60 bytes (480 bits)" size="0" pos="0" show="60"/>
    <field name="frame.marked" showname="Frame is marked: False" size="0" pos="0" show="0"/>
    <field name="frame.ignored" showname="Frame is ignored: False" size="0" pos="0" show="0"/>
    <field name="frame.protocols" showname="Protocols in frame: eth:ip:tcp:data" size="0" pos="0" show="eth:ip:tcp:data"/>
  </proto>
  <proto name="eth" showname="Ethernet II, Src: 02:42:ac:11:00:02 (02:42:ac:11:00:02), Dst: 02:42:71:12:56:af (02:42:71:12:56:af)" size="14" pos="0">
    <field name="eth.dst" showname="Destination: 02:42:71:12:56:af (02:42:71:12:56:af)" size="6" pos="0" show="02:42:71:12:56:af" value="0242711256af">
      <field name="eth.addr" showname="Address: 02:42:71:12:56:af (02:42:71:12:56:af)" size="6" pos="0" show="02:42:71:12:56:af" value="0242711256af"/>
      <field name="eth.lg" showname=".... ..1. .... .... .... .... = LG bit: Locally administered address (this is NOT the factory default)" size="3" pos="0" show="1" value="1" unmaskedvalue="024271"/>
      <field name="eth.ig" showname=".... ...0 .... .... .... .... = IG bit: Individual address (unicast)" size="3" pos="0" show="0" value="0" unmaskedvalue="024271"/>
    </field>
    <field name="eth.src" showname="Source: 02:42:ac:11:00:02 (02:42:ac:11:00:02)" size="6" pos="6" show="02:42:ac:11:00:02" value="0242ac110002">
      <field name="eth.addr" showname="Address: 02:42:ac:11:00:02 (02:42:ac:11:00:02)" size="6" pos="6" show="02:42:ac:11:00:02" value="0242ac110002"/>
      <field name="eth.lg" showname=".... ..1. .... .... .... .... = LG bit: Locally administered address (this is NOT the factory default)" size="3" pos="6" show="1" value="1" unmaskedvalue="0242ac"/>
      <field name="eth.ig" showname=".... ...0 .... .... .... .... = IG bit: Individual address (unicast)" size="3" pos="6" show="0" value="0" unmaskedvalue="0242ac"/>
    </field>
    <field name="eth.type" showname="Type: IP (0x0800)" size="2" pos="12" show="2048" value="0800"/>
  </proto>
  <proto name="ip" showname="Internet Protocol Version 4, Src: 172.17.0.2 (172.17.0.2), Dst: 1.1.1.1 (1.1.1.1)" size="20" pos="14">
    <field name="ip.version" showname="Version: 4" size="1" pos="14" show="4" value="45"/>
    <field name="ip.hdr_len" showname="Header length: 20 bytes" size="1" pos="14" show="20" value="45"/>
    <field name="ip.dsfield" showname="Differentiated Services Field: 0x00 (DSCP 0x00: Default; ECN: 0x00: Not-ECT (Not ECN-Capable Transport))" size="1" pos="15" show="0" value="00">
      <field name="ip.dsfield.dscp" showname="0000 00.. = Differentiated Services Codepoint: Default (0x00)" size="1" pos="15" show="0" value="0" unmaskedvalue="00"/>
      <field name="ip.dsfield.ecn" showname=".... ..00 = Explicit Congestion Notification: Not-ECT (Not ECN-Capable Transport) (0x00)" size="1" pos="15" show="0" value="0" unmaskedvalue="00"/>
    </field>
    <field name="ip.len" showname="Total Length: 46" size="2" pos="16" show="46" value="002e"/>
    <field name="ip.id" showname="Identification: 0x7f09 (32521)" size="2" pos="18" show="32521" value="7f09"/>
    <field name="ip.flags" showname="Flags: 0x02 (Don&apos;t Fragment)" size="1" pos="20" show="2" value="40">
      <field name="ip.flags.rb" showname="0... .... = Reserved bit: Not set" size="1" pos="20" show="0" value="40"/>
      <field name="ip.flags.df" showname=".1.. .... = Don&apos;t fragment: Set" size="1" pos="20" show="1" value="40"/>
      <field name="ip.flags.mf" showname="..0. .... = More fragments: Not set" size="1" pos="20" show="0" value="40"/>
    </field>
    <field name="ip.frag_offset" showname="Fragment offset: 0" size="2" pos="20" show="0" value="4000"/>
    <field name="ip.ttl" showname="Time to live: 64" size="1" pos="22" show="64" value="40"/>
    <field name="ip.proto" showname="Protocol: TCP (6)" size="1" pos="23" show="6" value="06"/>
    <field name="ip.checksum" showname="Header checksum: 0x0dac [validation disabled]" size="2" pos="24" show="3500" value="0dac">
      <field name="ip.checksum_good" showname="Good: False" size="2" pos="24" show="0" value="0dac"/>
      <field name="ip.checksum_bad" showname="Bad: False" size="2" pos="24" show="0" value="0dac"/>
    </field>
    <field name="ip.src" showname="Source: 172.17.0.2 (172.17.0.2)" size="4" pos="26" show="172.17.0.2" value="ac110002"/>
    <field name="ip.addr" showname="Source or Destination Address: 172.17.0.2 (172.17.0.2)" hide="yes" size="4" pos="26" show="172.17.0.2" value="ac110002"/>
    <field name="ip.src_host" showname="Source Host: 172.17.0.2" hide="yes" size="4" pos="26" show="172.17.0.2" value="ac110002"/>
    <field name="ip.host" showname="Source or Destination Host: 172.17.0.2" hide="yes" size="4" pos="26" show="172.17.0.2" value="ac110002"/>
    <field name="ip.dst" showname="Destination: 1.1.1.1 (1.1.1.1)" size="4" pos="30" show="1.1.1.1" value="01010101"/>
    <field name="ip.addr" showname="Source or Destination Address: 1.1.1.1 (1.1.1.1)" hide="yes" size="4" pos="30" show="1.1.1.1" value="01010101"/>
    <field name="ip.dst_host" showname="Destination Host: 1.1.1.1" hide="yes" size="4" pos="30" show="1.1.1.1" value="01010101"/>
    <field name="ip.host" showname="Source or Destination Host: 1.1.1.1" hide="yes" size="4" pos="30" show="1.1.1.1" value="01010101"/>
  </proto>
  <proto name="tcp" showname="Transmission Control Protocol, Src Port: 59666 (59666), Dst Port: 853 (853), Seq: 338, Ack: 3052, Len: 6" size="20" pos="34">
    <field name="tcp.srcport" showname="Source port: 59666 (59666)" size="2" pos="34" show="59666" value="e912"/>
    <field name="tcp.dstport" showname="Destination port: 853 (853)" size="2" pos="36" show="853" value="0355"/>
    <field name="tcp.port" showname="Source or Destination Port: 59666" hide="yes" size="2" pos="34" show="59666" value="e912"/>
    <field name="tcp.port" showname="Source or Destination Port: 853" hide="yes" size="2" pos="36" show="853" value="0355"/>
    <field name="tcp.stream" showname="Stream index: 0" size="0" pos="34" show="0"/>
    <field name="tcp.len" showname="TCP Segment Len: 6" hide="yes" size="1" pos="46" show="6" value="50"/>
    <field name="tcp.seq" showname="Sequence number: 338    (relative sequence number)" size="4" pos="38" show="338" value="5f421709"/>
    <field name="tcp.nxtseq" showname="Next sequence number: 344    (relative sequence number)" size="0" pos="34" show="344"/>
    <field name="tcp.ack" showname="Acknowledgment number: 3052    (relative ack number)" size="4" pos="42" show="3052" value="5f9ad5ac"/>
    <field name="tcp.hdr_len" showname="Header length: 20 bytes" size="1" pos="46" show="20" value="50"/>
    <field name="tcp.flags" showname="Flags: 0x018 (PSH, ACK)" size="2" pos="46" show="24" value="18" unmaskedvalue="5018">
      <field name="tcp.flags.res" showname="000. .... .... = Reserved: Not set" size="1" pos="46" show="0" value="0" unmaskedvalue="50"/>
      <field name="tcp.flags.ns" showname="...0 .... .... = Nonce: Not set" size="1" pos="46" show="0" value="0" unmaskedvalue="50"/>
      <field name="tcp.flags.cwr" showname=".... 0... .... = Congestion Window Reduced (CWR): Not set" size="1" pos="47" show="0" value="0" unmaskedvalue="18"/>
      <field name="tcp.flags.ecn" showname=".... .0.. .... = ECN-Echo: Not set" size="1" pos="47" show="0" value="0" unmaskedvalue="18"/>
      <field name="tcp.flags.urg" showname=".... ..0. .... = Urgent: Not set" size="1" pos="47" show="0" value="0" unmaskedvalue="18"/>
      <field name="tcp.flags.ack" showname=".... ...1 .... = Acknowledgment: Set" size="1" pos="47" show="1" value="1" unmaskedvalue="18"/>
      <field name="tcp.flags.push" showname=".... .... 1... = Push: Set" size="1" pos="47" show="1" value="1" unmaskedvalue="18"/>
      <field name="tcp.flags.reset" showname=".... .... .0.. = Reset: Not set" size="1" pos="47" show="0" value="0" unmaskedvalue="18"/>
      <field name="tcp.flags.syn" showname=".... .... ..0. = Syn: Not set" size="1" pos="47" show="0" value="0" unmaskedvalue="18"/>
      <field name="tcp.flags.fin" showname=".... .... ...0 = Fin: Not set" size="1" pos="47" show="0" value="0" unmaskedvalue="18"/>
    </field>
    <field name="tcp.window_size_value" showname="Window size value: 305" size="2" pos="48" show="305" value="0131"/>
    <field name="tcp.window_size" showname="Calculated window size: 39040" size="2" pos="48" show="39040" value="0131"/>
    <field name="tcp.window_size_scalefactor" showname="Window size scaling factor: 128" size="2" pos="48" show="128" value="0131"/>
    <field name="tcp.checksum" showname="Checksum: 0xae35 [validation disabled]" size="2" pos="50" show="44597" value="ae35">
      <field name="tcp.checksum_good" showname="Good Checksum: False" size="2" pos="50" show="0" value="ae35"/>
      <field name="tcp.checksum_bad" showname="Bad Checksum: False" size="2" pos="50" show="0" value="ae35"/>
    </field>
    <field name="tcp.analysis" showname="SEQ/ACK analysis" size="0" pos="34" show="" value="">
      <field name="tcp.analysis.bytes_in_flight" showname="Bytes in flight: 6" size="0" pos="34" show="6"/>
    </field>
  </proto>
  <proto name="fake-field-wrapper">
    <field name="data" value="140303000101">
      <field name="data.data" showname="Data: 140303000101" size="6" pos="54" show="14:03:03:00:01:01" value="140303000101"/>
      <field name="data.len" showname="Length: 6" size="0" pos="54" show="6"/>
  </field>
</proto>
</packet>


<packet>
  <proto name="geninfo" pos="0" showname="General information" size="54">
    <field name="num" pos="0" show="15" showname="Number" value="f" size="54"/>
    <field name="len" pos="0" show="54" showname="Frame Length" value="36" size="54"/>
    <field name="caplen" pos="0" show="54" showname="Captured Length" value="36" size="54"/>
    <field name="timestamp" pos="0" show="Jun 27, 2019 12:20:57.684742000 CEST" showname="Captured Time" value="1561630857.684742000" size="54"/>
  </proto>
  <proto name="frame" showname="Frame 15: 54 bytes on wire (432 bits), 54 bytes captured (432 bits) on interface 0" size="54" pos="0">
    <field name="frame.interface_id" showname="Interface id: 0" size="0" pos="0" show="0"/>
    <field name="frame.encap_type" showname="Encapsulation type: Ethernet (1)" size="0" pos="0" show="1"/>
    <field name="frame.time" showname="Arrival Time: Jun 27, 2019 12:20:57.684742000 CEST" size="0" pos="0" show="&quot;Jun 27, 2019 12:20:57.684742000 CEST&quot;"/>
    <field name="frame.offset_shift" showname="Time shift for this packet: 0.000000000 seconds" size="0" pos="0" show="0.000000000"/>
    <field name="frame.time_epoch" showname="Epoch Time: 1561630857.684742000 seconds" size="0" pos="0" show="1561630857.684742000"/>
    <field name="frame.time_delta" showname="Time delta from previous captured frame: 0.044294000 seconds" size="0" pos="0" show="0.044294000"/>
    <field name="frame.time_delta_displayed" showname="Time delta from previous displayed frame: 0.044294000 seconds" size="0" pos="0" show="0.044294000"/>
    <field name="frame.time_relative" showname="Time since reference or first frame: 0.054059000 seconds" size="0" pos="0" show="0.054059000"/>
    <field name="frame.number" showname="Frame Number: 15" size="0" pos="0" show="15"/>
    <field name="frame.len" showname="Frame Length: 54 bytes (432 bits)" size="0" pos="0" show="54"/>
    <field name="frame.cap_len" showname="Capture Length: 54 bytes (432 bits)" size="0" pos="0" show="54"/>
    <field name="frame.marked" showname="Frame is marked: False" size="0" pos="0" show="0"/>
    <field name="frame.ignored" showname="Frame is ignored: False" size="0" pos="0" show="0"/>
    <field name="frame.protocols" showname="Protocols in frame: eth:ip:tcp" size="0" pos="0" show="eth:ip:tcp"/>
  </proto>
  <proto name="eth" showname="Ethernet II, Src: 02:42:71:12:56:af (02:42:71:12:56:af), Dst: 02:42:ac:11:00:02 (02:42:ac:11:00:02)" size="14" pos="0">
    <field name="eth.dst" showname="Destination: 02:42:ac:11:00:02 (02:42:ac:11:00:02)" size="6" pos="0" show="02:42:ac:11:00:02" value="0242ac110002">
      <field name="eth.addr" showname="Address: 02:42:ac:11:00:02 (02:42:ac:11:00:02)" size="6" pos="0" show="02:42:ac:11:00:02" value="0242ac110002"/>
      <field name="eth.lg" showname=".... ..1. .... .... .... .... = LG bit: Locally administered address (this is NOT the factory default)" size="3" pos="0" show="1" value="1" unmaskedvalue="0242ac"/>
      <field name="eth.ig" showname=".... ...0 .... .... .... .... = IG bit: Individual address (unicast)" size="3" pos="0" show="0" value="0" unmaskedvalue="0242ac"/>
    </field>
    <field name="eth.src" showname="Source: 02:42:71:12:56:af (02:42:71:12:56:af)" size="6" pos="6" show="02:42:71:12:56:af" value="0242711256af">
      <field name="eth.addr" showname="Address: 02:42:71:12:56:af (02:42:71:12:56:af)" size="6" pos="6" show="02:42:71:12:56:af" value="0242711256af"/>
      <field name="eth.lg" showname=".... ..1. .... .... .... .... = LG bit: Locally administered address (this is NOT the factory default)" size="3" pos="6" show="1" value="1" unmaskedvalue="024271"/>
      <field name="eth.ig" showname=".... ...0 .... .... .... .... = IG bit: Individual address (unicast)" size="3" pos="6" show="0" value="0" unmaskedvalue="024271"/>
    </field>
    <field name="eth.type" showname="Type: IP (0x0800)" size="2" pos="12" show="2048" value="0800"/>
  </proto>
  <proto name="ip" showname="Internet Protocol Version 4, Src: 1.1.1.1 (1.1.1.1), Dst: 172.17.0.2 (172.17.0.2)" size="20" pos="14">
    <field name="ip.version" showname="Version: 4" size="1" pos="14" show="4" value="45"/>
    <field name="ip.hdr_len" showname="Header length: 20 bytes" size="1" pos="14" show="20" value="45"/>
    <field name="ip.dsfield" showname="Differentiated Services Field: 0x00 (DSCP 0x00: Default; ECN: 0x00: Not-ECT (Not ECN-Capable Transport))" size="1" pos="15" show="0" value="00">
      <field name="ip.dsfield.dscp" showname="0000 00.. = Differentiated Services Codepoint: Default (0x00)" size="1" pos="15" show="0" value="0" unmaskedvalue="00"/>
      <field name="ip.dsfield.ecn" showname=".... ..00 = Explicit Congestion Notification: Not-ECT (Not ECN-Capable Transport) (0x00)" size="1" pos="15" show="0" value="0" unmaskedvalue="00"/>
    </field>
    <field name="ip.len" showname="Total Length: 40" size="2" pos="16" show="40" value="0028"/>
    <field name="ip.id" showname="Identification: 0x8543 (34115)" size="2" pos="18" show="34115" value="8543"/>
    <field name="ip.flags" showname="Flags: 0x02 (Don&apos;t Fragment)" size="1" pos="20" show="2" value="40">
      <field name="ip.flags.rb" showname="0... .... = Reserved bit: Not set" size="1" pos="20" show="0" value="40"/>
      <field name="ip.flags.df" showname=".1.. .... = Don&apos;t fragment: Set" size="1" pos="20" show="1" value="40"/>
      <field name="ip.flags.mf" showname="..0. .... = More fragments: Not set" size="1" pos="20" show="0" value="40"/>
    </field>
    <field name="ip.frag_offset" showname="Fragment offset: 0" size="2" pos="20" show="0" value="4000"/>
    <field name="ip.ttl" showname="Time to live: 57" size="1" pos="22" show="57" value="39"/>
    <field name="ip.proto" showname="Protocol: TCP (6)" size="1" pos="23" show="6" value="06"/>
    <field name="ip.checksum" showname="Header checksum: 0x0e78 [validation disabled]" size="2" pos="24" show="3704" value="0e78">
      <field name="ip.checksum_good" showname="Good: False" size="2" pos="24" show="0" value="0e78"/>
      <field name="ip.checksum_bad" showname="Bad: False" size="2" pos="24" show="0" value="0e78"/>
    </field>
    <field name="ip.src" showname="Source: 1.1.1.1 (1.1.1.1)" size="4" pos="26" show="1.1.1.1" value="01010101"/>
    <field name="ip.addr" showname="Source or Destination Address: 1.1.1.1 (1.1.1.1)" hide="yes" size="4" pos="26" show="1.1.1.1" value="01010101"/>
    <field name="ip.src_host" showname="Source Host: 1.1.1.1" hide="yes" size="4" pos="26" show="1.1.1.1" value="01010101"/>
    <field name="ip.host" showname="Source or Destination Host: 1.1.1.1" hide="yes" size="4" pos="26" show="1.1.1.1" value="01010101"/>
    <field name="ip.dst" showname="Destination: 172.17.0.2 (172.17.0.2)" size="4" pos="30" show="172.17.0.2" value="ac110002"/>
    <field name="ip.addr" showname="Source or Destination Address: 172.17.0.2 (172.17.0.2)" hide="yes" size="4" pos="30" show="172.17.0.2" value="ac110002"/>
    <field name="ip.dst_host" showname="Destination Host: 172.17.0.2" hide="yes" size="4" pos="30" show="172.17.0.2" value="ac110002"/>
    <field name="ip.host" showname="Source or Destination Host: 172.17.0.2" hide="yes" size="4" pos="30" show="172.17.0.2" value="ac110002"/>
  </proto>
  <proto name="tcp" showname="Transmission Control Protocol, Src Port: 853 (853), Dst Port: 59666 (59666), Seq: 3052, Ack: 344, Len: 0" size="20" pos="34">
    <field name="tcp.srcport" showname="Source port: 853 (853)" size="2" pos="34" show="853" value="0355"/>
    <field name="tcp.dstport" showname="Destination port: 59666 (59666)" size="2" pos="36" show="59666" value="e912"/>
    <field name="tcp.port" showname="Source or Destination Port: 853" hide="yes" size="2" pos="34" show="853" value="0355"/>
    <field name="tcp.port" showname="Source or Destination Port: 59666" hide="yes" size="2" pos="36" show="59666" value="e912"/>
    <field name="tcp.stream" showname="Stream index: 0" size="0" pos="34" show="0"/>
    <field name="tcp.len" showname="TCP Segment Len: 0" hide="yes" size="1" pos="46" show="0" value="50"/>
    <field name="tcp.seq" showname="Sequence number: 3052    (relative sequence number)" size="4" pos="38" show="3052" value="5f9ad5ac"/>
    <field name="tcp.ack" showname="Acknowledgment number: 344    (relative ack number)" size="4" pos="42" show="344" value="5f42170f"/>
    <field name="tcp.hdr_len" showname="Header length: 20 bytes" size="1" pos="46" show="20" value="50"/>
    <field name="tcp.flags" showname="Flags: 0x010 (ACK)" size="2" pos="46" show="16" value="10" unmaskedvalue="5010">
      <field name="tcp.flags.res" showname="000. .... .... = Reserved: Not set" size="1" pos="46" show="0" value="0" unmaskedvalue="50"/>
      <field name="tcp.flags.ns" showname="...0 .... .... = Nonce: Not set" size="1" pos="46" show="0" value="0" unmaskedvalue="50"/>
      <field name="tcp.flags.cwr" showname=".... 0... .... = Congestion Window Reduced (CWR): Not set" size="1" pos="47" show="0" value="0" unmaskedvalue="10"/>
      <field name="tcp.flags.ecn" showname=".... .0.. .... = ECN-Echo: Not set" size="1" pos="47" show="0" value="0" unmaskedvalue="10"/>
      <field name="tcp.flags.urg" showname=".... ..0. .... = Urgent: Not set" size="1" pos="47" show="0" value="0" unmaskedvalue="10"/>
      <field name="tcp.flags.ack" showname=".... ...1 .... = Acknowledgment: Set" size="1" pos="47" show="1" value="1" unmaskedvalue="10"/>
      <field name="tcp.flags.push" showname=".... .... 0... = Push: Not set" size="1" pos="47" show="0" value="0" unmaskedvalue="10"/>
      <field name="tcp.flags.reset" showname=".... .... .0.. = Reset: Not set" size="1" pos="47" show="0" value="0" unmaskedvalue="10"/>
      <field name="tcp.flags.syn" showname=".... .... ..0. = Syn: Not set" size="1" pos="47" show="0" value="0" unmaskedvalue="10"/>
      <field name="tcp.flags.fin" showname=".... .... ...0 = Fin: Not set" size="1" pos="47" show="0" value="0" unmaskedvalue="10"/>
    </field>
    <field name="tcp.window_size_value" showname="Window size value: 30" size="2" pos="48" show="30" value="001e"/>
    <field name="tcp.window_size" showname="Calculated window size: 30720" size="2" pos="48" show="30720" value="001e"/>
    <field name="tcp.window_size_scalefactor" showname="Window size scaling factor: 1024" size="2" pos="48" show="1024" value="001e"/>
    <field name="tcp.checksum" showname="Checksum: 0x69a1 [validation disabled]" size="2" pos="50" show="27041" value="69a1">
      <field name="tcp.checksum_good" showname="Good Checksum: False" size="2" pos="50" show="0" value="69a1"/>
      <field name="tcp.checksum_bad" showname="Bad Checksum: False" size="2" pos="50" show="0" value="69a1"/>
    </field>
    <field name="tcp.analysis" showname="SEQ/ACK analysis" size="0" pos="34" show="" value="">
      <field name="tcp.analysis.acks_frame" showname="This is an ACK to the segment in frame: 14" size="0" pos="34" show="14"/>
      <field name="tcp.analysis.ack_rtt" showname="The RTT to ACK the segment was: 0.044294000 seconds" size="0" pos="34" show="0.044294000"/>
    </field>
  </proto>
</packet>


<packet>
  <proto name="geninfo" pos="0" showname="General information" size="280">
    <field name="num" pos="0" show="16" showname="Number" value="10" size="280"/>
    <field name="len" pos="0" show="280" showname="Frame Length" value="118" size="280"/>
    <field name="caplen" pos="0" show="280" showname="Captured Length" value="118" size="280"/>
    <field name="timestamp" pos="0" show="Jun 27, 2019 12:20:57.684766000 CEST" showname="Captured Time" value="1561630857.684766000" size="280"/>
  </proto>
  <proto name="frame" showname="Frame 16: 280 bytes on wire (2240 bits), 280 bytes captured (2240 bits) on interface 0" size="280" pos="0">
    <field name="frame.interface_id" showname="Interface id: 0" size="0" pos="0" show="0"/>
    <field name="frame.encap_type" showname="Encapsulation type: Ethernet (1)" size="0" pos="0" show="1"/>
    <field name="frame.time" showname="Arrival Time: Jun 27, 2019 12:20:57.684766000 CEST" size="0" pos="0" show="&quot;Jun 27, 2019 12:20:57.684766000 CEST&quot;"/>
    <field name="frame.offset_shift" showname="Time shift for this packet: 0.000000000 seconds" size="0" pos="0" show="0.000000000"/>
    <field name="frame.time_epoch" showname="Epoch Time: 1561630857.684766000 seconds" size="0" pos="0" show="1561630857.684766000"/>
    <field name="frame.time_delta" showname="Time delta from previous captured frame: 0.000024000 seconds" size="0" pos="0" show="0.000024000"/>
    <field name="frame.time_delta_displayed" showname="Time delta from previous displayed frame: 0.000024000 seconds" size="0" pos="0" show="0.000024000"/>
    <field name="frame.time_relative" showname="Time since reference or first frame: 0.054083000 seconds" size="0" pos="0" show="0.054083000"/>
    <field name="frame.number" showname="Frame Number: 16" size="0" pos="0" show="16"/>
    <field name="frame.len" showname="Frame Length: 280 bytes (2240 bits)" size="0" pos="0" show="280"/>
    <field name="frame.cap_len" showname="Capture Length: 280 bytes (2240 bits)" size="0" pos="0" show="280"/>
    <field name="frame.marked" showname="Frame is marked: False" size="0" pos="0" show="0"/>
    <field name="frame.ignored" showname="Frame is ignored: False" size="0" pos="0" show="0"/>
    <field name="frame.protocols" showname="Protocols in frame: eth:ip:tcp:data" size="0" pos="0" show="eth:ip:tcp:data"/>
  </proto>
  <proto name="eth" showname="Ethernet II, Src: 02:42:ac:11:00:02 (02:42:ac:11:00:02), Dst: 02:42:71:12:56:af (02:42:71:12:56:af)" size="14" pos="0">
    <field name="eth.dst" showname="Destination: 02:42:71:12:56:af (02:42:71:12:56:af)" size="6" pos="0" show="02:42:71:12:56:af" value="0242711256af">
      <field name="eth.addr" showname="Address: 02:42:71:12:56:af (02:42:71:12:56:af)" size="6" pos="0" show="02:42:71:12:56:af" value="0242711256af"/>
      <field name="eth.lg" showname=".... ..1. .... .... .... .... = LG bit: Locally administered address (this is NOT the factory default)" size="3" pos="0" show="1" value="1" unmaskedvalue="024271"/>
      <field name="eth.ig" showname=".... ...0 .... .... .... .... = IG bit: Individual address (unicast)" size="3" pos="0" show="0" value="0" unmaskedvalue="024271"/>
    </field>
    <field name="eth.src" showname="Source: 02:42:ac:11:00:02 (02:42:ac:11:00:02)" size="6" pos="6" show="02:42:ac:11:00:02" value="0242ac110002">
      <field name="eth.addr" showname="Address: 02:42:ac:11:00:02 (02:42:ac:11:00:02)" size="6" pos="6" show="02:42:ac:11:00:02" value="0242ac110002"/>
      <field name="eth.lg" showname=".... ..1. .... .... .... .... = LG bit: Locally administered address (this is NOT the factory default)" size="3" pos="6" show="1" value="1" unmaskedvalue="0242ac"/>
      <field name="eth.ig" showname=".... ...0 .... .... .... .... = IG bit: Individual address (unicast)" size="3" pos="6" show="0" value="0" unmaskedvalue="0242ac"/>
    </field>
    <field name="eth.type" showname="Type: IP (0x0800)" size="2" pos="12" show="2048" value="0800"/>
  </proto>
  <proto name="ip" showname="Internet Protocol Version 4, Src: 172.17.0.2 (172.17.0.2), Dst: 1.1.1.1 (1.1.1.1)" size="20" pos="14">
    <field name="ip.version" showname="Version: 4" size="1" pos="14" show="4" value="45"/>
    <field name="ip.hdr_len" showname="Header length: 20 bytes" size="1" pos="14" show="20" value="45"/>
    <field name="ip.dsfield" showname="Differentiated Services Field: 0x00 (DSCP 0x00: Default; ECN: 0x00: Not-ECT (Not ECN-Capable Transport))" size="1" pos="15" show="0" value="00">
      <field name="ip.dsfield.dscp" showname="0000 00.. = Differentiated Services Codepoint: Default (0x00)" size="1" pos="15" show="0" value="0" unmaskedvalue="00"/>
      <field name="ip.dsfield.ecn" showname=".... ..00 = Explicit Congestion Notification: Not-ECT (Not ECN-Capable Transport) (0x00)" size="1" pos="15" show="0" value="0" unmaskedvalue="00"/>
    </field>
    <field name="ip.len" showname="Total Length: 266" size="2" pos="16" show="266" value="010a"/>
    <field name="ip.id" showname="Identification: 0x7f0a (32522)" size="2" pos="18" show="32522" value="7f0a"/>
    <field name="ip.flags" showname="Flags: 0x02 (Don&apos;t Fragment)" size="1" pos="20" show="2" value="40">
      <field name="ip.flags.rb" showname="0... .... = Reserved bit: Not set" size="1" pos="20" show="0" value="40"/>
      <field name="ip.flags.df" showname=".1.. .... = Don&apos;t fragment: Set" size="1" pos="20" show="1" value="40"/>
      <field name="ip.flags.mf" showname="..0. .... = More fragments: Not set" size="1" pos="20" show="0" value="40"/>
    </field>
    <field name="ip.frag_offset" showname="Fragment offset: 0" size="2" pos="20" show="0" value="4000"/>
    <field name="ip.ttl" showname="Time to live: 64" size="1" pos="22" show="64" value="40"/>
    <field name="ip.proto" showname="Protocol: TCP (6)" size="1" pos="23" show="6" value="06"/>
    <field name="ip.checksum" showname="Header checksum: 0x0ccf [validation disabled]" size="2" pos="24" show="3279" value="0ccf">
      <field name="ip.checksum_good" showname="Good: False" size="2" pos="24" show="0" value="0ccf"/>
      <field name="ip.checksum_bad" showname="Bad: False" size="2" pos="24" show="0" value="0ccf"/>
    </field>
    <field name="ip.src" showname="Source: 172.17.0.2 (172.17.0.2)" size="4" pos="26" show="172.17.0.2" value="ac110002"/>
    <field name="ip.addr" showname="Source or Destination Address: 172.17.0.2 (172.17.0.2)" hide="yes" size="4" pos="26" show="172.17.0.2" value="ac110002"/>
    <field name="ip.src_host" showname="Source Host: 172.17.0.2" hide="yes" size="4" pos="26" show="172.17.0.2" value="ac110002"/>
    <field name="ip.host" showname="Source or Destination Host: 172.17.0.2" hide="yes" size="4" pos="26" show="172.17.0.2" value="ac110002"/>
    <field name="ip.dst" showname="Destination: 1.1.1.1 (1.1.1.1)" size="4" pos="30" show="1.1.1.1" value="01010101"/>
    <field name="ip.addr" showname="Source or Destination Address: 1.1.1.1 (1.1.1.1)" hide="yes" size="4" pos="30" show="1.1.1.1" value="01010101"/>
    <field name="ip.dst_host" showname="Destination Host: 1.1.1.1" hide="yes" size="4" pos="30" show="1.1.1.1" value="01010101"/>
    <field name="ip.host" showname="Source or Destination Host: 1.1.1.1" hide="yes" size="4" pos="30" show="1.1.1.1" value="01010101"/>
  </proto>
  <proto name="tcp" showname="Transmission Control Protocol, Src Port: 59666 (59666), Dst Port: 853 (853), Seq: 344, Ack: 3052, Len: 226" size="20" pos="34">
    <field name="tcp.srcport" showname="Source port: 59666 (59666)" size="2" pos="34" show="59666" value="e912"/>
    <field name="tcp.dstport" showname="Destination port: 853 (853)" size="2" pos="36" show="853" value="0355"/>
    <field name="tcp.port" showname="Source or Destination Port: 59666" hide="yes" size="2" pos="34" show="59666" value="e912"/>
    <field name="tcp.port" showname="Source or Destination Port: 853" hide="yes" size="2" pos="36" show="853" value="0355"/>
    <field name="tcp.stream" showname="Stream index: 0" size="0" pos="34" show="0"/>
    <field name="tcp.len" showname="TCP Segment Len: 226" hide="yes" size="1" pos="46" show="226" value="50"/>
    <field name="tcp.seq" showname="Sequence number: 344    (relative sequence number)" size="4" pos="38" show="344" value="5f42170f"/>
    <field name="tcp.nxtseq" showname="Next sequence number: 570    (relative sequence number)" size="0" pos="34" show="570"/>
    <field name="tcp.ack" showname="Acknowledgment number: 3052    (relative ack number)" size="4" pos="42" show="3052" value="5f9ad5ac"/>
    <field name="tcp.hdr_len" showname="Header length: 20 bytes" size="1" pos="46" show="20" value="50"/>
    <field name="tcp.flags" showname="Flags: 0x018 (PSH, ACK)" size="2" pos="46" show="24" value="18" unmaskedvalue="5018">
      <field name="tcp.flags.res" showname="000. .... .... = Reserved: Not set" size="1" pos="46" show="0" value="0" unmaskedvalue="50"/>
      <field name="tcp.flags.ns" showname="...0 .... .... = Nonce: Not set" size="1" pos="46" show="0" value="0" unmaskedvalue="50"/>
      <field name="tcp.flags.cwr" showname=".... 0... .... = Congestion Window Reduced (CWR): Not set" size="1" pos="47" show="0" value="0" unmaskedvalue="18"/>
      <field name="tcp.flags.ecn" showname=".... .0.. .... = ECN-Echo: Not set" size="1" pos="47" show="0" value="0" unmaskedvalue="18"/>
      <field name="tcp.flags.urg" showname=".... ..0. .... = Urgent: Not set" size="1" pos="47" show="0" value="0" unmaskedvalue="18"/>
      <field name="tcp.flags.ack" showname=".... ...1 .... = Acknowledgment: Set" size="1" pos="47" show="1" value="1" unmaskedvalue="18"/>
      <field name="tcp.flags.push" showname=".... .... 1... = Push: Set" size="1" pos="47" show="1" value="1" unmaskedvalue="18"/>
      <field name="tcp.flags.reset" showname=".... .... .0.. = Reset: Not set" size="1" pos="47" show="0" value="0" unmaskedvalue="18"/>
      <field name="tcp.flags.syn" showname=".... .... ..0. = Syn: Not set" size="1" pos="47" show="0" value="0" unmaskedvalue="18"/>
      <field name="tcp.flags.fin" showname=".... .... ...0 = Fin: Not set" size="1" pos="47" show="0" value="0" unmaskedvalue="18"/>
    </field>
    <field name="tcp.window_size_value" showname="Window size value: 305" size="2" pos="48" show="305" value="0131"/>
    <field name="tcp.window_size" showname="Calculated window size: 39040" size="2" pos="48" show="39040" value="0131"/>
    <field name="tcp.window_size_scalefactor" showname="Window size scaling factor: 128" size="2" pos="48" show="128" value="0131"/>
    <field name="tcp.checksum" showname="Checksum: 0xaf11 [validation disabled]" size="2" pos="50" show="44817" value="af11">
      <field name="tcp.checksum_good" showname="Good Checksum: False" size="2" pos="50" show="0" value="af11"/>
      <field name="tcp.checksum_bad" showname="Bad Checksum: False" size="2" pos="50" show="0" value="af11"/>
    </field>
    <field name="tcp.analysis" showname="SEQ/ACK analysis" size="0" pos="34" show="" value="">
      <field name="tcp.analysis.bytes_in_flight" showname="Bytes in flight: 226" size="0" pos="34" show="226"/>
    </field>
  </proto>
  <proto name="fake-field-wrapper">
    <field name="data" value="1703030045349ac96167fb10d099e08e751cab24e87fc0a220d29b0ef9f81af5453a81cb9c262a6129f07a0cbbba07667d0103cd8388fc81a56b0f0f68238c97c19fb63acff91fa3e0fd1703030093b36b135fe51ec74f17c2020ad86f88bb6aab5f5bed2d0ed73ef0f6371e3c8e168b9958eeee023685ce36ec869960f8dd4896da28b0fcab610c39e6cdb30c48fbdb2c2df82aed66b9d798d7d9cab3b0a7c94a7cb06a0e1ca26097bfbc1ab39144e95f3b9bab4356837c6e1768cc077d1927099d8a30eed6df6e4d199b5789dbf5a476ec569f125fa0acda76b299f853578947db">
      <field name="data.data" showname="Data: 1703030045349ac96167fb10d099e08e751cab24e87fc0a2..." size="226" pos="54" show="17:03:03:00:45:34:9a:c9:61:67:fb:10:d0:99:e0:8e:75:1c:ab:24:e8:7f:c0:a2:20:d2:9b:0e:f9:f8:1a:f5:45:3a:81:cb:9c:26:2a:61:29:f0:7a:0c:bb:ba:07:66:7d:01:03:cd:83:88:fc:81:a5:6b:0f:0f:68:23:8c:97:c1:9f:b6:3a:cf:f9:1f:a3:e0:fd:17:03:03:00:93:b3:6b:13:5f:e5:1e:c7:4f:17:c2:02:0a:d8:6f:88:bb:6a:ab:5f:5b:ed:2d:0e:d7:3e:f0:f6:37:1e:3c:8e:16:8b:99:58:ee:ee:02:36:85:ce:36:ec:86:99:60:f8:dd:48:96:da:28:b0:fc:ab:61:0c:39:e6:cd:b3:0c:48:fb:db:2c:2d:f8:2a:ed:66:b9:d7:98:d7:d9:ca:b3:b0:a7:c9:4a:7c:b0:6a:0e:1c:a2:60:97:bf:bc:1a:b3:91:44:e9:5f:3b:9b:ab:43:56:83:7c:6e:17:68:cc:07:7d:19:27:09:9d:8a:30:ee:d6:df:6e:4d:19:9b:57:89:db:f5:a4:76:ec:56:9f:12:5f:a0:ac:da:76:b2:99:f8:53:57:89:47:db" value="1703030045349ac96167fb10d099e08e751cab24e87fc0a220d29b0ef9f81af5453a81cb9c262a6129f07a0cbbba07667d0103cd8388fc81a56b0f0f68238c97c19fb63acff91fa3e0fd1703030093b36b135fe51ec74f17c2020ad86f88bb6aab5f5bed2d0ed73ef0f6371e3c8e168b9958eeee023685ce36ec869960f8dd4896da28b0fcab610c39e6cdb30c48fbdb2c2df82aed66b9d798d7d9cab3b0a7c94a7cb06a0e1ca26097bfbc1ab39144e95f3b9bab4356837c6e1768cc077d1927099d8a30eed6df6e4d199b5789dbf5a476ec569f125fa0acda76b299f853578947db"/>
      <field name="data.len" showname="Length: 226" size="0" pos="54" show="226"/>
  </field>
</proto>
</packet>


<packet>
  <proto name="geninfo" pos="0" showname="General information" size="54">
    <field name="num" pos="0" show="17" showname="Number" value="11" size="54"/>
    <field name="len" pos="0" show="54" showname="Frame Length" value="36" size="54"/>
    <field name="caplen" pos="0" show="54" showname="Captured Length" value="36" size="54"/>
    <field name="timestamp" pos="0" show="Jun 27, 2019 12:20:57.688333000 CEST" showname="Captured Time" value="1561630857.688333000" size="54"/>
  </proto>
  <proto name="frame" showname="Frame 17: 54 bytes on wire (432 bits), 54 bytes captured (432 bits) on interface 0" size="54" pos="0">
    <field name="frame.interface_id" showname="Interface id: 0" size="0" pos="0" show="0"/>
    <field name="frame.encap_type" showname="Encapsulation type: Ethernet (1)" size="0" pos="0" show="1"/>
    <field name="frame.time" showname="Arrival Time: Jun 27, 2019 12:20:57.688333000 CEST" size="0" pos="0" show="&quot;Jun 27, 2019 12:20:57.688333000 CEST&quot;"/>
    <field name="frame.offset_shift" showname="Time shift for this packet: 0.000000000 seconds" size="0" pos="0" show="0.000000000"/>
    <field name="frame.time_epoch" showname="Epoch Time: 1561630857.688333000 seconds" size="0" pos="0" show="1561630857.688333000"/>
    <field name="frame.time_delta" showname="Time delta from previous captured frame: 0.003567000 seconds" size="0" pos="0" show="0.003567000"/>
    <field name="frame.time_delta_displayed" showname="Time delta from previous displayed frame: 0.003567000 seconds" size="0" pos="0" show="0.003567000"/>
    <field name="frame.time_relative" showname="Time since reference or first frame: 0.057650000 seconds" size="0" pos="0" show="0.057650000"/>
    <field name="frame.number" showname="Frame Number: 17" size="0" pos="0" show="17"/>
    <field name="frame.len" showname="Frame Length: 54 bytes (432 bits)" size="0" pos="0" show="54"/>
    <field name="frame.cap_len" showname="Capture Length: 54 bytes (432 bits)" size="0" pos="0" show="54"/>
    <field name="frame.marked" showname="Frame is marked: False" size="0" pos="0" show="0"/>
    <field name="frame.ignored" showname="Frame is ignored: False" size="0" pos="0" show="0"/>
    <field name="frame.protocols" showname="Protocols in frame: eth:ip:tcp" size="0" pos="0" show="eth:ip:tcp"/>
  </proto>
  <proto name="eth" showname="Ethernet II, Src: 02:42:71:12:56:af (02:42:71:12:56:af), Dst: 02:42:ac:11:00:02 (02:42:ac:11:00:02)" size="14" pos="0">
    <field name="eth.dst" showname="Destination: 02:42:ac:11:00:02 (02:42:ac:11:00:02)" size="6" pos="0" show="02:42:ac:11:00:02" value="0242ac110002">
      <field name="eth.addr" showname="Address: 02:42:ac:11:00:02 (02:42:ac:11:00:02)" size="6" pos="0" show="02:42:ac:11:00:02" value="0242ac110002"/>
      <field name="eth.lg" showname=".... ..1. .... .... .... .... = LG bit: Locally administered address (this is NOT the factory default)" size="3" pos="0" show="1" value="1" unmaskedvalue="0242ac"/>
      <field name="eth.ig" showname=".... ...0 .... .... .... .... = IG bit: Individual address (unicast)" size="3" pos="0" show="0" value="0" unmaskedvalue="0242ac"/>
    </field>
    <field name="eth.src" showname="Source: 02:42:71:12:56:af (02:42:71:12:56:af)" size="6" pos="6" show="02:42:71:12:56:af" value="0242711256af">
      <field name="eth.addr" showname="Address: 02:42:71:12:56:af (02:42:71:12:56:af)" size="6" pos="6" show="02:42:71:12:56:af" value="0242711256af"/>
      <field name="eth.lg" showname=".... ..1. .... .... .... .... = LG bit: Locally administered address (this is NOT the factory default)" size="3" pos="6" show="1" value="1" unmaskedvalue="024271"/>
      <field name="eth.ig" showname=".... ...0 .... .... .... .... = IG bit: Individual address (unicast)" size="3" pos="6" show="0" value="0" unmaskedvalue="024271"/>
    </field>
    <field name="eth.type" showname="Type: IP (0x0800)" size="2" pos="12" show="2048" value="0800"/>
  </proto>
  <proto name="ip" showname="Internet Protocol Version 4, Src: 1.1.1.1 (1.1.1.1), Dst: 172.17.0.2 (172.17.0.2)" size="20" pos="14">
    <field name="ip.version" showname="Version: 4" size="1" pos="14" show="4" value="45"/>
    <field name="ip.hdr_len" showname="Header length: 20 bytes" size="1" pos="14" show="20" value="45"/>
    <field name="ip.dsfield" showname="Differentiated Services Field: 0x00 (DSCP 0x00: Default; ECN: 0x00: Not-ECT (Not ECN-Capable Transport))" size="1" pos="15" show="0" value="00">
      <field name="ip.dsfield.dscp" showname="0000 00.. = Differentiated Services Codepoint: Default (0x00)" size="1" pos="15" show="0" value="0" unmaskedvalue="00"/>
      <field name="ip.dsfield.ecn" showname=".... ..00 = Explicit Congestion Notification: Not-ECT (Not ECN-Capable Transport) (0x00)" size="1" pos="15" show="0" value="0" unmaskedvalue="00"/>
    </field>
    <field name="ip.len" showname="Total Length: 40" size="2" pos="16" show="40" value="0028"/>
    <field name="ip.id" showname="Identification: 0x8544 (34116)" size="2" pos="18" show="34116" value="8544"/>
    <field name="ip.flags" showname="Flags: 0x02 (Don&apos;t Fragment)" size="1" pos="20" show="2" value="40">
      <field name="ip.flags.rb" showname="0... .... = Reserved bit: Not set" size="1" pos="20" show="0" value="40"/>
      <field name="ip.flags.df" showname=".1.. .... = Don&apos;t fragment: Set" size="1" pos="20" show="1" value="40"/>
      <field name="ip.flags.mf" showname="..0. .... = More fragments: Not set" size="1" pos="20" show="0" value="40"/>
    </field>
    <field name="ip.frag_offset" showname="Fragment offset: 0" size="2" pos="20" show="0" value="4000"/>
    <field name="ip.ttl" showname="Time to live: 57" size="1" pos="22" show="57" value="39"/>
    <field name="ip.proto" showname="Protocol: TCP (6)" size="1" pos="23" show="6" value="06"/>
    <field name="ip.checksum" showname="Header checksum: 0x0e77 [validation disabled]" size="2" pos="24" show="3703" value="0e77">
      <field name="ip.checksum_good" showname="Good: False" size="2" pos="24" show="0" value="0e77"/>
      <field name="ip.checksum_bad" showname="Bad: False" size="2" pos="24" show="0" value="0e77"/>
    </field>
    <field name="ip.src" showname="Source: 1.1.1.1 (1.1.1.1)" size="4" pos="26" show="1.1.1.1" value="01010101"/>
    <field name="ip.addr" showname="Source or Destination Address: 1.1.1.1 (1.1.1.1)" hide="yes" size="4" pos="26" show="1.1.1.1" value="01010101"/>
    <field name="ip.src_host" showname="Source Host: 1.1.1.1" hide="yes" size="4" pos="26" show="1.1.1.1" value="01010101"/>
    <field name="ip.host" showname="Source or Destination Host: 1.1.1.1" hide="yes" size="4" pos="26" show="1.1.1.1" value="01010101"/>
    <field name="ip.dst" showname="Destination: 172.17.0.2 (172.17.0.2)" size="4" pos="30" show="172.17.0.2" value="ac110002"/>
    <field name="ip.addr" showname="Source or Destination Address: 172.17.0.2 (172.17.0.2)" hide="yes" size="4" pos="30" show="172.17.0.2" value="ac110002"/>
    <field name="ip.dst_host" showname="Destination Host: 172.17.0.2" hide="yes" size="4" pos="30" show="172.17.0.2" value="ac110002"/>
    <field name="ip.host" showname="Source or Destination Host: 172.17.0.2" hide="yes" size="4" pos="30" show="172.17.0.2" value="ac110002"/>
  </proto>
  <proto name="tcp" showname="Transmission Control Protocol, Src Port: 853 (853), Dst Port: 59666 (59666), Seq: 3052, Ack: 570, Len: 0" size="20" pos="34">
    <field name="tcp.srcport" showname="Source port: 853 (853)" size="2" pos="34" show="853" value="0355"/>
    <field name="tcp.dstport" showname="Destination port: 59666 (59666)" size="2" pos="36" show="59666" value="e912"/>
    <field name="tcp.port" showname="Source or Destination Port: 853" hide="yes" size="2" pos="34" show="853" value="0355"/>
    <field name="tcp.port" showname="Source or Destination Port: 59666" hide="yes" size="2" pos="36" show="59666" value="e912"/>
    <field name="tcp.stream" showname="Stream index: 0" size="0" pos="34" show="0"/>
    <field name="tcp.len" showname="TCP Segment Len: 0" hide="yes" size="1" pos="46" show="0" value="50"/>
    <field name="tcp.seq" showname="Sequence number: 3052    (relative sequence number)" size="4" pos="38" show="3052" value="5f9ad5ac"/>
    <field name="tcp.ack" showname="Acknowledgment number: 570    (relative ack number)" size="4" pos="42" show="570" value="5f4217f1"/>
    <field name="tcp.hdr_len" showname="Header length: 20 bytes" size="1" pos="46" show="20" value="50"/>
    <field name="tcp.flags" showname="Flags: 0x010 (ACK)" size="2" pos="46" show="16" value="10" unmaskedvalue="5010">
      <field name="tcp.flags.res" showname="000. .... .... = Reserved: Not set" size="1" pos="46" show="0" value="0" unmaskedvalue="50"/>
      <field name="tcp.flags.ns" showname="...0 .... .... = Nonce: Not set" size="1" pos="46" show="0" value="0" unmaskedvalue="50"/>
      <field name="tcp.flags.cwr" showname=".... 0... .... = Congestion Window Reduced (CWR): Not set" size="1" pos="47" show="0" value="0" unmaskedvalue="10"/>
      <field name="tcp.flags.ecn" showname=".... .0.. .... = ECN-Echo: Not set" size="1" pos="47" show="0" value="0" unmaskedvalue="10"/>
      <field name="tcp.flags.urg" showname=".... ..0. .... = Urgent: Not set" size="1" pos="47" show="0" value="0" unmaskedvalue="10"/>
      <field name="tcp.flags.ack" showname=".... ...1 .... = Acknowledgment: Set" size="1" pos="47" show="1" value="1" unmaskedvalue="10"/>
      <field name="tcp.flags.push" showname=".... .... 0... = Push: Not set" size="1" pos="47" show="0" value="0" unmaskedvalue="10"/>
      <field name="tcp.flags.reset" showname=".... .... .0.. = Reset: Not set" size="1" pos="47" show="0" value="0" unmaskedvalue="10"/>
      <field name="tcp.flags.syn" showname=".... .... ..0. = Syn: Not set" size="1" pos="47" show="0" value="0" unmaskedvalue="10"/>
      <field name="tcp.flags.fin" showname=".... .... ...0 = Fin: Not set" size="1" pos="47" show="0" value="0" unmaskedvalue="10"/>
    </field>
    <field name="tcp.window_size_value" showname="Window size value: 31" size="2" pos="48" show="31" value="001f"/>
    <field name="tcp.window_size" showname="Calculated window size: 31744" size="2" pos="48" show="31744" value="001f"/>
    <field name="tcp.window_size_scalefactor" showname="Window size scaling factor: 1024" size="2" pos="48" show="1024" value="001f"/>
    <field name="tcp.checksum" showname="Checksum: 0x68be [validation disabled]" size="2" pos="50" show="26814" value="68be">
      <field name="tcp.checksum_good" showname="Good Checksum: False" size="2" pos="50" show="0" value="68be"/>
      <field name="tcp.checksum_bad" showname="Bad Checksum: False" size="2" pos="50" show="0" value="68be"/>
    </field>
    <field name="tcp.analysis" showname="SEQ/ACK analysis" size="0" pos="34" show="" value="">
      <field name="tcp.analysis.acks_frame" showname="This is an ACK to the segment in frame: 16" size="0" pos="34" show="16"/>
      <field name="tcp.analysis.ack_rtt" showname="The RTT to ACK the segment was: 0.003567000 seconds" size="0" pos="34" show="0.003567000"/>
    </field>
  </proto>
</packet>


<packet>
  <proto name="geninfo" pos="0" showname="General information" size="206">
    <field name="num" pos="0" show="18" showname="Number" value="12" size="206"/>
    <field name="len" pos="0" show="206" showname="Frame Length" value="ce" size="206"/>
    <field name="caplen" pos="0" show="206" showname="Captured Length" value="ce" size="206"/>
    <field name="timestamp" pos="0" show="Jun 27, 2019 12:20:57.688897000 CEST" showname="Captured Time" value="1561630857.688897000" size="206"/>
  </proto>
  <proto name="frame" showname="Frame 18: 206 bytes on wire (1648 bits), 206 bytes captured (1648 bits) on interface 0" size="206" pos="0">
    <field name="frame.interface_id" showname="Interface id: 0" size="0" pos="0" show="0"/>
    <field name="frame.encap_type" showname="Encapsulation type: Ethernet (1)" size="0" pos="0" show="1"/>
    <field name="frame.time" showname="Arrival Time: Jun 27, 2019 12:20:57.688897000 CEST" size="0" pos="0" show="&quot;Jun 27, 2019 12:20:57.688897000 CEST&quot;"/>
    <field name="frame.offset_shift" showname="Time shift for this packet: 0.000000000 seconds" size="0" pos="0" show="0.000000000"/>
    <field name="frame.time_epoch" showname="Epoch Time: 1561630857.688897000 seconds" size="0" pos="0" show="1561630857.688897000"/>
    <field name="frame.time_delta" showname="Time delta from previous captured frame: 0.000564000 seconds" size="0" pos="0" show="0.000564000"/>
    <field name="frame.time_delta_displayed" showname="Time delta from previous displayed frame: 0.000564000 seconds" size="0" pos="0" show="0.000564000"/>
    <field name="frame.time_relative" showname="Time since reference or first frame: 0.058214000 seconds" size="0" pos="0" show="0.058214000"/>
    <field name="frame.number" showname="Frame Number: 18" size="0" pos="0" show="18"/>
    <field name="frame.len" showname="Frame Length: 206 bytes (1648 bits)" size="0" pos="0" show="206"/>
    <field name="frame.cap_len" showname="Capture Length: 206 bytes (1648 bits)" size="0" pos="0" show="206"/>
    <field name="frame.marked" showname="Frame is marked: False" size="0" pos="0" show="0"/>
    <field name="frame.ignored" showname="Frame is ignored: False" size="0" pos="0" show="0"/>
    <field name="frame.protocols" showname="Protocols in frame: eth:ip:tcp:data" size="0" pos="0" show="eth:ip:tcp:data"/>
  </proto>
  <proto name="eth" showname="Ethernet II, Src: 02:42:71:12:56:af (02:42:71:12:56:af), Dst: 02:42:ac:11:00:02 (02:42:ac:11:00:02)" size="14" pos="0">
    <field name="eth.dst" showname="Destination: 02:42:ac:11:00:02 (02:42:ac:11:00:02)" size="6" pos="0" show="02:42:ac:11:00:02" value="0242ac110002">
      <field name="eth.addr" showname="Address: 02:42:ac:11:00:02 (02:42:ac:11:00:02)" size="6" pos="0" show="02:42:ac:11:00:02" value="0242ac110002"/>
      <field name="eth.lg" showname=".... ..1. .... .... .... .... = LG bit: Locally administered address (this is NOT the factory default)" size="3" pos="0" show="1" value="1" unmaskedvalue="0242ac"/>
      <field name="eth.ig" showname=".... ...0 .... .... .... .... = IG bit: Individual address (unicast)" size="3" pos="0" show="0" value="0" unmaskedvalue="0242ac"/>
    </field>
    <field name="eth.src" showname="Source: 02:42:71:12:56:af (02:42:71:12:56:af)" size="6" pos="6" show="02:42:71:12:56:af" value="0242711256af">
      <field name="eth.addr" showname="Address: 02:42:71:12:56:af (02:42:71:12:56:af)" size="6" pos="6" show="02:42:71:12:56:af" value="0242711256af"/>
      <field name="eth.lg" showname=".... ..1. .... .... .... .... = LG bit: Locally administered address (this is NOT the factory default)" size="3" pos="6" show="1" value="1" unmaskedvalue="024271"/>
      <field name="eth.ig" showname=".... ...0 .... .... .... .... = IG bit: Individual address (unicast)" size="3" pos="6" show="0" value="0" unmaskedvalue="024271"/>
    </field>
    <field name="eth.type" showname="Type: IP (0x0800)" size="2" pos="12" show="2048" value="0800"/>
  </proto>
  <proto name="ip" showname="Internet Protocol Version 4, Src: 1.1.1.1 (1.1.1.1), Dst: 172.17.0.2 (172.17.0.2)" size="20" pos="14">
    <field name="ip.version" showname="Version: 4" size="1" pos="14" show="4" value="45"/>
    <field name="ip.hdr_len" showname="Header length: 20 bytes" size="1" pos="14" show="20" value="45"/>
    <field name="ip.dsfield" showname="Differentiated Services Field: 0x00 (DSCP 0x00: Default; ECN: 0x00: Not-ECT (Not ECN-Capable Transport))" size="1" pos="15" show="0" value="00">
      <field name="ip.dsfield.dscp" showname="0000 00.. = Differentiated Services Codepoint: Default (0x00)" size="1" pos="15" show="0" value="0" unmaskedvalue="00"/>
      <field name="ip.dsfield.ecn" showname=".... ..00 = Explicit Congestion Notification: Not-ECT (Not ECN-Capable Transport) (0x00)" size="1" pos="15" show="0" value="0" unmaskedvalue="00"/>
    </field>
    <field name="ip.len" showname="Total Length: 192" size="2" pos="16" show="192" value="00c0"/>
    <field name="ip.id" showname="Identification: 0x8545 (34117)" size="2" pos="18" show="34117" value="8545"/>
    <field name="ip.flags" showname="Flags: 0x02 (Don&apos;t Fragment)" size="1" pos="20" show="2" value="40">
      <field name="ip.flags.rb" showname="0... .... = Reserved bit: Not set" size="1" pos="20" show="0" value="40"/>
      <field name="ip.flags.df" showname=".1.. .... = Don&apos;t fragment: Set" size="1" pos="20" show="1" value="40"/>
      <field name="ip.flags.mf" showname="..0. .... = More fragments: Not set" size="1" pos="20" show="0" value="40"/>
    </field>
    <field name="ip.frag_offset" showname="Fragment offset: 0" size="2" pos="20" show="0" value="4000"/>
    <field name="ip.ttl" showname="Time to live: 57" size="1" pos="22" show="57" value="39"/>
    <field name="ip.proto" showname="Protocol: TCP (6)" size="1" pos="23" show="6" value="06"/>
    <field name="ip.checksum" showname="Header checksum: 0x0dde [validation disabled]" size="2" pos="24" show="3550" value="0dde">
      <field name="ip.checksum_good" showname="Good: False" size="2" pos="24" show="0" value="0dde"/>
      <field name="ip.checksum_bad" showname="Bad: False" size="2" pos="24" show="0" value="0dde"/>
    </field>
    <field name="ip.src" showname="Source: 1.1.1.1 (1.1.1.1)" size="4" pos="26" show="1.1.1.1" value="01010101"/>
    <field name="ip.addr" showname="Source or Destination Address: 1.1.1.1 (1.1.1.1)" hide="yes" size="4" pos="26" show="1.1.1.1" value="01010101"/>
    <field name="ip.src_host" showname="Source Host: 1.1.1.1" hide="yes" size="4" pos="26" show="1.1.1.1" value="01010101"/>
    <field name="ip.host" showname="Source or Destination Host: 1.1.1.1" hide="yes" size="4" pos="26" show="1.1.1.1" value="01010101"/>
    <field name="ip.dst" showname="Destination: 172.17.0.2 (172.17.0.2)" size="4" pos="30" show="172.17.0.2" value="ac110002"/>
    <field name="ip.addr" showname="Source or Destination Address: 172.17.0.2 (172.17.0.2)" hide="yes" size="4" pos="30" show="172.17.0.2" value="ac110002"/>
    <field name="ip.dst_host" showname="Destination Host: 172.17.0.2" hide="yes" size="4" pos="30" show="172.17.0.2" value="ac110002"/>
    <field name="ip.host" showname="Source or Destination Host: 172.17.0.2" hide="yes" size="4" pos="30" show="172.17.0.2" value="ac110002"/>
  </proto>
  <proto name="tcp" showname="Transmission Control Protocol, Src Port: 853 (853), Dst Port: 59666 (59666), Seq: 3052, Ack: 570, Len: 152" size="20" pos="34">
    <field name="tcp.srcport" showname="Source port: 853 (853)" size="2" pos="34" show="853" value="0355"/>
    <field name="tcp.dstport" showname="Destination port: 59666 (59666)" size="2" pos="36" show="59666" value="e912"/>
    <field name="tcp.port" showname="Source or Destination Port: 853" hide="yes" size="2" pos="34" show="853" value="0355"/>
    <field name="tcp.port" showname="Source or Destination Port: 59666" hide="yes" size="2" pos="36" show="59666" value="e912"/>
    <field name="tcp.stream" showname="Stream index: 0" size="0" pos="34" show="0"/>
    <field name="tcp.len" showname="TCP Segment Len: 152" hide="yes" size="1" pos="46" show="152" value="50"/>
    <field name="tcp.seq" showname="Sequence number: 3052    (relative sequence number)" size="4" pos="38" show="3052" value="5f9ad5ac"/>
    <field name="tcp.nxtseq" showname="Next sequence number: 3204    (relative sequence number)" size="0" pos="34" show="3204"/>
    <field name="tcp.ack" showname="Acknowledgment number: 570    (relative ack number)" size="4" pos="42" show="570" value="5f4217f1"/>
    <field name="tcp.hdr_len" showname="Header length: 20 bytes" size="1" pos="46" show="20" value="50"/>
    <field name="tcp.flags" showname="Flags: 0x018 (PSH, ACK)" size="2" pos="46" show="24" value="18" unmaskedvalue="5018">
      <field name="tcp.flags.res" showname="000. .... .... = Reserved: Not set" size="1" pos="46" show="0" value="0" unmaskedvalue="50"/>
      <field name="tcp.flags.ns" showname="...0 .... .... = Nonce: Not set" size="1" pos="46" show="0" value="0" unmaskedvalue="50"/>
      <field name="tcp.flags.cwr" showname=".... 0... .... = Congestion Window Reduced (CWR): Not set" size="1" pos="47" show="0" value="0" unmaskedvalue="18"/>
      <field name="tcp.flags.ecn" showname=".... .0.. .... = ECN-Echo: Not set" size="1" pos="47" show="0" value="0" unmaskedvalue="18"/>
      <field name="tcp.flags.urg" showname=".... ..0. .... = Urgent: Not set" size="1" pos="47" show="0" value="0" unmaskedvalue="18"/>
      <field name="tcp.flags.ack" showname=".... ...1 .... = Acknowledgment: Set" size="1" pos="47" show="1" value="1" unmaskedvalue="18"/>
      <field name="tcp.flags.push" showname=".... .... 1... = Push: Set" size="1" pos="47" show="1" value="1" unmaskedvalue="18"/>
      <field name="tcp.flags.reset" showname=".... .... .0.. = Reset: Not set" size="1" pos="47" show="0" value="0" unmaskedvalue="18"/>
      <field name="tcp.flags.syn" showname=".... .... ..0. = Syn: Not set" size="1" pos="47" show="0" value="0" unmaskedvalue="18"/>
      <field name="tcp.flags.fin" showname=".... .... ...0 = Fin: Not set" size="1" pos="47" show="0" value="0" unmaskedvalue="18"/>
    </field>
    <field name="tcp.window_size_value" showname="Window size value: 31" size="2" pos="48" show="31" value="001f"/>
    <field name="tcp.window_size" showname="Calculated window size: 31744" size="2" pos="48" show="31744" value="001f"/>
    <field name="tcp.window_size_scalefactor" showname="Window size scaling factor: 1024" size="2" pos="48" show="1024" value="001f"/>
    <field name="tcp.checksum" showname="Checksum: 0xb954 [validation disabled]" size="2" pos="50" show="47444" value="b954">
      <field name="tcp.checksum_good" showname="Good Checksum: False" size="2" pos="50" show="0" value="b954"/>
      <field name="tcp.checksum_bad" showname="Bad Checksum: False" size="2" pos="50" show="0" value="b954"/>
    </field>
    <field name="tcp.analysis" showname="SEQ/ACK analysis" size="0" pos="34" show="" value="">
      <field name="tcp.analysis.bytes_in_flight" showname="Bytes in flight: 152" size="0" pos="34" show="152"/>
    </field>
  </proto>
  <proto name="fake-field-wrapper">
    <field name="data" value="170303009352bfef95ed3d482b76f75d273eecf53e3429caa54a52e445eed9282706f0ec2a69f8a0b1a090ed81eb60eb8de267ed87efa49f688cd4eeac8b692e8cf6916dcc2f9808fbbd61e4f4be1f78a92101456a6a29cca23e8099332a210154f5f94c997d58d0bac7998143c72c350cc799d9dae33159f1ae12f1c4345b92c6cf619321dd1a337f54a9bb0987d911e0866cf3d5f7c84a">
      <field name="data.data" showname="Data: 170303009352bfef95ed3d482b76f75d273eecf53e3429ca..." size="152" pos="54" show="17:03:03:00:93:52:bf:ef:95:ed:3d:48:2b:76:f7:5d:27:3e:ec:f5:3e:34:29:ca:a5:4a:52:e4:45:ee:d9:28:27:06:f0:ec:2a:69:f8:a0:b1:a0:90:ed:81:eb:60:eb:8d:e2:67:ed:87:ef:a4:9f:68:8c:d4:ee:ac:8b:69:2e:8c:f6:91:6d:cc:2f:98:08:fb:bd:61:e4:f4:be:1f:78:a9:21:01:45:6a:6a:29:cc:a2:3e:80:99:33:2a:21:01:54:f5:f9:4c:99:7d:58:d0:ba:c7:99:81:43:c7:2c:35:0c:c7:99:d9:da:e3:31:59:f1:ae:12:f1:c4:34:5b:92:c6:cf:61:93:21:dd:1a:33:7f:54:a9:bb:09:87:d9:11:e0:86:6c:f3:d5:f7:c8:4a" value="170303009352bfef95ed3d482b76f75d273eecf53e3429caa54a52e445eed9282706f0ec2a69f8a0b1a090ed81eb60eb8de267ed87efa49f688cd4eeac8b692e8cf6916dcc2f9808fbbd61e4f4be1f78a92101456a6a29cca23e8099332a210154f5f94c997d58d0bac7998143c72c350cc799d9dae33159f1ae12f1c4345b92c6cf619321dd1a337f54a9bb0987d911e0866cf3d5f7c84a"/>
      <field name="data.len" showname="Length: 152" size="0" pos="54" show="152"/>
  </field>
</proto>
</packet>


<packet>
  <proto name="geninfo" pos="0" showname="General information" size="78">
    <field name="num" pos="0" show="19" showname="Number" value="13" size="78"/>
    <field name="len" pos="0" show="78" showname="Frame Length" value="4e" size="78"/>
    <field name="caplen" pos="0" show="78" showname="Captured Length" value="4e" size="78"/>
    <field name="timestamp" pos="0" show="Jun 27, 2019 12:20:57.689117000 CEST" showname="Captured Time" value="1561630857.689117000" size="78"/>
  </proto>
  <proto name="frame" showname="Frame 19: 78 bytes on wire (624 bits), 78 bytes captured (624 bits) on interface 0" size="78" pos="0">
    <field name="frame.interface_id" showname="Interface id: 0" size="0" pos="0" show="0"/>
    <field name="frame.encap_type" showname="Encapsulation type: Ethernet (1)" size="0" pos="0" show="1"/>
    <field name="frame.time" showname="Arrival Time: Jun 27, 2019 12:20:57.689117000 CEST" size="0" pos="0" show="&quot;Jun 27, 2019 12:20:57.689117000 CEST&quot;"/>
    <field name="frame.offset_shift" showname="Time shift for this packet: 0.000000000 seconds" size="0" pos="0" show="0.000000000"/>
    <field name="frame.time_epoch" showname="Epoch Time: 1561630857.689117000 seconds" size="0" pos="0" show="1561630857.689117000"/>
    <field name="frame.time_delta" showname="Time delta from previous captured frame: 0.000220000 seconds" size="0" pos="0" show="0.000220000"/>
    <field name="frame.time_delta_displayed" showname="Time delta from previous displayed frame: 0.000220000 seconds" size="0" pos="0" show="0.000220000"/>
    <field name="frame.time_relative" showname="Time since reference or first frame: 0.058434000 seconds" size="0" pos="0" show="0.058434000"/>
    <field name="frame.number" showname="Frame Number: 19" size="0" pos="0" show="19"/>
    <field name="frame.len" showname="Frame Length: 78 bytes (624 bits)" size="0" pos="0" show="78"/>
    <field name="frame.cap_len" showname="Capture Length: 78 bytes (624 bits)" size="0" pos="0" show="78"/>
    <field name="frame.marked" showname="Frame is marked: False" size="0" pos="0" show="0"/>
    <field name="frame.ignored" showname="Frame is ignored: False" size="0" pos="0" show="0"/>
    <field name="frame.protocols" showname="Protocols in frame: eth:ip:tcp:data" size="0" pos="0" show="eth:ip:tcp:data"/>
  </proto>
  <proto name="eth" showname="Ethernet II, Src: 02:42:ac:11:00:02 (02:42:ac:11:00:02), Dst: 02:42:71:12:56:af (02:42:71:12:56:af)" size="14" pos="0">
    <field name="eth.dst" showname="Destination: 02:42:71:12:56:af (02:42:71:12:56:af)" size="6" pos="0" show="02:42:71:12:56:af" value="0242711256af">
      <field name="eth.addr" showname="Address: 02:42:71:12:56:af (02:42:71:12:56:af)" size="6" pos="0" show="02:42:71:12:56:af" value="0242711256af"/>
      <field name="eth.lg" showname=".... ..1. .... .... .... .... = LG bit: Locally administered address (this is NOT the factory default)" size="3" pos="0" show="1" value="1" unmaskedvalue="024271"/>
      <field name="eth.ig" showname=".... ...0 .... .... .... .... = IG bit: Individual address (unicast)" size="3" pos="0" show="0" value="0" unmaskedvalue="024271"/>
    </field>
    <field name="eth.src" showname="Source: 02:42:ac:11:00:02 (02:42:ac:11:00:02)" size="6" pos="6" show="02:42:ac:11:00:02" value="0242ac110002">
      <field name="eth.addr" showname="Address: 02:42:ac:11:00:02 (02:42:ac:11:00:02)" size="6" pos="6" show="02:42:ac:11:00:02" value="0242ac110002"/>
      <field name="eth.lg" showname=".... ..1. .... .... .... .... = LG bit: Locally administered address (this is NOT the factory default)" size="3" pos="6" show="1" value="1" unmaskedvalue="0242ac"/>
      <field name="eth.ig" showname=".... ...0 .... .... .... .... = IG bit: Individual address (unicast)" size="3" pos="6" show="0" value="0" unmaskedvalue="0242ac"/>
    </field>
    <field name="eth.type" showname="Type: IP (0x0800)" size="2" pos="12" show="2048" value="0800"/>
  </proto>
  <proto name="ip" showname="Internet Protocol Version 4, Src: 172.17.0.2 (172.17.0.2), Dst: 1.1.1.1 (1.1.1.1)" size="20" pos="14">
    <field name="ip.version" showname="Version: 4" size="1" pos="14" show="4" value="45"/>
    <field name="ip.hdr_len" showname="Header length: 20 bytes" size="1" pos="14" show="20" value="45"/>
    <field name="ip.dsfield" showname="Differentiated Services Field: 0x00 (DSCP 0x00: Default; ECN: 0x00: Not-ECT (Not ECN-Capable Transport))" size="1" pos="15" show="0" value="00">
      <field name="ip.dsfield.dscp" showname="0000 00.. = Differentiated Services Codepoint: Default (0x00)" size="1" pos="15" show="0" value="0" unmaskedvalue="00"/>
      <field name="ip.dsfield.ecn" showname=".... ..00 = Explicit Congestion Notification: Not-ECT (Not ECN-Capable Transport) (0x00)" size="1" pos="15" show="0" value="0" unmaskedvalue="00"/>
    </field>
    <field name="ip.len" showname="Total Length: 64" size="2" pos="16" show="64" value="0040"/>
    <field name="ip.id" showname="Identification: 0x7f0b (32523)" size="2" pos="18" show="32523" value="7f0b"/>
    <field name="ip.flags" showname="Flags: 0x02 (Don&apos;t Fragment)" size="1" pos="20" show="2" value="40">
      <field name="ip.flags.rb" showname="0... .... = Reserved bit: Not set" size="1" pos="20" show="0" value="40"/>
      <field name="ip.flags.df" showname=".1.. .... = Don&apos;t fragment: Set" size="1" pos="20" show="1" value="40"/>
      <field name="ip.flags.mf" showname="..0. .... = More fragments: Not set" size="1" pos="20" show="0" value="40"/>
    </field>
    <field name="ip.frag_offset" showname="Fragment offset: 0" size="2" pos="20" show="0" value="4000"/>
    <field name="ip.ttl" showname="Time to live: 64" size="1" pos="22" show="64" value="40"/>
    <field name="ip.proto" showname="Protocol: TCP (6)" size="1" pos="23" show="6" value="06"/>
    <field name="ip.checksum" showname="Header checksum: 0x0d98 [validation disabled]" size="2" pos="24" show="3480" value="0d98">
      <field name="ip.checksum_good" showname="Good: False" size="2" pos="24" show="0" value="0d98"/>
      <field name="ip.checksum_bad" showname="Bad: False" size="2" pos="24" show="0" value="0d98"/>
    </field>
    <field name="ip.src" showname="Source: 172.17.0.2 (172.17.0.2)" size="4" pos="26" show="172.17.0.2" value="ac110002"/>
    <field name="ip.addr" showname="Source or Destination Address: 172.17.0.2 (172.17.0.2)" hide="yes" size="4" pos="26" show="172.17.0.2" value="ac110002"/>
    <field name="ip.src_host" showname="Source Host: 172.17.0.2" hide="yes" size="4" pos="26" show="172.17.0.2" value="ac110002"/>
    <field name="ip.host" showname="Source or Destination Host: 172.17.0.2" hide="yes" size="4" pos="26" show="172.17.0.2" value="ac110002"/>
    <field name="ip.dst" showname="Destination: 1.1.1.1 (1.1.1.1)" size="4" pos="30" show="1.1.1.1" value="01010101"/>
    <field name="ip.addr" showname="Source or Destination Address: 1.1.1.1 (1.1.1.1)" hide="yes" size="4" pos="30" show="1.1.1.1" value="01010101"/>
    <field name="ip.dst_host" showname="Destination Host: 1.1.1.1" hide="yes" size="4" pos="30" show="1.1.1.1" value="01010101"/>
    <field name="ip.host" showname="Source or Destination Host: 1.1.1.1" hide="yes" size="4" pos="30" show="1.1.1.1" value="01010101"/>
  </proto>
  <proto name="tcp" showname="Transmission Control Protocol, Src Port: 59666 (59666), Dst Port: 853 (853), Seq: 570, Ack: 3204, Len: 24" size="20" pos="34">
    <field name="tcp.srcport" showname="Source port: 59666 (59666)" size="2" pos="34" show="59666" value="e912"/>
    <field name="tcp.dstport" showname="Destination port: 853 (853)" size="2" pos="36" show="853" value="0355"/>
    <field name="tcp.port" showname="Source or Destination Port: 59666" hide="yes" size="2" pos="34" show="59666" value="e912"/>
    <field name="tcp.port" showname="Source or Destination Port: 853" hide="yes" size="2" pos="36" show="853" value="0355"/>
    <field name="tcp.stream" showname="Stream index: 0" size="0" pos="34" show="0"/>
    <field name="tcp.len" showname="TCP Segment Len: 24" hide="yes" size="1" pos="46" show="24" value="50"/>
    <field name="tcp.seq" showname="Sequence number: 570    (relative sequence number)" size="4" pos="38" show="570" value="5f4217f1"/>
    <field name="tcp.nxtseq" showname="Next sequence number: 594    (relative sequence number)" size="0" pos="34" show="594"/>
    <field name="tcp.ack" showname="Acknowledgment number: 3204    (relative ack number)" size="4" pos="42" show="3204" value="5f9ad644"/>
    <field name="tcp.hdr_len" showname="Header length: 20 bytes" size="1" pos="46" show="20" value="50"/>
    <field name="tcp.flags" showname="Flags: 0x018 (PSH, ACK)" size="2" pos="46" show="24" value="18" unmaskedvalue="5018">
      <field name="tcp.flags.res" showname="000. .... .... = Reserved: Not set" size="1" pos="46" show="0" value="0" unmaskedvalue="50"/>
      <field name="tcp.flags.ns" showname="...0 .... .... = Nonce: Not set" size="1" pos="46" show="0" value="0" unmaskedvalue="50"/>
      <field name="tcp.flags.cwr" showname=".... 0... .... = Congestion Window Reduced (CWR): Not set" size="1" pos="47" show="0" value="0" unmaskedvalue="18"/>
      <field name="tcp.flags.ecn" showname=".... .0.. .... = ECN-Echo: Not set" size="1" pos="47" show="0" value="0" unmaskedvalue="18"/>
      <field name="tcp.flags.urg" showname=".... ..0. .... = Urgent: Not set" size="1" pos="47" show="0" value="0" unmaskedvalue="18"/>
      <field name="tcp.flags.ack" showname=".... ...1 .... = Acknowledgment: Set" size="1" pos="47" show="1" value="1" unmaskedvalue="18"/>
      <field name="tcp.flags.push" showname=".... .... 1... = Push: Set" size="1" pos="47" show="1" value="1" unmaskedvalue="18"/>
      <field name="tcp.flags.reset" showname=".... .... .0.. = Reset: Not set" size="1" pos="47" show="0" value="0" unmaskedvalue="18"/>
      <field name="tcp.flags.syn" showname=".... .... ..0. = Syn: Not set" size="1" pos="47" show="0" value="0" unmaskedvalue="18"/>
      <field name="tcp.flags.fin" showname=".... .... ...0 = Fin: Not set" size="1" pos="47" show="0" value="0" unmaskedvalue="18"/>
    </field>
    <field name="tcp.window_size_value" showname="Window size value: 328" size="2" pos="48" show="328" value="0148"/>
    <field name="tcp.window_size" showname="Calculated window size: 41984" size="2" pos="48" show="41984" value="0148"/>
    <field name="tcp.window_size_scalefactor" showname="Window size scaling factor: 128" size="2" pos="48" show="128" value="0148"/>
    <field name="tcp.checksum" showname="Checksum: 0xae47 [validation disabled]" size="2" pos="50" show="44615" value="ae47">
      <field name="tcp.checksum_good" showname="Good Checksum: False" size="2" pos="50" show="0" value="ae47"/>
      <field name="tcp.checksum_bad" showname="Bad Checksum: False" size="2" pos="50" show="0" value="ae47"/>
    </field>
    <field name="tcp.analysis" showname="SEQ/ACK analysis" size="0" pos="34" show="" value="">
      <field name="tcp.analysis.acks_frame" showname="This is an ACK to the segment in frame: 18" size="0" pos="34" show="18"/>
      <field name="tcp.analysis.ack_rtt" showname="The RTT to ACK the segment was: 0.000220000 seconds" size="0" pos="34" show="0.000220000"/>
      <field name="tcp.analysis.bytes_in_flight" showname="Bytes in flight: 24" size="0" pos="34" show="24"/>
    </field>
  </proto>
  <proto name="fake-field-wrapper">
    <field name="data" value="17030300133b56715eeffb47340488c070609d093688c73c">
      <field name="data.data" showname="Data: 17030300133b56715eeffb47340488c070609d093688c73c" size="24" pos="54" show="17:03:03:00:13:3b:56:71:5e:ef:fb:47:34:04:88:c0:70:60:9d:09:36:88:c7:3c" value="17030300133b56715eeffb47340488c070609d093688c73c"/>
      <field name="data.len" showname="Length: 24" size="0" pos="54" show="24"/>
  </field>
</proto>
</packet>


<packet>
  <proto name="geninfo" pos="0" showname="General information" size="54">
    <field name="num" pos="0" show="20" showname="Number" value="14" size="54"/>
    <field name="len" pos="0" show="54" showname="Frame Length" value="36" size="54"/>
    <field name="caplen" pos="0" show="54" showname="Captured Length" value="36" size="54"/>
    <field name="timestamp" pos="0" show="Jun 27, 2019 12:20:57.689187000 CEST" showname="Captured Time" value="1561630857.689187000" size="54"/>
  </proto>
  <proto name="frame" showname="Frame 20: 54 bytes on wire (432 bits), 54 bytes captured (432 bits) on interface 0" size="54" pos="0">
    <field name="frame.interface_id" showname="Interface id: 0" size="0" pos="0" show="0"/>
    <field name="frame.encap_type" showname="Encapsulation type: Ethernet (1)" size="0" pos="0" show="1"/>
    <field name="frame.time" showname="Arrival Time: Jun 27, 2019 12:20:57.689187000 CEST" size="0" pos="0" show="&quot;Jun 27, 2019 12:20:57.689187000 CEST&quot;"/>
    <field name="frame.offset_shift" showname="Time shift for this packet: 0.000000000 seconds" size="0" pos="0" show="0.000000000"/>
    <field name="frame.time_epoch" showname="Epoch Time: 1561630857.689187000 seconds" size="0" pos="0" show="1561630857.689187000"/>
    <field name="frame.time_delta" showname="Time delta from previous captured frame: 0.000070000 seconds" size="0" pos="0" show="0.000070000"/>
    <field name="frame.time_delta_displayed" showname="Time delta from previous displayed frame: 0.000070000 seconds" size="0" pos="0" show="0.000070000"/>
    <field name="frame.time_relative" showname="Time since reference or first frame: 0.058504000 seconds" size="0" pos="0" show="0.058504000"/>
    <field name="frame.number" showname="Frame Number: 20" size="0" pos="0" show="20"/>
    <field name="frame.len" showname="Frame Length: 54 bytes (432 bits)" size="0" pos="0" show="54"/>
    <field name="frame.cap_len" showname="Capture Length: 54 bytes (432 bits)" size="0" pos="0" show="54"/>
    <field name="frame.marked" showname="Frame is marked: False" size="0" pos="0" show="0"/>
    <field name="frame.ignored" showname="Frame is ignored: False" size="0" pos="0" show="0"/>
    <field name="frame.protocols" showname="Protocols in frame: eth:ip:tcp" size="0" pos="0" show="eth:ip:tcp"/>
  </proto>
  <proto name="eth" showname="Ethernet II, Src: 02:42:ac:11:00:02 (02:42:ac:11:00:02), Dst: 02:42:71:12:56:af (02:42:71:12:56:af)" size="14" pos="0">
    <field name="eth.dst" showname="Destination: 02:42:71:12:56:af (02:42:71:12:56:af)" size="6" pos="0" show="02:42:71:12:56:af" value="0242711256af">
      <field name="eth.addr" showname="Address: 02:42:71:12:56:af (02:42:71:12:56:af)" size="6" pos="0" show="02:42:71:12:56:af" value="0242711256af"/>
      <field name="eth.lg" showname=".... ..1. .... .... .... .... = LG bit: Locally administered address (this is NOT the factory default)" size="3" pos="0" show="1" value="1" unmaskedvalue="024271"/>
      <field name="eth.ig" showname=".... ...0 .... .... .... .... = IG bit: Individual address (unicast)" size="3" pos="0" show="0" value="0" unmaskedvalue="024271"/>
    </field>
    <field name="eth.src" showname="Source: 02:42:ac:11:00:02 (02:42:ac:11:00:02)" size="6" pos="6" show="02:42:ac:11:00:02" value="0242ac110002">
      <field name="eth.addr" showname="Address: 02:42:ac:11:00:02 (02:42:ac:11:00:02)" size="6" pos="6" show="02:42:ac:11:00:02" value="0242ac110002"/>
      <field name="eth.lg" showname=".... ..1. .... .... .... .... = LG bit: Locally administered address (this is NOT the factory default)" size="3" pos="6" show="1" value="1" unmaskedvalue="0242ac"/>
      <field name="eth.ig" showname=".... ...0 .... .... .... .... = IG bit: Individual address (unicast)" size="3" pos="6" show="0" value="0" unmaskedvalue="0242ac"/>
    </field>
    <field name="eth.type" showname="Type: IP (0x0800)" size="2" pos="12" show="2048" value="0800"/>
  </proto>
  <proto name="ip" showname="Internet Protocol Version 4, Src: 172.17.0.2 (172.17.0.2), Dst: 1.1.1.1 (1.1.1.1)" size="20" pos="14">
    <field name="ip.version" showname="Version: 4" size="1" pos="14" show="4" value="45"/>
    <field name="ip.hdr_len" showname="Header length: 20 bytes" size="1" pos="14" show="20" value="45"/>
    <field name="ip.dsfield" showname="Differentiated Services Field: 0x00 (DSCP 0x00: Default; ECN: 0x00: Not-ECT (Not ECN-Capable Transport))" size="1" pos="15" show="0" value="00">
      <field name="ip.dsfield.dscp" showname="0000 00.. = Differentiated Services Codepoint: Default (0x00)" size="1" pos="15" show="0" value="0" unmaskedvalue="00"/>
      <field name="ip.dsfield.ecn" showname=".... ..00 = Explicit Congestion Notification: Not-ECT (Not ECN-Capable Transport) (0x00)" size="1" pos="15" show="0" value="0" unmaskedvalue="00"/>
    </field>
    <field name="ip.len" showname="Total Length: 40" size="2" pos="16" show="40" value="0028"/>
    <field name="ip.id" showname="Identification: 0x7f0c (32524)" size="2" pos="18" show="32524" value="7f0c"/>
    <field name="ip.flags" showname="Flags: 0x02 (Don&apos;t Fragment)" size="1" pos="20" show="2" value="40">
      <field name="ip.flags.rb" showname="0... .... = Reserved bit: Not set" size="1" pos="20" show="0" value="40"/>
      <field name="ip.flags.df" showname=".1.. .... = Don&apos;t fragment: Set" size="1" pos="20" show="1" value="40"/>
      <field name="ip.flags.mf" showname="..0. .... = More fragments: Not set" size="1" pos="20" show="0" value="40"/>
    </field>
    <field name="ip.frag_offset" showname="Fragment offset: 0" size="2" pos="20" show="0" value="4000"/>
    <field name="ip.ttl" showname="Time to live: 64" size="1" pos="22" show="64" value="40"/>
    <field name="ip.proto" showname="Protocol: TCP (6)" size="1" pos="23" show="6" value="06"/>
    <field name="ip.checksum" showname="Header checksum: 0x0daf [validation disabled]" size="2" pos="24" show="3503" value="0daf">
      <field name="ip.checksum_good" showname="Good: False" size="2" pos="24" show="0" value="0daf"/>
      <field name="ip.checksum_bad" showname="Bad: False" size="2" pos="24" show="0" value="0daf"/>
    </field>
    <field name="ip.src" showname="Source: 172.17.0.2 (172.17.0.2)" size="4" pos="26" show="172.17.0.2" value="ac110002"/>
    <field name="ip.addr" showname="Source or Destination Address: 172.17.0.2 (172.17.0.2)" hide="yes" size="4" pos="26" show="172.17.0.2" value="ac110002"/>
    <field name="ip.src_host" showname="Source Host: 172.17.0.2" hide="yes" size="4" pos="26" show="172.17.0.2" value="ac110002"/>
    <field name="ip.host" showname="Source or Destination Host: 172.17.0.2" hide="yes" size="4" pos="26" show="172.17.0.2" value="ac110002"/>
    <field name="ip.dst" showname="Destination: 1.1.1.1 (1.1.1.1)" size="4" pos="30" show="1.1.1.1" value="01010101"/>
    <field name="ip.addr" showname="Source or Destination Address: 1.1.1.1 (1.1.1.1)" hide="yes" size="4" pos="30" show="1.1.1.1" value="01010101"/>
    <field name="ip.dst_host" showname="Destination Host: 1.1.1.1" hide="yes" size="4" pos="30" show="1.1.1.1" value="01010101"/>
    <field name="ip.host" showname="Source or Destination Host: 1.1.1.1" hide="yes" size="4" pos="30" show="1.1.1.1" value="01010101"/>
  </proto>
  <proto name="tcp" showname="Transmission Control Protocol, Src Port: 59666 (59666), Dst Port: 853 (853), Seq: 594, Ack: 3204, Len: 0" size="20" pos="34">
    <field name="tcp.srcport" showname="Source port: 59666 (59666)" size="2" pos="34" show="59666" value="e912"/>
    <field name="tcp.dstport" showname="Destination port: 853 (853)" size="2" pos="36" show="853" value="0355"/>
    <field name="tcp.port" showname="Source or Destination Port: 59666" hide="yes" size="2" pos="34" show="59666" value="e912"/>
    <field name="tcp.port" showname="Source or Destination Port: 853" hide="yes" size="2" pos="36" show="853" value="0355"/>
    <field name="tcp.stream" showname="Stream index: 0" size="0" pos="34" show="0"/>
    <field name="tcp.len" showname="TCP Segment Len: 0" hide="yes" size="1" pos="46" show="0" value="50"/>
    <field name="tcp.seq" showname="Sequence number: 594    (relative sequence number)" size="4" pos="38" show="594" value="5f421809"/>
    <field name="tcp.ack" showname="Acknowledgment number: 3204    (relative ack number)" size="4" pos="42" show="3204" value="5f9ad644"/>
    <field name="tcp.hdr_len" showname="Header length: 20 bytes" size="1" pos="46" show="20" value="50"/>
    <field name="tcp.flags" showname="Flags: 0x011 (FIN, ACK)" size="2" pos="46" show="17" value="11" unmaskedvalue="5011">
      <field name="tcp.flags.res" showname="000. .... .... = Reserved: Not set" size="1" pos="46" show="0" value="0" unmaskedvalue="50"/>
      <field name="tcp.flags.ns" showname="...0 .... .... = Nonce: Not set" size="1" pos="46" show="0" value="0" unmaskedvalue="50"/>
      <field name="tcp.flags.cwr" showname=".... 0... .... = Congestion Window Reduced (CWR): Not set" size="1" pos="47" show="0" value="0" unmaskedvalue="11"/>
      <field name="tcp.flags.ecn" showname=".... .0.. .... = ECN-Echo: Not set" size="1" pos="47" show="0" value="0" unmaskedvalue="11"/>
      <field name="tcp.flags.urg" showname=".... ..0. .... = Urgent: Not set" size="1" pos="47" show="0" value="0" unmaskedvalue="11"/>
      <field name="tcp.flags.ack" showname=".... ...1 .... = Acknowledgment: Set" size="1" pos="47" show="1" value="1" unmaskedvalue="11"/>
      <field name="tcp.flags.push" showname=".... .... 0... = Push: Not set" size="1" pos="47" show="0" value="0" unmaskedvalue="11"/>
      <field name="tcp.flags.reset" showname=".... .... .0.. = Reset: Not set" size="1" pos="47" show="0" value="0" unmaskedvalue="11"/>
      <field name="tcp.flags.syn" showname=".... .... ..0. = Syn: Not set" size="1" pos="47" show="0" value="0" unmaskedvalue="11"/>
      <field name="tcp.flags.fin" showname=".... .... ...1 = Fin: Set" size="1" pos="47" show="1" value="1" unmaskedvalue="11">
        <field name="expert" showname="Expert Info (Chat/Sequence): Connection finish (FIN)" size="0" pos="47">
          <field name="expert.message" showname="Message: Connection finish (FIN)" size="0" pos="0" show="Connection finish (FIN)"/>
          <field name="expert.severity" showname="Severity level: Chat" size="0" pos="0" show="2097152"/>
          <field name="expert.group" showname="Group: Sequence" size="0" pos="0" show="33554432"/>
        </field>
      </field>
    </field>
    <field name="tcp.window_size_value" showname="Window size value: 328" size="2" pos="48" show="328" value="0148"/>
    <field name="tcp.window_size" showname="Calculated window size: 41984" size="2" pos="48" show="41984" value="0148"/>
    <field name="tcp.window_size_scalefactor" showname="Window size scaling factor: 128" size="2" pos="48" show="128" value="0148"/>
    <field name="tcp.checksum" showname="Checksum: 0xae2f [validation disabled]" size="2" pos="50" show="44591" value="ae2f">
      <field name="tcp.checksum_good" showname="Good Checksum: False" size="2" pos="50" show="0" value="ae2f"/>
      <field name="tcp.checksum_bad" showname="Bad Checksum: False" size="2" pos="50" show="0" value="ae2f"/>
    </field>
  </proto>
</packet>


<packet>
  <proto name="geninfo" pos="0" showname="General information" size="54">
    <field name="num" pos="0" show="21" showname="Number" value="15" size="54"/>
    <field name="len" pos="0" show="54" showname="Frame Length" value="36" size="54"/>
    <field name="caplen" pos="0" show="54" showname="Captured Length" value="36" size="54"/>
    <field name="timestamp" pos="0" show="Jun 27, 2019 12:20:57.692713000 CEST" showname="Captured Time" value="1561630857.692713000" size="54"/>
  </proto>
  <proto name="frame" showname="Frame 21: 54 bytes on wire (432 bits), 54 bytes captured (432 bits) on interface 0" size="54" pos="0">
    <field name="frame.interface_id" showname="Interface id: 0" size="0" pos="0" show="0"/>
    <field name="frame.encap_type" showname="Encapsulation type: Ethernet (1)" size="0" pos="0" show="1"/>
    <field name="frame.time" showname="Arrival Time: Jun 27, 2019 12:20:57.692713000 CEST" size="0" pos="0" show="&quot;Jun 27, 2019 12:20:57.692713000 CEST&quot;"/>
    <field name="frame.offset_shift" showname="Time shift for this packet: 0.000000000 seconds" size="0" pos="0" show="0.000000000"/>
    <field name="frame.time_epoch" showname="Epoch Time: 1561630857.692713000 seconds" size="0" pos="0" show="1561630857.692713000"/>
    <field name="frame.time_delta" showname="Time delta from previous captured frame: 0.003526000 seconds" size="0" pos="0" show="0.003526000"/>
    <field name="frame.time_delta_displayed" showname="Time delta from previous displayed frame: 0.003526000 seconds" size="0" pos="0" show="0.003526000"/>
    <field name="frame.time_relative" showname="Time since reference or first frame: 0.062030000 seconds" size="0" pos="0" show="0.062030000"/>
    <field name="frame.number" showname="Frame Number: 21" size="0" pos="0" show="21"/>
    <field name="frame.len" showname="Frame Length: 54 bytes (432 bits)" size="0" pos="0" show="54"/>
    <field name="frame.cap_len" showname="Capture Length: 54 bytes (432 bits)" size="0" pos="0" show="54"/>
    <field name="frame.marked" showname="Frame is marked: False" size="0" pos="0" show="0"/>
    <field name="frame.ignored" showname="Frame is ignored: False" size="0" pos="0" show="0"/>
    <field name="frame.protocols" showname="Protocols in frame: eth:ip:tcp" size="0" pos="0" show="eth:ip:tcp"/>
  </proto>
  <proto name="eth" showname="Ethernet II, Src: 02:42:71:12:56:af (02:42:71:12:56:af), Dst: 02:42:ac:11:00:02 (02:42:ac:11:00:02)" size="14" pos="0">
    <field name="eth.dst" showname="Destination: 02:42:ac:11:00:02 (02:42:ac:11:00:02)" size="6" pos="0" show="02:42:ac:11:00:02" value="0242ac110002">
      <field name="eth.addr" showname="Address: 02:42:ac:11:00:02 (02:42:ac:11:00:02)" size="6" pos="0" show="02:42:ac:11:00:02" value="0242ac110002"/>
      <field name="eth.lg" showname=".... ..1. .... .... .... .... = LG bit: Locally administered address (this is NOT the factory default)" size="3" pos="0" show="1" value="1" unmaskedvalue="0242ac"/>
      <field name="eth.ig" showname=".... ...0 .... .... .... .... = IG bit: Individual address (unicast)" size="3" pos="0" show="0" value="0" unmaskedvalue="0242ac"/>
    </field>
    <field name="eth.src" showname="Source: 02:42:71:12:56:af (02:42:71:12:56:af)" size="6" pos="6" show="02:42:71:12:56:af" value="0242711256af">
      <field name="eth.addr" showname="Address: 02:42:71:12:56:af (02:42:71:12:56:af)" size="6" pos="6" show="02:42:71:12:56:af" value="0242711256af"/>
      <field name="eth.lg" showname=".... ..1. .... .... .... .... = LG bit: Locally administered address (this is NOT the factory default)" size="3" pos="6" show="1" value="1" unmaskedvalue="024271"/>
      <field name="eth.ig" showname=".... ...0 .... .... .... .... = IG bit: Individual address (unicast)" size="3" pos="6" show="0" value="0" unmaskedvalue="024271"/>
    </field>
    <field name="eth.type" showname="Type: IP (0x0800)" size="2" pos="12" show="2048" value="0800"/>
  </proto>
  <proto name="ip" showname="Internet Protocol Version 4, Src: 1.1.1.1 (1.1.1.1), Dst: 172.17.0.2 (172.17.0.2)" size="20" pos="14">
    <field name="ip.version" showname="Version: 4" size="1" pos="14" show="4" value="45"/>
    <field name="ip.hdr_len" showname="Header length: 20 bytes" size="1" pos="14" show="20" value="45"/>
    <field name="ip.dsfield" showname="Differentiated Services Field: 0x00 (DSCP 0x00: Default; ECN: 0x00: Not-ECT (Not ECN-Capable Transport))" size="1" pos="15" show="0" value="00">
      <field name="ip.dsfield.dscp" showname="0000 00.. = Differentiated Services Codepoint: Default (0x00)" size="1" pos="15" show="0" value="0" unmaskedvalue="00"/>
      <field name="ip.dsfield.ecn" showname=".... ..00 = Explicit Congestion Notification: Not-ECT (Not ECN-Capable Transport) (0x00)" size="1" pos="15" show="0" value="0" unmaskedvalue="00"/>
    </field>
    <field name="ip.len" showname="Total Length: 40" size="2" pos="16" show="40" value="0028"/>
    <field name="ip.id" showname="Identification: 0x8546 (34118)" size="2" pos="18" show="34118" value="8546"/>
    <field name="ip.flags" showname="Flags: 0x02 (Don&apos;t Fragment)" size="1" pos="20" show="2" value="40">
      <field name="ip.flags.rb" showname="0... .... = Reserved bit: Not set" size="1" pos="20" show="0" value="40"/>
      <field name="ip.flags.df" showname=".1.. .... = Don&apos;t fragment: Set" size="1" pos="20" show="1" value="40"/>
      <field name="ip.flags.mf" showname="..0. .... = More fragments: Not set" size="1" pos="20" show="0" value="40"/>
    </field>
    <field name="ip.frag_offset" showname="Fragment offset: 0" size="2" pos="20" show="0" value="4000"/>
    <field name="ip.ttl" showname="Time to live: 57" size="1" pos="22" show="57" value="39"/>
    <field name="ip.proto" showname="Protocol: TCP (6)" size="1" pos="23" show="6" value="06"/>
    <field name="ip.checksum" showname="Header checksum: 0x0e75 [validation disabled]" size="2" pos="24" show="3701" value="0e75">
      <field name="ip.checksum_good" showname="Good: False" size="2" pos="24" show="0" value="0e75"/>
      <field name="ip.checksum_bad" showname="Bad: False" size="2" pos="24" show="0" value="0e75"/>
    </field>
    <field name="ip.src" showname="Source: 1.1.1.1 (1.1.1.1)" size="4" pos="26" show="1.1.1.1" value="01010101"/>
    <field name="ip.addr" showname="Source or Destination Address: 1.1.1.1 (1.1.1.1)" hide="yes" size="4" pos="26" show="1.1.1.1" value="01010101"/>
    <field name="ip.src_host" showname="Source Host: 1.1.1.1" hide="yes" size="4" pos="26" show="1.1.1.1" value="01010101"/>
    <field name="ip.host" showname="Source or Destination Host: 1.1.1.1" hide="yes" size="4" pos="26" show="1.1.1.1" value="01010101"/>
    <field name="ip.dst" showname="Destination: 172.17.0.2 (172.17.0.2)" size="4" pos="30" show="172.17.0.2" value="ac110002"/>
    <field name="ip.addr" showname="Source or Destination Address: 172.17.0.2 (172.17.0.2)" hide="yes" size="4" pos="30" show="172.17.0.2" value="ac110002"/>
    <field name="ip.dst_host" showname="Destination Host: 172.17.0.2" hide="yes" size="4" pos="30" show="172.17.0.2" value="ac110002"/>
    <field name="ip.host" showname="Source or Destination Host: 172.17.0.2" hide="yes" size="4" pos="30" show="172.17.0.2" value="ac110002"/>
  </proto>
  <proto name="tcp" showname="Transmission Control Protocol, Src Port: 853 (853), Dst Port: 59666 (59666), Seq: 3204, Ack: 594, Len: 0" size="20" pos="34">
    <field name="tcp.srcport" showname="Source port: 853 (853)" size="2" pos="34" show="853" value="0355"/>
    <field name="tcp.dstport" showname="Destination port: 59666 (59666)" size="2" pos="36" show="59666" value="e912"/>
    <field name="tcp.port" showname="Source or Destination Port: 853" hide="yes" size="2" pos="34" show="853" value="0355"/>
    <field name="tcp.port" showname="Source or Destination Port: 59666" hide="yes" size="2" pos="36" show="59666" value="e912"/>
    <field name="tcp.stream" showname="Stream index: 0" size="0" pos="34" show="0"/>
    <field name="tcp.len" showname="TCP Segment Len: 0" hide="yes" size="1" pos="46" show="0" value="50"/>
    <field name="tcp.seq" showname="Sequence number: 3204    (relative sequence number)" size="4" pos="38" show="3204" value="5f9ad644"/>
    <field name="tcp.ack" showname="Acknowledgment number: 594    (relative ack number)" size="4" pos="42" show="594" value="5f421809"/>
    <field name="tcp.hdr_len" showname="Header length: 20 bytes" size="1" pos="46" show="20" value="50"/>
    <field name="tcp.flags" showname="Flags: 0x011 (FIN, ACK)" size="2" pos="46" show="17" value="11" unmaskedvalue="5011">
      <field name="tcp.flags.res" showname="000. .... .... = Reserved: Not set" size="1" pos="46" show="0" value="0" unmaskedvalue="50"/>
      <field name="tcp.flags.ns" showname="...0 .... .... = Nonce: Not set" size="1" pos="46" show="0" value="0" unmaskedvalue="50"/>
      <field name="tcp.flags.cwr" showname=".... 0... .... = Congestion Window Reduced (CWR): Not set" size="1" pos="47" show="0" value="0" unmaskedvalue="11"/>
      <field name="tcp.flags.ecn" showname=".... .0.. .... = ECN-Echo: Not set" size="1" pos="47" show="0" value="0" unmaskedvalue="11"/>
      <field name="tcp.flags.urg" showname=".... ..0. .... = Urgent: Not set" size="1" pos="47" show="0" value="0" unmaskedvalue="11"/>
      <field name="tcp.flags.ack" showname=".... ...1 .... = Acknowledgment: Set" size="1" pos="47" show="1" value="1" unmaskedvalue="11"/>
      <field name="tcp.flags.push" showname=".... .... 0... = Push: Not set" size="1" pos="47" show="0" value="0" unmaskedvalue="11"/>
      <field name="tcp.flags.reset" showname=".... .... .0.. = Reset: Not set" size="1" pos="47" show="0" value="0" unmaskedvalue="11"/>
      <field name="tcp.flags.syn" showname=".... .... ..0. = Syn: Not set" size="1" pos="47" show="0" value="0" unmaskedvalue="11"/>
      <field name="tcp.flags.fin" showname=".... .... ...1 = Fin: Set" size="1" pos="47" show="1" value="1" unmaskedvalue="11">
        <field name="expert" showname="Expert Info (Chat/Sequence): Connection finish (FIN)" size="0" pos="47">
          <field name="expert.message" showname="Message: Connection finish (FIN)" size="0" pos="0" show="Connection finish (FIN)"/>
          <field name="expert.severity" showname="Severity level: Chat" size="0" pos="0" show="2097152"/>
          <field name="expert.group" showname="Group: Sequence" size="0" pos="0" show="33554432"/>
        </field>
      </field>
    </field>
    <field name="tcp.window_size_value" showname="Window size value: 31" size="2" pos="48" show="31" value="001f"/>
    <field name="tcp.window_size" showname="Calculated window size: 31744" size="2" pos="48" show="31744" value="001f"/>
    <field name="tcp.window_size_scalefactor" showname="Window size scaling factor: 1024" size="2" pos="48" show="1024" value="001f"/>
    <field name="tcp.checksum" showname="Checksum: 0x680d [validation disabled]" size="2" pos="50" show="26637" value="680d">
      <field name="tcp.checksum_good" showname="Good Checksum: False" size="2" pos="50" show="0" value="680d"/>
      <field name="tcp.checksum_bad" showname="Bad Checksum: False" size="2" pos="50" show="0" value="680d"/>
    </field>
    <field name="tcp.analysis" showname="SEQ/ACK analysis" size="0" pos="34" show="" value="">
      <field name="tcp.analysis.acks_frame" showname="This is an ACK to the segment in frame: 19" size="0" pos="34" show="19"/>
      <field name="tcp.analysis.ack_rtt" showname="The RTT to ACK the segment was: 0.003596000 seconds" size="0" pos="34" show="0.003596000"/>
    </field>
  </proto>
</packet>


<packet>
  <proto name="geninfo" pos="0" showname="General information" size="54">
    <field name="num" pos="0" show="22" showname="Number" value="16" size="54"/>
    <field name="len" pos="0" show="54" showname="Frame Length" value="36" size="54"/>
    <field name="caplen" pos="0" show="54" showname="Captured Length" value="36" size="54"/>
    <field name="timestamp" pos="0" show="Jun 27, 2019 12:20:57.692737000 CEST" showname="Captured Time" value="1561630857.692737000" size="54"/>
  </proto>
  <proto name="frame" showname="Frame 22: 54 bytes on wire (432 bits), 54 bytes captured (432 bits) on interface 0" size="54" pos="0">
    <field name="frame.interface_id" showname="Interface id: 0" size="0" pos="0" show="0"/>
    <field name="frame.encap_type" showname="Encapsulation type: Ethernet (1)" size="0" pos="0" show="1"/>
    <field name="frame.time" showname="Arrival Time: Jun 27, 2019 12:20:57.692737000 CEST" size="0" pos="0" show="&quot;Jun 27, 2019 12:20:57.692737000 CEST&quot;"/>
    <field name="frame.offset_shift" showname="Time shift for this packet: 0.000000000 seconds" size="0" pos="0" show="0.000000000"/>
    <field name="frame.time_epoch" showname="Epoch Time: 1561630857.692737000 seconds" size="0" pos="0" show="1561630857.692737000"/>
    <field name="frame.time_delta" showname="Time delta from previous captured frame: 0.000024000 seconds" size="0" pos="0" show="0.000024000"/>
    <field name="frame.time_delta_displayed" showname="Time delta from previous displayed frame: 0.000024000 seconds" size="0" pos="0" show="0.000024000"/>
    <field name="frame.time_relative" showname="Time since reference or first frame: 0.062054000 seconds" size="0" pos="0" show="0.062054000"/>
    <field name="frame.number" showname="Frame Number: 22" size="0" pos="0" show="22"/>
    <field name="frame.len" showname="Frame Length: 54 bytes (432 bits)" size="0" pos="0" show="54"/>
    <field name="frame.cap_len" showname="Capture Length: 54 bytes (432 bits)" size="0" pos="0" show="54"/>
    <field name="frame.marked" showname="Frame is marked: False" size="0" pos="0" show="0"/>
    <field name="frame.ignored" showname="Frame is ignored: False" size="0" pos="0" show="0"/>
    <field name="frame.protocols" showname="Protocols in frame: eth:ip:tcp" size="0" pos="0" show="eth:ip:tcp"/>
  </proto>
  <proto name="eth" showname="Ethernet II, Src: 02:42:ac:11:00:02 (02:42:ac:11:00:02), Dst: 02:42:71:12:56:af (02:42:71:12:56:af)" size="14" pos="0">
    <field name="eth.dst" showname="Destination: 02:42:71:12:56:af (02:42:71:12:56:af)" size="6" pos="0" show="02:42:71:12:56:af" value="0242711256af">
      <field name="eth.addr" showname="Address: 02:42:71:12:56:af (02:42:71:12:56:af)" size="6" pos="0" show="02:42:71:12:56:af" value="0242711256af"/>
      <field name="eth.lg" showname=".... ..1. .... .... .... .... = LG bit: Locally administered address (this is NOT the factory default)" size="3" pos="0" show="1" value="1" unmaskedvalue="024271"/>
      <field name="eth.ig" showname=".... ...0 .... .... .... .... = IG bit: Individual address (unicast)" size="3" pos="0" show="0" value="0" unmaskedvalue="024271"/>
    </field>
    <field name="eth.src" showname="Source: 02:42:ac:11:00:02 (02:42:ac:11:00:02)" size="6" pos="6" show="02:42:ac:11:00:02" value="0242ac110002">
      <field name="eth.addr" showname="Address: 02:42:ac:11:00:02 (02:42:ac:11:00:02)" size="6" pos="6" show="02:42:ac:11:00:02" value="0242ac110002"/>
      <field name="eth.lg" showname=".... ..1. .... .... .... .... = LG bit: Locally administered address (this is NOT the factory default)" size="3" pos="6" show="1" value="1" unmaskedvalue="0242ac"/>
      <field name="eth.ig" showname=".... ...0 .... .... .... .... = IG bit: Individual address (unicast)" size="3" pos="6" show="0" value="0" unmaskedvalue="0242ac"/>
    </field>
    <field name="eth.type" showname="Type: IP (0x0800)" size="2" pos="12" show="2048" value="0800"/>
  </proto>
  <proto name="ip" showname="Internet Protocol Version 4, Src: 172.17.0.2 (172.17.0.2), Dst: 1.1.1.1 (1.1.1.1)" size="20" pos="14">
    <field name="ip.version" showname="Version: 4" size="1" pos="14" show="4" value="45"/>
    <field name="ip.hdr_len" showname="Header length: 20 bytes" size="1" pos="14" show="20" value="45"/>
    <field name="ip.dsfield" showname="Differentiated Services Field: 0x00 (DSCP 0x00: Default; ECN: 0x00: Not-ECT (Not ECN-Capable Transport))" size="1" pos="15" show="0" value="00">
      <field name="ip.dsfield.dscp" showname="0000 00.. = Differentiated Services Codepoint: Default (0x00)" size="1" pos="15" show="0" value="0" unmaskedvalue="00"/>
      <field name="ip.dsfield.ecn" showname=".... ..00 = Explicit Congestion Notification: Not-ECT (Not ECN-Capable Transport) (0x00)" size="1" pos="15" show="0" value="0" unmaskedvalue="00"/>
    </field>
    <field name="ip.len" showname="Total Length: 40" size="2" pos="16" show="40" value="0028"/>
    <field name="ip.id" showname="Identification: 0x7f0d (32525)" size="2" pos="18" show="32525" value="7f0d"/>
    <field name="ip.flags" showname="Flags: 0x02 (Don&apos;t Fragment)" size="1" pos="20" show="2" value="40">
      <field name="ip.flags.rb" showname="0... .... = Reserved bit: Not set" size="1" pos="20" show="0" value="40"/>
      <field name="ip.flags.df" showname=".1.. .... = Don&apos;t fragment: Set" size="1" pos="20" show="1" value="40"/>
      <field name="ip.flags.mf" showname="..0. .... = More fragments: Not set" size="1" pos="20" show="0" value="40"/>
    </field>
    <field name="ip.frag_offset" showname="Fragment offset: 0" size="2" pos="20" show="0" value="4000"/>
    <field name="ip.ttl" showname="Time to live: 64" size="1" pos="22" show="64" value="40"/>
    <field name="ip.proto" showname="Protocol: TCP (6)" size="1" pos="23" show="6" value="06"/>
    <field name="ip.checksum" showname="Header checksum: 0x0dae [validation disabled]" size="2" pos="24" show="3502" value="0dae">
      <field name="ip.checksum_good" showname="Good: False" size="2" pos="24" show="0" value="0dae"/>
      <field name="ip.checksum_bad" showname="Bad: False" size="2" pos="24" show="0" value="0dae"/>
    </field>
    <field name="ip.src" showname="Source: 172.17.0.2 (172.17.0.2)" size="4" pos="26" show="172.17.0.2" value="ac110002"/>
    <field name="ip.addr" showname="Source or Destination Address: 172.17.0.2 (172.17.0.2)" hide="yes" size="4" pos="26" show="172.17.0.2" value="ac110002"/>
    <field name="ip.src_host" showname="Source Host: 172.17.0.2" hide="yes" size="4" pos="26" show="172.17.0.2" value="ac110002"/>
    <field name="ip.host" showname="Source or Destination Host: 172.17.0.2" hide="yes" size="4" pos="26" show="172.17.0.2" value="ac110002"/>
    <field name="ip.dst" showname="Destination: 1.1.1.1 (1.1.1.1)" size="4" pos="30" show="1.1.1.1" value="01010101"/>
    <field name="ip.addr" showname="Source or Destination Address: 1.1.1.1 (1.1.1.1)" hide="yes" size="4" pos="30" show="1.1.1.1" value="01010101"/>
    <field name="ip.dst_host" showname="Destination Host: 1.1.1.1" hide="yes" size="4" pos="30" show="1.1.1.1" value="01010101"/>
    <field name="ip.host" showname="Source or Destination Host: 1.1.1.1" hide="yes" size="4" pos="30" show="1.1.1.1" value="01010101"/>
  </proto>
  <proto name="tcp" showname="Transmission Control Protocol, Src Port: 59666 (59666), Dst Port: 853 (853), Seq: 595, Ack: 3205, Len: 0" size="20" pos="34">
    <field name="tcp.srcport" showname="Source port: 59666 (59666)" size="2" pos="34" show="59666" value="e912"/>
    <field name="tcp.dstport" showname="Destination port: 853 (853)" size="2" pos="36" show="853" value="0355"/>
    <field name="tcp.port" showname="Source or Destination Port: 59666" hide="yes" size="2" pos="34" show="59666" value="e912"/>
    <field name="tcp.port" showname="Source or Destination Port: 853" hide="yes" size="2" pos="36" show="853" value="0355"/>
    <field name="tcp.stream" showname="Stream index: 0" size="0" pos="34" show="0"/>
    <field name="tcp.len" showname="TCP Segment Len: 0" hide="yes" size="1" pos="46" show="0" value="50"/>
    <field name="tcp.seq" showname="Sequence number: 595    (relative sequence number)" size="4" pos="38" show="595" value="5f42180a"/>
    <field name="tcp.ack" showname="Acknowledgment number: 3205    (relative ack number)" size="4" pos="42" show="3205" value="5f9ad645"/>
    <field name="tcp.hdr_len" showname="Header length: 20 bytes" size="1" pos="46" show="20" value="50"/>
    <field name="tcp.flags" showname="Flags: 0x010 (ACK)" size="2" pos="46" show="16" value="10" unmaskedvalue="5010">
      <field name="tcp.flags.res" showname="000. .... .... = Reserved: Not set" size="1" pos="46" show="0" value="0" unmaskedvalue="50"/>
      <field name="tcp.flags.ns" showname="...0 .... .... = Nonce: Not set" size="1" pos="46" show="0" value="0" unmaskedvalue="50"/>
      <field name="tcp.flags.cwr" showname=".... 0... .... = Congestion Window Reduced (CWR): Not set" size="1" pos="47" show="0" value="0" unmaskedvalue="10"/>
      <field name="tcp.flags.ecn" showname=".... .0.. .... = ECN-Echo: Not set" size="1" pos="47" show="0" value="0" unmaskedvalue="10"/>
      <field name="tcp.flags.urg" showname=".... ..0. .... = Urgent: Not set" size="1" pos="47" show="0" value="0" unmaskedvalue="10"/>
      <field name="tcp.flags.ack" showname=".... ...1 .... = Acknowledgment: Set" size="1" pos="47" show="1" value="1" unmaskedvalue="10"/>
      <field name="tcp.flags.push" showname=".... .... 0... = Push: Not set" size="1" pos="47" show="0" value="0" unmaskedvalue="10"/>
      <field name="tcp.flags.reset" showname=".... .... .0.. = Reset: Not set" size="1" pos="47" show="0" value="0" unmaskedvalue="10"/>
      <field name="tcp.flags.syn" showname=".... .... ..0. = Syn: Not set" size="1" pos="47" show="0" value="0" unmaskedvalue="10"/>
      <field name="tcp.flags.fin" showname=".... .... ...0 = Fin: Not set" size="1" pos="47" show="0" value="0" unmaskedvalue="10"/>
    </field>
    <field name="tcp.window_size_value" showname="Window size value: 328" size="2" pos="48" show="328" value="0148"/>
    <field name="tcp.window_size" showname="Calculated window size: 41984" size="2" pos="48" show="41984" value="0148"/>
    <field name="tcp.window_size_scalefactor" showname="Window size scaling factor: 128" size="2" pos="48" show="128" value="0148"/>
    <field name="tcp.checksum" showname="Checksum: 0xae2f [validation disabled]" size="2" pos="50" show="44591" value="ae2f">
      <field name="tcp.checksum_good" showname="Good Checksum: False" size="2" pos="50" show="0" value="ae2f"/>
      <field name="tcp.checksum_bad" showname="Bad Checksum: False" size="2" pos="50" show="0" value="ae2f"/>
    </field>
    <field name="tcp.analysis" showname="SEQ/ACK analysis" size="0" pos="34" show="" value="">
      <field name="tcp.analysis.acks_frame" showname="This is an ACK to the segment in frame: 21" size="0" pos="34" show="21"/>
      <field name="tcp.analysis.ack_rtt" showname="The RTT to ACK the segment was: 0.000024000 seconds" size="0" pos="34" show="0.000024000"/>
    </field>
  </proto>
</packet>


<packet>
  <proto name="geninfo" pos="0" showname="General information" size="54">
    <field name="num" pos="0" show="23" showname="Number" value="17" size="54"/>
    <field name="len" pos="0" show="54" showname="Frame Length" value="36" size="54"/>
    <field name="caplen" pos="0" show="54" showname="Captured Length" value="36" size="54"/>
    <field name="timestamp" pos="0" show="Jun 27, 2019 12:20:57.692840000 CEST" showname="Captured Time" value="1561630857.692840000" size="54"/>
  </proto>
  <proto name="frame" showname="Frame 23: 54 bytes on wire (432 bits), 54 bytes captured (432 bits) on interface 0" size="54" pos="0">
    <field name="frame.interface_id" showname="Interface id: 0" size="0" pos="0" show="0"/>
    <field name="frame.encap_type" showname="Encapsulation type: Ethernet (1)" size="0" pos="0" show="1"/>
    <field name="frame.time" showname="Arrival Time: Jun 27, 2019 12:20:57.692840000 CEST" size="0" pos="0" show="&quot;Jun 27, 2019 12:20:57.692840000 CEST&quot;"/>
    <field name="frame.offset_shift" showname="Time shift for this packet: 0.000000000 seconds" size="0" pos="0" show="0.000000000"/>
    <field name="frame.time_epoch" showname="Epoch Time: 1561630857.692840000 seconds" size="0" pos="0" show="1561630857.692840000"/>
    <field name="frame.time_delta" showname="Time delta from previous captured frame: 0.000103000 seconds" size="0" pos="0" show="0.000103000"/>
    <field name="frame.time_delta_displayed" showname="Time delta from previous displayed frame: 0.000103000 seconds" size="0" pos="0" show="0.000103000"/>
    <field name="frame.time_relative" showname="Time since reference or first frame: 0.062157000 seconds" size="0" pos="0" show="0.062157000"/>
    <field name="frame.number" showname="Frame Number: 23" size="0" pos="0" show="23"/>
    <field name="frame.len" showname="Frame Length: 54 bytes (432 bits)" size="0" pos="0" show="54"/>
    <field name="frame.cap_len" showname="Capture Length: 54 bytes (432 bits)" size="0" pos="0" show="54"/>
    <field name="frame.marked" showname="Frame is marked: False" size="0" pos="0" show="0"/>
    <field name="frame.ignored" showname="Frame is ignored: False" size="0" pos="0" show="0"/>
    <field name="frame.protocols" showname="Protocols in frame: eth:ip:tcp" size="0" pos="0" show="eth:ip:tcp"/>
  </proto>
  <proto name="eth" showname="Ethernet II, Src: 02:42:71:12:56:af (02:42:71:12:56:af), Dst: 02:42:ac:11:00:02 (02:42:ac:11:00:02)" size="14" pos="0">
    <field name="eth.dst" showname="Destination: 02:42:ac:11:00:02 (02:42:ac:11:00:02)" size="6" pos="0" show="02:42:ac:11:00:02" value="0242ac110002">
      <field name="eth.addr" showname="Address: 02:42:ac:11:00:02 (02:42:ac:11:00:02)" size="6" pos="0" show="02:42:ac:11:00:02" value="0242ac110002"/>
      <field name="eth.lg" showname=".... ..1. .... .... .... .... = LG bit: Locally administered address (this is NOT the factory default)" size="3" pos="0" show="1" value="1" unmaskedvalue="0242ac"/>
      <field name="eth.ig" showname=".... ...0 .... .... .... .... = IG bit: Individual address (unicast)" size="3" pos="0" show="0" value="0" unmaskedvalue="0242ac"/>
    </field>
    <field name="eth.src" showname="Source: 02:42:71:12:56:af (02:42:71:12:56:af)" size="6" pos="6" show="02:42:71:12:56:af" value="0242711256af">
      <field name="eth.addr" showname="Address: 02:42:71:12:56:af (02:42:71:12:56:af)" size="6" pos="6" show="02:42:71:12:56:af" value="0242711256af"/>
      <field name="eth.lg" showname=".... ..1. .... .... .... .... = LG bit: Locally administered address (this is NOT the factory default)" size="3" pos="6" show="1" value="1" unmaskedvalue="024271"/>
      <field name="eth.ig" showname=".... ...0 .... .... .... .... = IG bit: Individual address (unicast)" size="3" pos="6" show="0" value="0" unmaskedvalue="024271"/>
    </field>
    <field name="eth.type" showname="Type: IP (0x0800)" size="2" pos="12" show="2048" value="0800"/>
  </proto>
  <proto name="ip" showname="Internet Protocol Version 4, Src: 1.1.1.1 (1.1.1.1), Dst: 172.17.0.2 (172.17.0.2)" size="20" pos="14">
    <field name="ip.version" showname="Version: 4" size="1" pos="14" show="4" value="45"/>
    <field name="ip.hdr_len" showname="Header length: 20 bytes" size="1" pos="14" show="20" value="45"/>
    <field name="ip.dsfield" showname="Differentiated Services Field: 0x00 (DSCP 0x00: Default; ECN: 0x00: Not-ECT (Not ECN-Capable Transport))" size="1" pos="15" show="0" value="00">
      <field name="ip.dsfield.dscp" showname="0000 00.. = Differentiated Services Codepoint: Default (0x00)" size="1" pos="15" show="0" value="0" unmaskedvalue="00"/>
      <field name="ip.dsfield.ecn" showname=".... ..00 = Explicit Congestion Notification: Not-ECT (Not ECN-Capable Transport) (0x00)" size="1" pos="15" show="0" value="0" unmaskedvalue="00"/>
    </field>
    <field name="ip.len" showname="Total Length: 40" size="2" pos="16" show="40" value="0028"/>
    <field name="ip.id" showname="Identification: 0x8547 (34119)" size="2" pos="18" show="34119" value="8547"/>
    <field name="ip.flags" showname="Flags: 0x02 (Don&apos;t Fragment)" size="1" pos="20" show="2" value="40">
      <field name="ip.flags.rb" showname="0... .... = Reserved bit: Not set" size="1" pos="20" show="0" value="40"/>
      <field name="ip.flags.df" showname=".1.. .... = Don&apos;t fragment: Set" size="1" pos="20" show="1" value="40"/>
      <field name="ip.flags.mf" showname="..0. .... = More fragments: Not set" size="1" pos="20" show="0" value="40"/>
    </field>
    <field name="ip.frag_offset" showname="Fragment offset: 0" size="2" pos="20" show="0" value="4000"/>
    <field name="ip.ttl" showname="Time to live: 57" size="1" pos="22" show="57" value="39"/>
    <field name="ip.proto" showname="Protocol: TCP (6)" size="1" pos="23" show="6" value="06"/>
    <field name="ip.checksum" showname="Header checksum: 0x0e74 [validation disabled]" size="2" pos="24" show="3700" value="0e74">
      <field name="ip.checksum_good" showname="Good: False" size="2" pos="24" show="0" value="0e74"/>
      <field name="ip.checksum_bad" showname="Bad: False" size="2" pos="24" show="0" value="0e74"/>
    </field>
    <field name="ip.src" showname="Source: 1.1.1.1 (1.1.1.1)" size="4" pos="26" show="1.1.1.1" value="01010101"/>
    <field name="ip.addr" showname="Source or Destination Address: 1.1.1.1 (1.1.1.1)" hide="yes" size="4" pos="26" show="1.1.1.1" value="01010101"/>
    <field name="ip.src_host" showname="Source Host: 1.1.1.1" hide="yes" size="4" pos="26" show="1.1.1.1" value="01010101"/>
    <field name="ip.host" showname="Source or Destination Host: 1.1.1.1" hide="yes" size="4" pos="26" show="1.1.1.1" value="01010101"/>
    <field name="ip.dst" showname="Destination: 172.17.0.2 (172.17.0.2)" size="4" pos="30" show="172.17.0.2" value="ac110002"/>
    <field name="ip.addr" showname="Source or Destination Address: 172.17.0.2 (172.17.0.2)" hide="yes" size="4" pos="30" show="172.17.0.2" value="ac110002"/>
    <field name="ip.dst_host" showname="Destination Host: 172.17.0.2" hide="yes" size="4" pos="30" show="172.17.0.2" value="ac110002"/>
    <field name="ip.host" showname="Source or Destination Host: 172.17.0.2" hide="yes" size="4" pos="30" show="172.17.0.2" value="ac110002"/>
  </proto>
  <proto name="tcp" showname="Transmission Control Protocol, Src Port: 853 (853), Dst Port: 59666 (59666), Seq: 3205, Ack: 595, Len: 0" size="20" pos="34">
    <field name="tcp.srcport" showname="Source port: 853 (853)" size="2" pos="34" show="853" value="0355"/>
    <field name="tcp.dstport" showname="Destination port: 59666 (59666)" size="2" pos="36" show="59666" value="e912"/>
    <field name="tcp.port" showname="Source or Destination Port: 853" hide="yes" size="2" pos="34" show="853" value="0355"/>
    <field name="tcp.port" showname="Source or Destination Port: 59666" hide="yes" size="2" pos="36" show="59666" value="e912"/>
    <field name="tcp.stream" showname="Stream index: 0" size="0" pos="34" show="0"/>
    <field name="tcp.len" showname="TCP Segment Len: 0" hide="yes" size="1" pos="46" show="0" value="50"/>
    <field name="tcp.seq" showname="Sequence number: 3205    (relative sequence number)" size="4" pos="38" show="3205" value="5f9ad645"/>
    <field name="tcp.ack" showname="Acknowledgment number: 595    (relative ack number)" size="4" pos="42" show="595" value="5f42180a"/>
    <field name="tcp.hdr_len" showname="Header length: 20 bytes" size="1" pos="46" show="20" value="50"/>
    <field name="tcp.flags" showname="Flags: 0x010 (ACK)" size="2" pos="46" show="16" value="10" unmaskedvalue="5010">
      <field name="tcp.flags.res" showname="000. .... .... = Reserved: Not set" size="1" pos="46" show="0" value="0" unmaskedvalue="50"/>
      <field name="tcp.flags.ns" showname="...0 .... .... = Nonce: Not set" size="1" pos="46" show="0" value="0" unmaskedvalue="50"/>
      <field name="tcp.flags.cwr" showname=".... 0... .... = Congestion Window Reduced (CWR): Not set" size="1" pos="47" show="0" value="0" unmaskedvalue="10"/>
      <field name="tcp.flags.ecn" showname=".... .0.. .... = ECN-Echo: Not set" size="1" pos="47" show="0" value="0" unmaskedvalue="10"/>
      <field name="tcp.flags.urg" showname=".... ..0. .... = Urgent: Not set" size="1" pos="47" show="0" value="0" unmaskedvalue="10"/>
      <field name="tcp.flags.ack" showname=".... ...1 .... = Acknowledgment: Set" size="1" pos="47" show="1" value="1" unmaskedvalue="10"/>
      <field name="tcp.flags.push" showname=".... .... 0... = Push: Not set" size="1" pos="47" show="0" value="0" unmaskedvalue="10"/>
      <field name="tcp.flags.reset" showname=".... .... .0.. = Reset: Not set" size="1" pos="47" show="0" value="0" unmaskedvalue="10"/>
      <field name="tcp.flags.syn" showname=".... .... ..0. = Syn: Not set" size="1" pos="47" show="0" value="0" unmaskedvalue="10"/>
      <field name="tcp.flags.fin" showname=".... .... ...0 = Fin: Not set" size="1" pos="47" show="0" value="0" unmaskedvalue="10"/>
    </field>
    <field name="tcp.window_size_value" showname="Window size value: 31" size="2" pos="48" show="31" value="001f"/>
    <field name="tcp.window_size" showname="Calculated window size: 31744" size="2" pos="48" show="31744" value="001f"/>
    <field name="tcp.window_size_scalefactor" showname="Window size scaling factor: 1024" size="2" pos="48" show="1024" value="001f"/>
    <field name="tcp.checksum" showname="Checksum: 0x680c [validation disabled]" size="2" pos="50" show="26636" value="680c">
      <field name="tcp.checksum_good" showname="Good Checksum: False" size="2" pos="50" show="0" value="680c"/>
      <field name="tcp.checksum_bad" showname="Bad Checksum: False" size="2" pos="50" show="0" value="680c"/>
    </field>
    <field name="tcp.analysis" showname="SEQ/ACK analysis" size="0" pos="34" show="" value="">
      <field name="tcp.analysis.acks_frame" showname="This is an ACK to the segment in frame: 20" size="0" pos="34" show="20"/>
      <field name="tcp.analysis.ack_rtt" showname="The RTT to ACK the segment was: 0.003653000 seconds" size="0" pos="34" show="0.003653000"/>
    </field>
  </proto>
</packet>


</pdml>
