<?xml version="1.0"?>
<?xml-stylesheet type="text/xsl" href="pdml2html.xsl"?>
<!-- You can find pdml2html.xsl in /usr/share/wireshark or at http://anonsvn.wireshark.org/trunk/wireshark/pdml2html.xsl. -->
<pdml version="0" creator="wireshark/1.10.14" time="Wed Jul 24 18:55:37 2019" capture_file="ipv4--4.cap">
<packet>
  <proto name="geninfo" pos="0" showname="General information" size="74">
    <field name="num" pos="0" show="1" showname="Number" value="1" size="74"/>
    <field name="len" pos="0" show="74" showname="Frame Length" value="4a" size="74"/>
    <field name="caplen" pos="0" show="74" showname="Captured Length" value="4a" size="74"/>
    <field name="timestamp" pos="0" show="Jun 27, 2019 12:20:57.201407000 CEST" showname="Captured Time" value="1561630857.201407000" size="74"/>
  </proto>
  <proto name="frame" showname="Frame 1: 74 bytes on wire (592 bits), 74 bytes captured (592 bits) on interface 0" size="74" pos="0">
    <field name="frame.interface_id" showname="Interface id: 0" size="0" pos="0" show="0"/>
    <field name="frame.encap_type" showname="Encapsulation type: Ethernet (1)" size="0" pos="0" show="1"/>
    <field name="frame.time" showname="Arrival Time: Jun 27, 2019 12:20:57.201407000 CEST" size="0" pos="0" show="&quot;Jun 27, 2019 12:20:57.201407000 CEST&quot;"/>
    <field name="frame.offset_shift" showname="Time shift for this packet: 0.000000000 seconds" size="0" pos="0" show="0.000000000"/>
    <field name="frame.time_epoch" showname="Epoch Time: 1561630857.201407000 seconds" size="0" pos="0" show="1561630857.201407000"/>
    <field name="frame.time_delta" showname="Time delta from previous captured frame: 0.000000000 seconds" size="0" pos="0" show="0.000000000"/>
    <field name="frame.time_delta_displayed" showname="Time delta from previous displayed frame: 0.000000000 seconds" size="0" pos="0" show="0.000000000"/>
    <field name="frame.time_relative" showname="Time since reference or first frame: 0.000000000 seconds" size="0" pos="0" show="0.000000000"/>
    <field name="frame.number" showname="Frame Number: 1" size="0" pos="0" show="1"/>
    <field name="frame.len" showname="Frame Length: 74 bytes (592 bits)" size="0" pos="0" show="74"/>
    <field name="frame.cap_len" showname="Capture Length: 74 bytes (592 bits)" size="0" pos="0" show="74"/>
    <field name="frame.marked" showname="Frame is marked: False" size="0" pos="0" show="0"/>
    <field name="frame.ignored" showname="Frame is ignored: False" size="0" pos="0" show="0"/>
    <field name="frame.protocols" showname="Protocols in frame: eth:ip:tcp" size="0" pos="0" show="eth:ip:tcp"/>
  </proto>
  <proto name="eth" showname="Ethernet II, Src: 02:42:ac:11:00:02 (02:42:ac:11:00:02), Dst: 02:42:71:12:56:af (02:42:71:12:56:af)" size="14" pos="0">
    <field name="eth.dst" showname="Destination: 02:42:71:12:56:af (02:42:71:12:56:af)" size="6" pos="0" show="02:42:71:12:56:af" value="0242711256af">
      <field name="eth.addr" showname="Address: 02:42:71:12:56:af (02:42:71:12:56:af)" size="6" pos="0" show="02:42:71:12:56:af" value="0242711256af"/>
      <field name="eth.lg" showname=".... ..1. .... .... .... .... = LG bit: Locally administered address (this is NOT the factory default)" size="3" pos="0" show="1" value="1" unmaskedvalue="024271"/>
      <field name="eth.ig" showname=".... ...0 .... .... .... .... = IG bit: Individual address (unicast)" size="3" pos="0" show="0" value="0" unmaskedvalue="024271"/>
    </field>
    <field name="eth.src" showname="Source: 02:42:ac:11:00:02 (02:42:ac:11:00:02)" size="6" pos="6" show="02:42:ac:11:00:02" value="0242ac110002">
      <field name="eth.addr" showname="Address: 02:42:ac:11:00:02 (02:42:ac:11:00:02)" size="6" pos="6" show="02:42:ac:11:00:02" value="0242ac110002"/>
      <field name="eth.lg" showname=".... ..1. .... .... .... .... = LG bit: Locally administered address (this is NOT the factory default)" size="3" pos="6" show="1" value="1" unmaskedvalue="0242ac"/>
      <field name="eth.ig" showname=".... ...0 .... .... .... .... = IG bit: Individual address (unicast)" size="3" pos="6" show="0" value="0" unmaskedvalue="0242ac"/>
    </field>
    <field name="eth.type" showname="Type: IP (0x0800)" size="2" pos="12" show="2048" value="0800"/>
  </proto>
  <proto name="ip" showname="Internet Protocol Version 4, Src: 172.17.0.2 (172.17.0.2), Dst: 1.1.1.1 (1.1.1.1)" size="20" pos="14">
    <field name="ip.version" showname="Version: 4" size="1" pos="14" show="4" value="45"/>
    <field name="ip.hdr_len" showname="Header length: 20 bytes" size="1" pos="14" show="20" value="45"/>
    <field name="ip.dsfield" showname="Differentiated Services Field: 0x00 (DSCP 0x00: Default; ECN: 0x00: Not-ECT (Not ECN-Capable Transport))" size="1" pos="15" show="0" value="00">
      <field name="ip.dsfield.dscp" showname="0000 00.. = Differentiated Services Codepoint: Default (0x00)" size="1" pos="15" show="0" value="0" unmaskedvalue="00"/>
      <field name="ip.dsfield.ecn" showname=".... ..00 = Explicit Congestion Notification: Not-ECT (Not ECN-Capable Transport) (0x00)" size="1" pos="15" show="0" value="0" unmaskedvalue="00"/>
    </field>
    <field name="ip.len" showname="Total Length: 60" size="2" pos="16" show="60" value="003c"/>
    <field name="ip.id" showname="Identification: 0xc409 (50185)" size="2" pos="18" show="50185" value="c409"/>
    <field name="ip.flags" showname="Flags: 0x02 (Don&apos;t Fragment)" size="1" pos="20" show="2" value="40">
      <field name="ip.flags.rb" showname="0... .... = Reserved bit: Not set" size="1" pos="20" show="0" value="40"/>
      <field name="ip.flags.df" showname=".1.. .... = Don&apos;t fragment: Set" size="1" pos="20" show="1" value="40"/>
      <field name="ip.flags.mf" showname="..0. .... = More fragments: Not set" size="1" pos="20" show="0" value="40"/>
    </field>
    <field name="ip.frag_offset" showname="Fragment offset: 0" size="2" pos="20" show="0" value="4000"/>
    <field name="ip.ttl" showname="Time to live: 64" size="1" pos="22" show="64" value="40"/>
    <field name="ip.proto" showname="Protocol: TCP (6)" size="1" pos="23" show="6" value="06"/>
    <field name="ip.checksum" showname="Header checksum: 0xc89d [validation disabled]" size="2" pos="24" show="51357" value="c89d">
      <field name="ip.checksum_good" showname="Good: False" size="2" pos="24" show="0" value="c89d"/>
      <field name="ip.checksum_bad" showname="Bad: False" size="2" pos="24" show="0" value="c89d"/>
    </field>
    <field name="ip.src" showname="Source: 172.17.0.2 (172.17.0.2)" size="4" pos="26" show="172.17.0.2" value="ac110002"/>
    <field name="ip.addr" showname="Source or Destination Address: 172.17.0.2 (172.17.0.2)" hide="yes" size="4" pos="26" show="172.17.0.2" value="ac110002"/>
    <field name="ip.src_host" showname="Source Host: 172.17.0.2" hide="yes" size="4" pos="26" show="172.17.0.2" value="ac110002"/>
    <field name="ip.host" showname="Source or Destination Host: 172.17.0.2" hide="yes" size="4" pos="26" show="172.17.0.2" value="ac110002"/>
    <field name="ip.dst" showname="Destination: 1.1.1.1 (1.1.1.1)" size="4" pos="30" show="1.1.1.1" value="01010101"/>
    <field name="ip.addr" showname="Source or Destination Address: 1.1.1.1 (1.1.1.1)" hide="yes" size="4" pos="30" show="1.1.1.1" value="01010101"/>
    <field name="ip.dst_host" showname="Destination Host: 1.1.1.1" hide="yes" size="4" pos="30" show="1.1.1.1" value="01010101"/>
    <field name="ip.host" showname="Source or Destination Host: 1.1.1.1" hide="yes" size="4" pos="30" show="1.1.1.1" value="01010101"/>
  </proto>
  <proto name="tcp" showname="Transmission Control Protocol, Src Port: 59658 (59658), Dst Port: 853 (853), Seq: 0, Len: 0" size="40" pos="34">
    <field name="tcp.srcport" showname="Source port: 59658 (59658)" size="2" pos="34" show="59658" value="e90a"/>
    <field name="tcp.dstport" showname="Destination port: 853 (853)" size="2" pos="36" show="853" value="0355"/>
    <field name="tcp.port" showname="Source or Destination Port: 59658" hide="yes" size="2" pos="34" show="59658" value="e90a"/>
    <field name="tcp.port" showname="Source or Destination Port: 853" hide="yes" size="2" pos="36" show="853" value="0355"/>
    <field name="tcp.stream" showname="Stream index: 0" size="0" pos="34" show="0"/>
    <field name="tcp.len" showname="TCP Segment Len: 0" hide="yes" size="1" pos="46" show="0" value="a0"/>
    <field name="tcp.seq" showname="Sequence number: 0    (relative sequence number)" size="4" pos="38" show="0" value="6360ad01"/>
    <field name="tcp.hdr_len" showname="Header length: 40 bytes" size="1" pos="46" show="40" value="a0"/>
    <field name="tcp.flags" showname="Flags: 0x002 (SYN)" size="2" pos="46" show="2" value="2" unmaskedvalue="a002">
      <field name="tcp.flags.res" showname="000. .... .... = Reserved: Not set" size="1" pos="46" show="0" value="0" unmaskedvalue="a0"/>
      <field name="tcp.flags.ns" showname="...0 .... .... = Nonce: Not set" size="1" pos="46" show="0" value="0" unmaskedvalue="a0"/>
      <field name="tcp.flags.cwr" showname=".... 0... .... = Congestion Window Reduced (CWR): Not set" size="1" pos="47" show="0" value="0" unmaskedvalue="02"/>
      <field name="tcp.flags.ecn" showname=".... .0.. .... = ECN-Echo: Not set" size="1" pos="47" show="0" value="0" unmaskedvalue="02"/>
      <field name="tcp.flags.urg" showname=".... ..0. .... = Urgent: Not set" size="1" pos="47" show="0" value="0" unmaskedvalue="02"/>
      <field name="tcp.flags.ack" showname=".... ...0 .... = Acknowledgment: Not set" size="1" pos="47" show="0" value="0" unmaskedvalue="02"/>
      <field name="tcp.flags.push" showname=".... .... 0... = Push: Not set" size="1" pos="47" show="0" value="0" unmaskedvalue="02"/>
      <field name="tcp.flags.reset" showname=".... .... .0.. = Reset: Not set" size="1" pos="47" show="0" value="0" unmaskedvalue="02"/>
      <field name="tcp.flags.syn" showname=".... .... ..1. = Syn: Set" size="1" pos="47" show="1" value="1" unmaskedvalue="02">
        <field name="expert" showname="Expert Info (Chat/Sequence): Connection establish request (SYN): server port 853" size="0" pos="47">
          <field name="expert.message" showname="Message: Connection establish request (SYN): server port 853" size="0" pos="0" show="Connection establish request (SYN): server port 853"/>
          <field name="expert.severity" showname="Severity level: Chat" size="0" pos="0" show="2097152"/>
          <field name="expert.group" showname="Group: Sequence" size="0" pos="0" show="33554432"/>
        </field>
      </field>
      <field name="tcp.flags.fin" showname=".... .... ...0 = Fin: Not set" size="1" pos="47" show="0" value="0" unmaskedvalue="02"/>
    </field>
    <field name="tcp.window_size_value" showname="Window size value: 29200" size="2" pos="48" show="29200" value="7210"/>
    <field name="tcp.window_size" showname="Calculated window size: 29200" size="2" pos="48" show="29200" value="7210"/>
    <field name="tcp.checksum" showname="Checksum: 0xae43 [validation disabled]" size="2" pos="50" show="44611" value="ae43">
      <field name="tcp.checksum_good" showname="Good Checksum: False" size="2" pos="50" show="0" value="ae43"/>
      <field name="tcp.checksum_bad" showname="Bad Checksum: False" size="2" pos="50" show="0" value="ae43"/>
    </field>
    <field name="tcp.options" showname="Options: (20 bytes), Maximum segment size, SACK permitted, Timestamps, No-Operation (NOP), Window scale" size="20" pos="54" show="02:04:05:b4:04:02:08:0a:9b:12:69:08:00:00:00:00:01:03:03:07" value="020405b40402080a9b1269080000000001030307">
      <field name="tcp.options.mss" showname="Maximum segment size: 1460 bytes" size="4" pos="54" show="" value="">
        <field name="tcp.option_kind" showname="Kind: MSS size (2)" size="1" pos="54" show="2" value="02"/>
        <field name="tcp.option_len" showname="Length: 4" size="1" pos="55" show="4" value="04"/>
        <field name="tcp.options.mss_val" showname="MSS Value: 1460" size="2" pos="56" show="1460" value="05b4"/>
      </field>
      <field name="tcp.options.sack_perm" showname="TCP SACK Permitted Option: True" size="2" pos="58" show="1" value="0402">
        <field name="tcp.option_kind" showname="Kind: SACK Permission (4)" size="1" pos="58" show="4" value="04"/>
        <field name="tcp.option_len" showname="Length: 2" size="1" pos="59" show="2" value="02"/>
      </field>
      <field name="" show="Timestamps: TSval 2601675016, TSecr 0" size="10" pos="60" value="080a9b12690800000000">
        <field name="tcp.option_kind" showname="Kind: Timestamp (8)" size="1" pos="60" show="8" value="08"/>
        <field name="tcp.option_len" showname="Length: 10" size="1" pos="61" show="10" value="0a"/>
        <field name="tcp.options.timestamp.tsval" showname="Timestamp value: 2601675016" size="4" pos="62" show="2601675016" value="9b126908"/>
        <field name="tcp.options.timestamp.tsecr" showname="Timestamp echo reply: 0" size="4" pos="66" show="0" value="00000000"/>
      </field>
      <field name="" show="No-Operation (NOP)" size="1" pos="70" value="01">
        <field name="tcp.options.type" showname="Type: 1" size="1" pos="70" show="1" value="01">
          <field name="tcp.options.type.copy" showname="0... .... = Copy on fragmentation: No" size="1" pos="70" show="0" value="0" unmaskedvalue="01"/>
          <field name="tcp.options.type.class" showname=".00. .... = Class: Control (0)" size="1" pos="70" show="0" value="0" unmaskedvalue="01"/>
          <field name="tcp.options.type.number" showname="...0 0001 = Number: No-Operation (NOP) (1)" size="1" pos="70" show="1" value="1" unmaskedvalue="01"/>
        </field>
      </field>
      <field name="" show="Window scale: 7 (multiply by 128)" size="3" pos="71" value="030307">
        <field name="tcp.option_kind" showname="Kind: Window Scale (3)" size="1" pos="71" show="3" value="03"/>
        <field name="tcp.option_len" showname="Length: 3" size="1" pos="72" show="3" value="03"/>
        <field name="tcp.options.wscale.shift" showname="Shift count: 7" size="1" pos="73" show="7" value="07"/>
        <field name="tcp.options.wscale.multiplier" showname="Multiplier: 128" size="1" pos="73" show="128" value="07"/>
      </field>
    </field>
  </proto>
</packet>


<packet>
  <proto name="geninfo" pos="0" showname="General information" size="66">
    <field name="num" pos="0" show="2" showname="Number" value="2" size="66"/>
    <field name="len" pos="0" show="66" showname="Frame Length" value="42" size="66"/>
    <field name="caplen" pos="0" show="66" showname="Captured Length" value="42" size="66"/>
    <field name="timestamp" pos="0" show="Jun 27, 2019 12:20:57.205104000 CEST" showname="Captured Time" value="1561630857.205104000" size="66"/>
  </proto>
  <proto name="frame" showname="Frame 2: 66 bytes on wire (528 bits), 66 bytes captured (528 bits) on interface 0" size="66" pos="0">
    <field name="frame.interface_id" showname="Interface id: 0" size="0" pos="0" show="0"/>
    <field name="frame.encap_type" showname="Encapsulation type: Ethernet (1)" size="0" pos="0" show="1"/>
    <field name="frame.time" showname="Arrival Time: Jun 27, 2019 12:20:57.205104000 CEST" size="0" pos="0" show="&quot;Jun 27, 2019 12:20:57.205104000 CEST&quot;"/>
    <field name="frame.offset_shift" showname="Time shift for this packet: 0.000000000 seconds" size="0" pos="0" show="0.000000000"/>
    <field name="frame.time_epoch" showname="Epoch Time: 1561630857.205104000 seconds" size="0" pos="0" show="1561630857.205104000"/>
    <field name="frame.time_delta" showname="Time delta from previous captured frame: 0.003697000 seconds" size="0" pos="0" show="0.003697000"/>
    <field name="frame.time_delta_displayed" showname="Time delta from previous displayed frame: 0.003697000 seconds" size="0" pos="0" show="0.003697000"/>
    <field name="frame.time_relative" showname="Time since reference or first frame: 0.003697000 seconds" size="0" pos="0" show="0.003697000"/>
    <field name="frame.number" showname="Frame Number: 2" size="0" pos="0" show="2"/>
    <field name="frame.len" showname="Frame Length: 66 bytes (528 bits)" size="0" pos="0" show="66"/>
    <field name="frame.cap_len" showname="Capture Length: 66 bytes (528 bits)" size="0" pos="0" show="66"/>
    <field name="frame.marked" showname="Frame is marked: False" size="0" pos="0" show="0"/>
    <field name="frame.ignored" showname="Frame is ignored: False" size="0" pos="0" show="0"/>
    <field name="frame.protocols" showname="Protocols in frame: eth:ip:tcp" size="0" pos="0" show="eth:ip:tcp"/>
  </proto>
  <proto name="eth" showname="Ethernet II, Src: 02:42:71:12:56:af (02:42:71:12:56:af), Dst: 02:42:ac:11:00:02 (02:42:ac:11:00:02)" size="14" pos="0">
    <field name="eth.dst" showname="Destination: 02:42:ac:11:00:02 (02:42:ac:11:00:02)" size="6" pos="0" show="02:42:ac:11:00:02" value="0242ac110002">
      <field name="eth.addr" showname="Address: 02:42:ac:11:00:02 (02:42:ac:11:00:02)" size="6" pos="0" show="02:42:ac:11:00:02" value="0242ac110002"/>
      <field name="eth.lg" showname=".... ..1. .... .... .... .... = LG bit: Locally administered address (this is NOT the factory default)" size="3" pos="0" show="1" value="1" unmaskedvalue="0242ac"/>
      <field name="eth.ig" showname=".... ...0 .... .... .... .... = IG bit: Individual address (unicast)" size="3" pos="0" show="0" value="0" unmaskedvalue="0242ac"/>
    </field>
    <field name="eth.src" showname="Source: 02:42:71:12:56:af (02:42:71:12:56:af)" size="6" pos="6" show="02:42:71:12:56:af" value="0242711256af">
      <field name="eth.addr" showname="Address: 02:42:71:12:56:af (02:42:71:12:56:af)" size="6" pos="6" show="02:42:71:12:56:af" value="0242711256af"/>
      <field name="eth.lg" showname=".... ..1. .... .... .... .... = LG bit: Locally administered address (this is NOT the factory default)" size="3" pos="6" show="1" value="1" unmaskedvalue="024271"/>
      <field name="eth.ig" showname=".... ...0 .... .... .... .... = IG bit: Individual address (unicast)" size="3" pos="6" show="0" value="0" unmaskedvalue="024271"/>
    </field>
    <field name="eth.type" showname="Type: IP (0x0800)" size="2" pos="12" show="2048" value="0800"/>
  </proto>
  <proto name="ip" showname="Internet Protocol Version 4, Src: 1.1.1.1 (1.1.1.1), Dst: 172.17.0.2 (172.17.0.2)" size="20" pos="14">
    <field name="ip.version" showname="Version: 4" size="1" pos="14" show="4" value="45"/>
    <field name="ip.hdr_len" showname="Header length: 20 bytes" size="1" pos="14" show="20" value="45"/>
    <field name="ip.dsfield" showname="Differentiated Services Field: 0x00 (DSCP 0x00: Default; ECN: 0x00: Not-ECT (Not ECN-Capable Transport))" size="1" pos="15" show="0" value="00">
      <field name="ip.dsfield.dscp" showname="0000 00.. = Differentiated Services Codepoint: Default (0x00)" size="1" pos="15" show="0" value="0" unmaskedvalue="00"/>
      <field name="ip.dsfield.ecn" showname=".... ..00 = Explicit Congestion Notification: Not-ECT (Not ECN-Capable Transport) (0x00)" size="1" pos="15" show="0" value="0" unmaskedvalue="00"/>
    </field>
    <field name="ip.len" showname="Total Length: 52" size="2" pos="16" show="52" value="0034"/>
    <field name="ip.id" showname="Identification: 0x0000 (0)" size="2" pos="18" show="0" value="0000"/>
    <field name="ip.flags" showname="Flags: 0x02 (Don&apos;t Fragment)" size="1" pos="20" show="2" value="40">
      <field name="ip.flags.rb" showname="0... .... = Reserved bit: Not set" size="1" pos="20" show="0" value="40"/>
      <field name="ip.flags.df" showname=".1.. .... = Don&apos;t fragment: Set" size="1" pos="20" show="1" value="40"/>
      <field name="ip.flags.mf" showname="..0. .... = More fragments: Not set" size="1" pos="20" show="0" value="40"/>
    </field>
    <field name="ip.frag_offset" showname="Fragment offset: 0" size="2" pos="20" show="0" value="4000"/>
    <field name="ip.ttl" showname="Time to live: 57" size="1" pos="22" show="57" value="39"/>
    <field name="ip.proto" showname="Protocol: TCP (6)" size="1" pos="23" show="6" value="06"/>
    <field name="ip.checksum" showname="Header checksum: 0x93af [validation disabled]" size="2" pos="24" show="37807" value="93af">
      <field name="ip.checksum_good" showname="Good: False" size="2" pos="24" show="0" value="93af"/>
      <field name="ip.checksum_bad" showname="Bad: False" size="2" pos="24" show="0" value="93af"/>
    </field>
    <field name="ip.src" showname="Source: 1.1.1.1 (1.1.1.1)" size="4" pos="26" show="1.1.1.1" value="01010101"/>
    <field name="ip.addr" showname="Source or Destination Address: 1.1.1.1 (1.1.1.1)" hide="yes" size="4" pos="26" show="1.1.1.1" value="01010101"/>
    <field name="ip.src_host" showname="Source Host: 1.1.1.1" hide="yes" size="4" pos="26" show="1.1.1.1" value="01010101"/>
    <field name="ip.host" showname="Source or Destination Host: 1.1.1.1" hide="yes" size="4" pos="26" show="1.1.1.1" value="01010101"/>
    <field name="ip.dst" showname="Destination: 172.17.0.2 (172.17.0.2)" size="4" pos="30" show="172.17.0.2" value="ac110002"/>
    <field name="ip.addr" showname="Source or Destination Address: 172.17.0.2 (172.17.0.2)" hide="yes" size="4" pos="30" show="172.17.0.2" value="ac110002"/>
    <field name="ip.dst_host" showname="Destination Host: 172.17.0.2" hide="yes" size="4" pos="30" show="172.17.0.2" value="ac110002"/>
    <field name="ip.host" showname="Source or Destination Host: 172.17.0.2" hide="yes" size="4" pos="30" show="172.17.0.2" value="ac110002"/>
  </proto>
  <proto name="tcp" showname="Transmission Control Protocol, Src Port: 853 (853), Dst Port: 59658 (59658), Seq: 0, Ack: 1, Len: 0" size="32" pos="34">
    <field name="tcp.srcport" showname="Source port: 853 (853)" size="2" pos="34" show="853" value="0355"/>
    <field name="tcp.dstport" showname="Destination port: 59658 (59658)" size="2" pos="36" show="59658" value="e90a"/>
    <field name="tcp.port" showname="Source or Destination Port: 853" hide="yes" size="2" pos="34" show="853" value="0355"/>
    <field name="tcp.port" showname="Source or Destination Port: 59658" hide="yes" size="2" pos="36" show="59658" value="e90a"/>
    <field name="tcp.stream" showname="Stream index: 0" size="0" pos="34" show="0"/>
    <field name="tcp.len" showname="TCP Segment Len: 0" hide="yes" size="1" pos="46" show="0" value="80"/>
    <field name="tcp.seq" showname="Sequence number: 0    (relative sequence number)" size="4" pos="38" show="0" value="7d3d926c"/>
    <field name="tcp.ack" showname="Acknowledgment number: 1    (relative ack number)" size="4" pos="42" show="1" value="6360ad02"/>
    <field name="tcp.hdr_len" showname="Header length: 32 bytes" size="1" pos="46" show="32" value="80"/>
    <field name="tcp.flags" showname="Flags: 0x012 (SYN, ACK)" size="2" pos="46" show="18" value="12" unmaskedvalue="8012">
      <field name="tcp.flags.res" showname="000. .... .... = Reserved: Not set" size="1" pos="46" show="0" value="0" unmaskedvalue="80"/>
      <field name="tcp.flags.ns" showname="...0 .... .... = Nonce: Not set" size="1" pos="46" show="0" value="0" unmaskedvalue="80"/>
      <field name="tcp.flags.cwr" showname=".... 0... .... = Congestion Window Reduced (CWR): Not set" size="1" pos="47" show="0" value="0" unmaskedvalue="12"/>
      <field name="tcp.flags.ecn" showname=".... .0.. .... = ECN-Echo: Not set" size="1" pos="47" show="0" value="0" unmaskedvalue="12"/>
      <field name="tcp.flags.urg" showname=".... ..0. .... = Urgent: Not set" size="1" pos="47" show="0" value="0" unmaskedvalue="12"/>
      <field name="tcp.flags.ack" showname=".... ...1 .... = Acknowledgment: Set" size="1" pos="47" show="1" value="1" unmaskedvalue="12"/>
      <field name="tcp.flags.push" showname=".... .... 0... = Push: Not set" size="1" pos="47" show="0" value="0" unmaskedvalue="12"/>
      <field name="tcp.flags.reset" showname=".... .... .0.. = Reset: Not set" size="1" pos="47" show="0" value="0" unmaskedvalue="12"/>
      <field name="tcp.flags.syn" showname=".... .... ..1. = Syn: Set" size="1" pos="47" show="1" value="1" unmaskedvalue="12">
        <field name="expert" showname="Expert Info (Chat/Sequence): Connection establish acknowledge (SYN+ACK): server port 853" size="0" pos="47">
          <field name="expert.message" showname="Message: Connection establish acknowledge (SYN+ACK): server port 853" size="0" pos="0" show="Connection establish acknowledge (SYN+ACK): server port 853"/>
          <field name="expert.severity" showname="Severity level: Chat" size="0" pos="0" show="2097152"/>
          <field name="expert.group" showname="Group: Sequence" size="0" pos="0" show="33554432"/>
        </field>
      </field>
      <field name="tcp.flags.fin" showname=".... .... ...0 = Fin: Not set" size="1" pos="47" show="0" value="0" unmaskedvalue="12"/>
    </field>
    <field name="tcp.window_size_value" showname="Window size value: 29200" size="2" pos="48" show="29200" value="7210"/>
    <field name="tcp.window_size" showname="Calculated window size: 29200" size="2" pos="48" show="29200" value="7210"/>
    <field name="tcp.checksum" showname="Checksum: 0x426c [validation disabled]" size="2" pos="50" show="17004" value="426c">
      <field name="tcp.checksum_good" showname="Good Checksum: False" size="2" pos="50" show="0" value="426c"/>
      <field name="tcp.checksum_bad" showname="Bad Checksum: False" size="2" pos="50" show="0" value="426c"/>
    </field>
    <field name="tcp.options" showname="Options: (12 bytes), Maximum segment size, No-Operation (NOP), No-Operation (NOP), SACK permitted, No-Operation (NOP), Window scale" size="12" pos="54" show="02:04:05:b4:01:01:04:02:01:03:03:0a" value="020405b4010104020103030a">
      <field name="tcp.options.mss" showname="Maximum segment size: 1460 bytes" size="4" pos="54" show="" value="">
        <field name="tcp.option_kind" showname="Kind: MSS size (2)" size="1" pos="54" show="2" value="02"/>
        <field name="tcp.option_len" showname="Length: 4" size="1" pos="55" show="4" value="04"/>
        <field name="tcp.options.mss_val" showname="MSS Value: 1460" size="2" pos="56" show="1460" value="05b4"/>
      </field>
      <field name="" show="No-Operation (NOP)" size="1" pos="58" value="01">
        <field name="tcp.options.type" showname="Type: 1" size="1" pos="58" show="1" value="01">
          <field name="tcp.options.type.copy" showname="0... .... = Copy on fragmentation: No" size="1" pos="58" show="0" value="0" unmaskedvalue="01"/>
          <field name="tcp.options.type.class" showname=".00. .... = Class: Control (0)" size="1" pos="58" show="0" value="0" unmaskedvalue="01"/>
          <field name="tcp.options.type.number" showname="...0 0001 = Number: No-Operation (NOP) (1)" size="1" pos="58" show="1" value="1" unmaskedvalue="01"/>
        </field>
      </field>
      <field name="" show="No-Operation (NOP)" size="1" pos="59" value="01">
        <field name="tcp.options.type" showname="Type: 1" size="1" pos="59" show="1" value="01">
          <field name="tcp.options.type.copy" showname="0... .... = Copy on fragmentation: No" size="1" pos="59" show="0" value="0" unmaskedvalue="01"/>
          <field name="tcp.options.type.class" showname=".00. .... = Class: Control (0)" size="1" pos="59" show="0" value="0" unmaskedvalue="01"/>
          <field name="tcp.options.type.number" showname="...0 0001 = Number: No-Operation (NOP) (1)" size="1" pos="59" show="1" value="1" unmaskedvalue="01"/>
        </field>
      </field>
      <field name="tcp.options.sack_perm" showname="TCP SACK Permitted Option: True" size="2" pos="60" show="1" value="0402">
        <field name="tcp.option_kind" showname="Kind: SACK Permission (4)" size="1" pos="60" show="4" value="04"/>
        <field name="tcp.option_len" showname="Length: 2" size="1" pos="61" show="2" value="02"/>
      </field>
      <field name="" show="No-Operation (NOP)" size="1" pos="62" value="01">
        <field name="tcp.options.type" showname="Type: 1" size="1" pos="62" show="1" value="01">
          <field name="tcp.options.type.copy" showname="0... .... = Copy on fragmentation: No" size="1" pos="62" show="0" value="0" unmaskedvalue="01"/>
          <field name="tcp.options.type.class" showname=".00. .... = Class: Control (0)" size="1" pos="62" show="0" value="0" unmaskedvalue="01"/>
          <field name="tcp.options.type.number" showname="...0 0001 = Number: No-Operation (NOP) (1)" size="1" pos="62" show="1" value="1" unmaskedvalue="01"/>
        </field>
      </field>
      <field name="" show="Window scale: 10 (multiply by 1024)" size="3" pos="63" value="03030a">
        <field name="tcp.option_kind" showname="Kind: Window Scale (3)" size="1" pos="63" show="3" value="03"/>
        <field name="tcp.option_len" showname="Length: 3" size="1" pos="64" show="3" value="03"/>
        <field name="tcp.options.wscale.shift" showname="Shift count: 10" size="1" pos="65" show="10" value="0a"/>
        <field name="tcp.options.wscale.multiplier" showname="Multiplier: 1024" size="1" pos="65" show="1024" value="0a"/>
      </field>
    </field>
    <field name="tcp.analysis" showname="SEQ/ACK analysis" size="0" pos="34" show="" value="">
      <field name="tcp.analysis.acks_frame" showname="This is an ACK to the segment in frame: 1" size="0" pos="34" show="1"/>
      <field name="tcp.analysis.ack_rtt" showname="The RTT to ACK the segment was: 0.003697000 seconds" size="0" pos="34" show="0.003697000"/>
    </field>
  </proto>
</packet>


<packet>
  <proto name="geninfo" pos="0" showname="General information" size="54">
    <field name="num" pos="0" show="3" showname="Number" value="3" size="54"/>
    <field name="len" pos="0" show="54" showname="Frame Length" value="36" size="54"/>
    <field name="caplen" pos="0" show="54" showname="Captured Length" value="36" size="54"/>
    <field name="timestamp" pos="0" show="Jun 27, 2019 12:20:57.205150000 CEST" showname="Captured Time" value="1561630857.205150000" size="54"/>
  </proto>
  <proto name="frame" showname="Frame 3: 54 bytes on wire (432 bits), 54 bytes captured (432 bits) on interface 0" size="54" pos="0">
    <field name="frame.interface_id" showname="Interface id: 0" size="0" pos="0" show="0"/>
    <field name="frame.encap_type" showname="Encapsulation type: Ethernet (1)" size="0" pos="0" show="1"/>
    <field name="frame.time" showname="Arrival Time: Jun 27, 2019 12:20:57.205150000 CEST" size="0" pos="0" show="&quot;Jun 27, 2019 12:20:57.205150000 CEST&quot;"/>
    <field name="frame.offset_shift" showname="Time shift for this packet: 0.000000000 seconds" size="0" pos="0" show="0.000000000"/>
    <field name="frame.time_epoch" showname="Epoch Time: 1561630857.205150000 seconds" size="0" pos="0" show="1561630857.205150000"/>
    <field name="frame.time_delta" showname="Time delta from previous captured frame: 0.000046000 seconds" size="0" pos="0" show="0.000046000"/>
    <field name="frame.time_delta_displayed" showname="Time delta from previous displayed frame: 0.000046000 seconds" size="0" pos="0" show="0.000046000"/>
    <field name="frame.time_relative" showname="Time since reference or first frame: 0.003743000 seconds" size="0" pos="0" show="0.003743000"/>
    <field name="frame.number" showname="Frame Number: 3" size="0" pos="0" show="3"/>
    <field name="frame.len" showname="Frame Length: 54 bytes (432 bits)" size="0" pos="0" show="54"/>
    <field name="frame.cap_len" showname="Capture Length: 54 bytes (432 bits)" size="0" pos="0" show="54"/>
    <field name="frame.marked" showname="Frame is marked: False" size="0" pos="0" show="0"/>
    <field name="frame.ignored" showname="Frame is ignored: False" size="0" pos="0" show="0"/>
    <field name="frame.protocols" showname="Protocols in frame: eth:ip:tcp" size="0" pos="0" show="eth:ip:tcp"/>
  </proto>
  <proto name="eth" showname="Ethernet II, Src: 02:42:ac:11:00:02 (02:42:ac:11:00:02), Dst: 02:42:71:12:56:af (02:42:71:12:56:af)" size="14" pos="0">
    <field name="eth.dst" showname="Destination: 02:42:71:12:56:af (02:42:71:12:56:af)" size="6" pos="0" show="02:42:71:12:56:af" value="0242711256af">
      <field name="eth.addr" showname="Address: 02:42:71:12:56:af (02:42:71:12:56:af)" size="6" pos="0" show="02:42:71:12:56:af" value="0242711256af"/>
      <field name="eth.lg" showname=".... ..1. .... .... .... .... = LG bit: Locally administered address (this is NOT the factory default)" size="3" pos="0" show="1" value="1" unmaskedvalue="024271"/>
      <field name="eth.ig" showname=".... ...0 .... .... .... .... = IG bit: Individual address (unicast)" size="3" pos="0" show="0" value="0" unmaskedvalue="024271"/>
    </field>
    <field name="eth.src" showname="Source: 02:42:ac:11:00:02 (02:42:ac:11:00:02)" size="6" pos="6" show="02:42:ac:11:00:02" value="0242ac110002">
      <field name="eth.addr" showname="Address: 02:42:ac:11:00:02 (02:42:ac:11:00:02)" size="6" pos="6" show="02:42:ac:11:00:02" value="0242ac110002"/>
      <field name="eth.lg" showname=".... ..1. .... .... .... .... = LG bit: Locally administered address (this is NOT the factory default)" size="3" pos="6" show="1" value="1" unmaskedvalue="0242ac"/>
      <field name="eth.ig" showname=".... ...0 .... .... .... .... = IG bit: Individual address (unicast)" size="3" pos="6" show="0" value="0" unmaskedvalue="0242ac"/>
    </field>
    <field name="eth.type" showname="Type: IP (0x0800)" size="2" pos="12" show="2048" value="0800"/>
  </proto>
  <proto name="ip" showname="Internet Protocol Version 4, Src: 172.17.0.2 (172.17.0.2), Dst: 1.1.1.1 (1.1.1.1)" size="20" pos="14">
    <field name="ip.version" showname="Version: 4" size="1" pos="14" show="4" value="45"/>
    <field name="ip.hdr_len" showname="Header length: 20 bytes" size="1" pos="14" show="20" value="45"/>
    <field name="ip.dsfield" showname="Differentiated Services Field: 0x00 (DSCP 0x00: Default; ECN: 0x00: Not-ECT (Not ECN-Capable Transport))" size="1" pos="15" show="0" value="00">
      <field name="ip.dsfield.dscp" showname="0000 00.. = Differentiated Services Codepoint: Default (0x00)" size="1" pos="15" show="0" value="0" unmaskedvalue="00"/>
      <field name="ip.dsfield.ecn" showname=".... ..00 = Explicit Congestion Notification: Not-ECT (Not ECN-Capable Transport) (0x00)" size="1" pos="15" show="0" value="0" unmaskedvalue="00"/>
    </field>
    <field name="ip.len" showname="Total Length: 40" size="2" pos="16" show="40" value="0028"/>
    <field name="ip.id" showname="Identification: 0xc40a (50186)" size="2" pos="18" show="50186" value="c40a"/>
    <field name="ip.flags" showname="Flags: 0x02 (Don&apos;t Fragment)" size="1" pos="20" show="2" value="40">
      <field name="ip.flags.rb" showname="0... .... = Reserved bit: Not set" size="1" pos="20" show="0" value="40"/>
      <field name="ip.flags.df" showname=".1.. .... = Don&apos;t fragment: Set" size="1" pos="20" show="1" value="40"/>
      <field name="ip.flags.mf" showname="..0. .... = More fragments: Not set" size="1" pos="20" show="0" value="40"/>
    </field>
    <field name="ip.frag_offset" showname="Fragment offset: 0" size="2" pos="20" show="0" value="4000"/>
    <field name="ip.ttl" showname="Time to live: 64" size="1" pos="22" show="64" value="40"/>
    <field name="ip.proto" showname="Protocol: TCP (6)" size="1" pos="23" show="6" value="06"/>
    <field name="ip.checksum" showname="Header checksum: 0xc8b0 [validation disabled]" size="2" pos="24" show="51376" value="c8b0">
      <field name="ip.checksum_good" showname="Good: False" size="2" pos="24" show="0" value="c8b0"/>
      <field name="ip.checksum_bad" showname="Bad: False" size="2" pos="24" show="0" value="c8b0"/>
    </field>
    <field name="ip.src" showname="Source: 172.17.0.2 (172.17.0.2)" size="4" pos="26" show="172.17.0.2" value="ac110002"/>
    <field name="ip.addr" showname="Source or Destination Address: 172.17.0.2 (172.17.0.2)" hide="yes" size="4" pos="26" show="172.17.0.2" value="ac110002"/>
    <field name="ip.src_host" showname="Source Host: 172.17.0.2" hide="yes" size="4" pos="26" show="172.17.0.2" value="ac110002"/>
    <field name="ip.host" showname="Source or Destination Host: 172.17.0.2" hide="yes" size="4" pos="26" show="172.17.0.2" value="ac110002"/>
    <field name="ip.dst" showname="Destination: 1.1.1.1 (1.1.1.1)" size="4" pos="30" show="1.1.1.1" value="01010101"/>
    <field name="ip.addr" showname="Source or Destination Address: 1.1.1.1 (1.1.1.1)" hide="yes" size="4" pos="30" show="1.1.1.1" value="01010101"/>
    <field name="ip.dst_host" showname="Destination Host: 1.1.1.1" hide="yes" size="4" pos="30" show="1.1.1.1" value="01010101"/>
    <field name="ip.host" showname="Source or Destination Host: 1.1.1.1" hide="yes" size="4" pos="30" show="1.1.1.1" value="01010101"/>
  </proto>
  <proto name="tcp" showname="Transmission Control Protocol, Src Port: 59658 (59658), Dst Port: 853 (853), Seq: 1, Ack: 1, Len: 0" size="20" pos="34">
    <field name="tcp.srcport" showname="Source port: 59658 (59658)" size="2" pos="34" show="59658" value="e90a"/>
    <field name="tcp.dstport" showname="Destination port: 853 (853)" size="2" pos="36" show="853" value="0355"/>
    <field name="tcp.port" showname="Source or Destination Port: 59658" hide="yes" size="2" pos="34" show="59658" value="e90a"/>
    <field name="tcp.port" showname="Source or Destination Port: 853" hide="yes" size="2" pos="36" show="853" value="0355"/>
    <field name="tcp.stream" showname="Stream index: 0" size="0" pos="34" show="0"/>
    <field name="tcp.len" showname="TCP Segment Len: 0" hide="yes" size="1" pos="46" show="0" value="50"/>
    <field name="tcp.seq" showname="Sequence number: 1    (relative sequence number)" size="4" pos="38" show="1" value="6360ad02"/>
    <field name="tcp.ack" showname="Acknowledgment number: 1    (relative ack number)" size="4" pos="42" show="1" value="7d3d926d"/>
    <field name="tcp.hdr_len" showname="Header length: 20 bytes" size="1" pos="46" show="20" value="50"/>
    <field name="tcp.flags" showname="Flags: 0x010 (ACK)" size="2" pos="46" show="16" value="10" unmaskedvalue="5010">
      <field name="tcp.flags.res" showname="000. .... .... = Reserved: Not set" size="1" pos="46" show="0" value="0" unmaskedvalue="50"/>
      <field name="tcp.flags.ns" showname="...0 .... .... = Nonce: Not set" size="1" pos="46" show="0" value="0" unmaskedvalue="50"/>
      <field name="tcp.flags.cwr" showname=".... 0... .... = Congestion Window Reduced (CWR): Not set" size="1" pos="47" show="0" value="0" unmaskedvalue="10"/>
      <field name="tcp.flags.ecn" showname=".... .0.. .... = ECN-Echo: Not set" size="1" pos="47" show="0" value="0" unmaskedvalue="10"/>
      <field name="tcp.flags.urg" showname=".... ..0. .... = Urgent: Not set" size="1" pos="47" show="0" value="0" unmaskedvalue="10"/>
      <field name="tcp.flags.ack" showname=".... ...1 .... = Acknowledgment: Set" size="1" pos="47" show="1" value="1" unmaskedvalue="10"/>
      <field name="tcp.flags.push" showname=".... .... 0... = Push: Not set" size="1" pos="47" show="0" value="0" unmaskedvalue="10"/>
      <field name="tcp.flags.reset" showname=".... .... .0.. = Reset: Not set" size="1" pos="47" show="0" value="0" unmaskedvalue="10"/>
      <field name="tcp.flags.syn" showname=".... .... ..0. = Syn: Not set" size="1" pos="47" show="0" value="0" unmaskedvalue="10"/>
      <field name="tcp.flags.fin" showname=".... .... ...0 = Fin: Not set" size="1" pos="47" show="0" value="0" unmaskedvalue="10"/>
    </field>
    <field name="tcp.window_size_value" showname="Window size value: 229" size="2" pos="48" show="229" value="00e5"/>
    <field name="tcp.window_size" showname="Calculated window size: 29312" size="2" pos="48" show="29312" value="00e5"/>
    <field name="tcp.window_size_scalefactor" showname="Window size scaling factor: 128" size="2" pos="48" show="128" value="00e5"/>
    <field name="tcp.checksum" showname="Checksum: 0xae2f [validation disabled]" size="2" pos="50" show="44591" value="ae2f">
      <field name="tcp.checksum_good" showname="Good Checksum: False" size="2" pos="50" show="0" value="ae2f"/>
      <field name="tcp.checksum_bad" showname="Bad Checksum: False" size="2" pos="50" show="0" value="ae2f"/>
    </field>
    <field name="tcp.analysis" showname="SEQ/ACK analysis" size="0" pos="34" show="" value="">
      <field name="tcp.analysis.acks_frame" showname="This is an ACK to the segment in frame: 2" size="0" pos="34" show="2"/>
      <field name="tcp.analysis.ack_rtt" showname="The RTT to ACK the segment was: 0.000046000 seconds" size="0" pos="34" show="0.000046000"/>
    </field>
  </proto>
</packet>


<packet>
  <proto name="geninfo" pos="0" showname="General information" size="391">
    <field name="num" pos="0" show="4" showname="Number" value="4" size="391"/>
    <field name="len" pos="0" show="391" showname="Frame Length" value="187" size="391"/>
    <field name="caplen" pos="0" show="391" showname="Captured Length" value="187" size="391"/>
    <field name="timestamp" pos="0" show="Jun 27, 2019 12:20:57.206000000 CEST" showname="Captured Time" value="1561630857.206000000" size="391"/>
  </proto>
  <proto name="frame" showname="Frame 4: 391 bytes on wire (3128 bits), 391 bytes captured (3128 bits) on interface 0" size="391" pos="0">
    <field name="frame.interface_id" showname="Interface id: 0" size="0" pos="0" show="0"/>
    <field name="frame.encap_type" showname="Encapsulation type: Ethernet (1)" size="0" pos="0" show="1"/>
    <field name="frame.time" showname="Arrival Time: Jun 27, 2019 12:20:57.206000000 CEST" size="0" pos="0" show="&quot;Jun 27, 2019 12:20:57.206000000 CEST&quot;"/>
    <field name="frame.offset_shift" showname="Time shift for this packet: 0.000000000 seconds" size="0" pos="0" show="0.000000000"/>
    <field name="frame.time_epoch" showname="Epoch Time: 1561630857.206000000 seconds" size="0" pos="0" show="1561630857.206000000"/>
    <field name="frame.time_delta" showname="Time delta from previous captured frame: 0.000850000 seconds" size="0" pos="0" show="0.000850000"/>
    <field name="frame.time_delta_displayed" showname="Time delta from previous displayed frame: 0.000850000 seconds" size="0" pos="0" show="0.000850000"/>
    <field name="frame.time_relative" showname="Time since reference or first frame: 0.004593000 seconds" size="0" pos="0" show="0.004593000"/>
    <field name="frame.number" showname="Frame Number: 4" size="0" pos="0" show="4"/>
    <field name="frame.len" showname="Frame Length: 391 bytes (3128 bits)" size="0" pos="0" show="391"/>
    <field name="frame.cap_len" showname="Capture Length: 391 bytes (3128 bits)" size="0" pos="0" show="391"/>
    <field name="frame.marked" showname="Frame is marked: False" size="0" pos="0" show="0"/>
    <field name="frame.ignored" showname="Frame is ignored: False" size="0" pos="0" show="0"/>
    <field name="frame.protocols" showname="Protocols in frame: eth:ip:tcp:data" size="0" pos="0" show="eth:ip:tcp:data"/>
  </proto>
  <proto name="eth" showname="Ethernet II, Src: 02:42:ac:11:00:02 (02:42:ac:11:00:02), Dst: 02:42:71:12:56:af (02:42:71:12:56:af)" size="14" pos="0">
    <field name="eth.dst" showname="Destination: 02:42:71:12:56:af (02:42:71:12:56:af)" size="6" pos="0" show="02:42:71:12:56:af" value="0242711256af">
      <field name="eth.addr" showname="Address: 02:42:71:12:56:af (02:42:71:12:56:af)" size="6" pos="0" show="02:42:71:12:56:af" value="0242711256af"/>
      <field name="eth.lg" showname=".... ..1. .... .... .... .... = LG bit: Locally administered address (this is NOT the factory default)" size="3" pos="0" show="1" value="1" unmaskedvalue="024271"/>
      <field name="eth.ig" showname=".... ...0 .... .... .... .... = IG bit: Individual address (unicast)" size="3" pos="0" show="0" value="0" unmaskedvalue="024271"/>
    </field>
    <field name="eth.src" showname="Source: 02:42:ac:11:00:02 (02:42:ac:11:00:02)" size="6" pos="6" show="02:42:ac:11:00:02" value="0242ac110002">
      <field name="eth.addr" showname="Address: 02:42:ac:11:00:02 (02:42:ac:11:00:02)" size="6" pos="6" show="02:42:ac:11:00:02" value="0242ac110002"/>
      <field name="eth.lg" showname=".... ..1. .... .... .... .... = LG bit: Locally administered address (this is NOT the factory default)" size="3" pos="6" show="1" value="1" unmaskedvalue="0242ac"/>
      <field name="eth.ig" showname=".... ...0 .... .... .... .... = IG bit: Individual address (unicast)" size="3" pos="6" show="0" value="0" unmaskedvalue="0242ac"/>
    </field>
    <field name="eth.type" showname="Type: IP (0x0800)" size="2" pos="12" show="2048" value="0800"/>
  </proto>
  <proto name="ip" showname="Internet Protocol Version 4, Src: 172.17.0.2 (172.17.0.2), Dst: 1.1.1.1 (1.1.1.1)" size="20" pos="14">
    <field name="ip.version" showname="Version: 4" size="1" pos="14" show="4" value="45"/>
    <field name="ip.hdr_len" showname="Header length: 20 bytes" size="1" pos="14" show="20" value="45"/>
    <field name="ip.dsfield" showname="Differentiated Services Field: 0x00 (DSCP 0x00: Default; ECN: 0x00: Not-ECT (Not ECN-Capable Transport))" size="1" pos="15" show="0" value="00">
      <field name="ip.dsfield.dscp" showname="0000 00.. = Differentiated Services Codepoint: Default (0x00)" size="1" pos="15" show="0" value="0" unmaskedvalue="00"/>
      <field name="ip.dsfield.ecn" showname=".... ..00 = Explicit Congestion Notification: Not-ECT (Not ECN-Capable Transport) (0x00)" size="1" pos="15" show="0" value="0" unmaskedvalue="00"/>
    </field>
    <field name="ip.len" showname="Total Length: 377" size="2" pos="16" show="377" value="0179"/>
    <field name="ip.id" showname="Identification: 0xc40b (50187)" size="2" pos="18" show="50187" value="c40b"/>
    <field name="ip.flags" showname="Flags: 0x02 (Don&apos;t Fragment)" size="1" pos="20" show="2" value="40">
      <field name="ip.flags.rb" showname="0... .... = Reserved bit: Not set" size="1" pos="20" show="0" value="40"/>
      <field name="ip.flags.df" showname=".1.. .... = Don&apos;t fragment: Set" size="1" pos="20" show="1" value="40"/>
      <field name="ip.flags.mf" showname="..0. .... = More fragments: Not set" size="1" pos="20" show="0" value="40"/>
    </field>
    <field name="ip.frag_offset" showname="Fragment offset: 0" size="2" pos="20" show="0" value="4000"/>
    <field name="ip.ttl" showname="Time to live: 64" size="1" pos="22" show="64" value="40"/>
    <field name="ip.proto" showname="Protocol: TCP (6)" size="1" pos="23" show="6" value="06"/>
    <field name="ip.checksum" showname="Header checksum: 0xc75e [validation disabled]" size="2" pos="24" show="51038" value="c75e">
      <field name="ip.checksum_good" showname="Good: False" size="2" pos="24" show="0" value="c75e"/>
      <field name="ip.checksum_bad" showname="Bad: False" size="2" pos="24" show="0" value="c75e"/>
    </field>
    <field name="ip.src" showname="Source: 172.17.0.2 (172.17.0.2)" size="4" pos="26" show="172.17.0.2" value="ac110002"/>
    <field name="ip.addr" showname="Source or Destination Address: 172.17.0.2 (172.17.0.2)" hide="yes" size="4" pos="26" show="172.17.0.2" value="ac110002"/>
    <field name="ip.src_host" showname="Source Host: 172.17.0.2" hide="yes" size="4" pos="26" show="172.17.0.2" value="ac110002"/>
    <field name="ip.host" showname="Source or Destination Host: 172.17.0.2" hide="yes" size="4" pos="26" show="172.17.0.2" value="ac110002"/>
    <field name="ip.dst" showname="Destination: 1.1.1.1 (1.1.1.1)" size="4" pos="30" show="1.1.1.1" value="01010101"/>
    <field name="ip.addr" showname="Source or Destination Address: 1.1.1.1 (1.1.1.1)" hide="yes" size="4" pos="30" show="1.1.1.1" value="01010101"/>
    <field name="ip.dst_host" showname="Destination Host: 1.1.1.1" hide="yes" size="4" pos="30" show="1.1.1.1" value="01010101"/>
    <field name="ip.host" showname="Source or Destination Host: 1.1.1.1" hide="yes" size="4" pos="30" show="1.1.1.1" value="01010101"/>
  </proto>
  <proto name="tcp" showname="Transmission Control Protocol, Src Port: 59658 (59658), Dst Port: 853 (853), Seq: 1, Ack: 1, Len: 337" size="20" pos="34">
    <field name="tcp.srcport" showname="Source port: 59658 (59658)" size="2" pos="34" show="59658" value="e90a"/>
    <field name="tcp.dstport" showname="Destination port: 853 (853)" size="2" pos="36" show="853" value="0355"/>
    <field name="tcp.port" showname="Source or Destination Port: 59658" hide="yes" size="2" pos="34" show="59658" value="e90a"/>
    <field name="tcp.port" showname="Source or Destination Port: 853" hide="yes" size="2" pos="36" show="853" value="0355"/>
    <field name="tcp.stream" showname="Stream index: 0" size="0" pos="34" show="0"/>
    <field name="tcp.len" showname="TCP Segment Len: 337" hide="yes" size="1" pos="46" show="337" value="50"/>
    <field name="tcp.seq" showname="Sequence number: 1    (relative sequence number)" size="4" pos="38" show="1" value="6360ad02"/>
    <field name="tcp.nxtseq" showname="Next sequence number: 338    (relative sequence number)" size="0" pos="34" show="338"/>
    <field name="tcp.ack" showname="Acknowledgment number: 1    (relative ack number)" size="4" pos="42" show="1" value="7d3d926d"/>
    <field name="tcp.hdr_len" showname="Header length: 20 bytes" size="1" pos="46" show="20" value="50"/>
    <field name="tcp.flags" showname="Flags: 0x018 (PSH, ACK)" size="2" pos="46" show="24" value="18" unmaskedvalue="5018">
      <field name="tcp.flags.res" showname="000. .... .... = Reserved: Not set" size="1" pos="46" show="0" value="0" unmaskedvalue="50"/>
      <field name="tcp.flags.ns" showname="...0 .... .... = Nonce: Not set" size="1" pos="46" show="0" value="0" unmaskedvalue="50"/>
      <field name="tcp.flags.cwr" showname=".... 0... .... = Congestion Window Reduced (CWR): Not set" size="1" pos="47" show="0" value="0" unmaskedvalue="18"/>
      <field name="tcp.flags.ecn" showname=".... .0.. .... = ECN-Echo: Not set" size="1" pos="47" show="0" value="0" unmaskedvalue="18"/>
      <field name="tcp.flags.urg" showname=".... ..0. .... = Urgent: Not set" size="1" pos="47" show="0" value="0" unmaskedvalue="18"/>
      <field name="tcp.flags.ack" showname=".... ...1 .... = Acknowledgment: Set" size="1" pos="47" show="1" value="1" unmaskedvalue="18"/>
      <field name="tcp.flags.push" showname=".... .... 1... = Push: Set" size="1" pos="47" show="1" value="1" unmaskedvalue="18"/>
      <field name="tcp.flags.reset" showname=".... .... .0.. = Reset: Not set" size="1" pos="47" show="0" value="0" unmaskedvalue="18"/>
      <field name="tcp.flags.syn" showname=".... .... ..0. = Syn: Not set" size="1" pos="47" show="0" value="0" unmaskedvalue="18"/>
      <field name="tcp.flags.fin" showname=".... .... ...0 = Fin: Not set" size="1" pos="47" show="0" value="0" unmaskedvalue="18"/>
    </field>
    <field name="tcp.window_size_value" showname="Window size value: 229" size="2" pos="48" show="229" value="00e5"/>
    <field name="tcp.window_size" showname="Calculated window size: 29312" size="2" pos="48" show="29312" value="00e5"/>
    <field name="tcp.window_size_scalefactor" showname="Window size scaling factor: 128" size="2" pos="48" show="128" value="00e5"/>
    <field name="tcp.checksum" showname="Checksum: 0xaf80 [validation disabled]" size="2" pos="50" show="44928" value="af80">
      <field name="tcp.checksum_good" showname="Good Checksum: False" size="2" pos="50" show="0" value="af80"/>
      <field name="tcp.checksum_bad" showname="Bad Checksum: False" size="2" pos="50" show="0" value="af80"/>
    </field>
    <field name="tcp.analysis" showname="SEQ/ACK analysis" size="0" pos="34" show="" value="">
      <field name="tcp.analysis.bytes_in_flight" showname="Bytes in flight: 337" size="0" pos="34" show="337"/>
    </field>
  </proto>
  <proto name="fake-field-wrapper">
    <field name="data" value="160301014c0100014803031078fe86cae45ea5d392a2cb44516ca8417d118cd24ae655a0f2d009655d644b00003a1302130313011304c02ccca9c0adc00ac02bc0acc009c030cca8c014c02fc013009dc09d0035009cc09c002f009fccaac09f0039009ec09e0033010000e5000500050100000000000a00140012001700180019001d01000101010201030104000b00020100000d0020001e040108090804040308070501080a080505030601080b08060603020102030016000000170000002300000033006b00690017004104b66a91557a1b758e16d506d79735a04095ec740fde7268bfd35362faa31fddefe948d93fb879db46fe87f98a09bca8f013dbd35be6ea4d5cc83bf33d97d8bc84001d002088586fbcfdf957a76c3ad3350ea683f4ebdb6332513b62dbbf61c260ad76d070002b0009080304030303020301ff01000100002d0003020100001c00024001">
      <field name="data.data" showname="Data: 160301014c0100014803031078fe86cae45ea5d392a2cb44..." size="337" pos="54" show="16:03:01:01:4c:01:00:01:48:03:03:10:78:fe:86:ca:e4:5e:a5:d3:92:a2:cb:44:51:6c:a8:41:7d:11:8c:d2:4a:e6:55:a0:f2:d0:09:65:5d:64:4b:00:00:3a:13:02:13:03:13:01:13:04:c0:2c:cc:a9:c0:ad:c0:0a:c0:2b:c0:ac:c0:09:c0:30:cc:a8:c0:14:c0:2f:c0:13:00:9d:c0:9d:00:35:00:9c:c0:9c:00:2f:00:9f:cc:aa:c0:9f:00:39:00:9e:c0:9e:00:33:01:00:00:e5:00:05:00:05:01:00:00:00:00:00:0a:00:14:00:12:00:17:00:18:00:19:00:1d:01:00:01:01:01:02:01:03:01:04:00:0b:00:02:01:00:00:0d:00:20:00:1e:04:01:08:09:08:04:04:03:08:07:05:01:08:0a:08:05:05:03:06:01:08:0b:08:06:06:03:02:01:02:03:00:16:00:00:00:17:00:00:00:23:00:00:00:33:00:6b:00:69:00:17:00:41:04:b6:6a:91:55:7a:1b:75:8e:16:d5:06:d7:97:35:a0:40:95:ec:74:0f:de:72:68:bf:d3:53:62:fa:a3:1f:dd:ef:e9:48:d9:3f:b8:79:db:46:fe:87:f9:8a:09:bc:a8:f0:13:db:d3:5b:e6:ea:4d:5c:c8:3b:f3:3d:97:d8:bc:84:00:1d:00:20:88:58:6f:bc:fd:f9:57:a7:6c:3a:d3:35:0e:a6:83:f4:eb:db:63:32:51:3b:62:db:bf:61:c2:60:ad:76:d0:70:00:2b:00:09:08:03:04:03:03:03:02:03:01:ff:01:00:01:00:00:2d:00:03:02:01:00:00:1c:00:02:40:01" value="160301014c0100014803031078fe86cae45ea5d392a2cb44516ca8417d118cd24ae655a0f2d009655d644b00003a1302130313011304c02ccca9c0adc00ac02bc0acc009c030cca8c014c02fc013009dc09d0035009cc09c002f009fccaac09f0039009ec09e0033010000e5000500050100000000000a00140012001700180019001d01000101010201030104000b00020100000d0020001e040108090804040308070501080a080505030601080b08060603020102030016000000170000002300000033006b00690017004104b66a91557a1b758e16d506d79735a04095ec740fde7268bfd35362faa31fddefe948d93fb879db46fe87f98a09bca8f013dbd35be6ea4d5cc83bf33d97d8bc84001d002088586fbcfdf957a76c3ad3350ea683f4ebdb6332513b62dbbf61c260ad76d070002b0009080304030303020301ff01000100002d0003020100001c00024001"/>
      <field name="data.len" showname="Length: 337" size="0" pos="54" show="337"/>
  </field>
</proto>
</packet>


<packet>
  <proto name="geninfo" pos="0" showname="General information" size="54">
    <field name="num" pos="0" show="5" showname="Number" value="5" size="54"/>
    <field name="len" pos="0" show="54" showname="Frame Length" value="36" size="54"/>
    <field name="caplen" pos="0" show="54" showname="Captured Length" value="36" size="54"/>
    <field name="timestamp" pos="0" show="Jun 27, 2019 12:20:57.209584000 CEST" showname="Captured Time" value="1561630857.209584000" size="54"/>
  </proto>
  <proto name="frame" showname="Frame 5: 54 bytes on wire (432 bits), 54 bytes captured (432 bits) on interface 0" size="54" pos="0">
    <field name="frame.interface_id" showname="Interface id: 0" size="0" pos="0" show="0"/>
    <field name="frame.encap_type" showname="Encapsulation type: Ethernet (1)" size="0" pos="0" show="1"/>
    <field name="frame.time" showname="Arrival Time: Jun 27, 2019 12:20:57.209584000 CEST" size="0" pos="0" show="&quot;Jun 27, 2019 12:20:57.209584000 CEST&quot;"/>
    <field name="frame.offset_shift" showname="Time shift for this packet: 0.000000000 seconds" size="0" pos="0" show="0.000000000"/>
    <field name="frame.time_epoch" showname="Epoch Time: 1561630857.209584000 seconds" size="0" pos="0" show="1561630857.209584000"/>
    <field name="frame.time_delta" showname="Time delta from previous captured frame: 0.003584000 seconds" size="0" pos="0" show="0.003584000"/>
    <field name="frame.time_delta_displayed" showname="Time delta from previous displayed frame: 0.003584000 seconds" size="0" pos="0" show="0.003584000"/>
    <field name="frame.time_relative" showname="Time since reference or first frame: 0.008177000 seconds" size="0" pos="0" show="0.008177000"/>
    <field name="frame.number" showname="Frame Number: 5" size="0" pos="0" show="5"/>
    <field name="frame.len" showname="Frame Length: 54 bytes (432 bits)" size="0" pos="0" show="54"/>
    <field name="frame.cap_len" showname="Capture Length: 54 bytes (432 bits)" size="0" pos="0" show="54"/>
    <field name="frame.marked" showname="Frame is marked: False" size="0" pos="0" show="0"/>
    <field name="frame.ignored" showname="Frame is ignored: False" size="0" pos="0" show="0"/>
    <field name="frame.protocols" showname="Protocols in frame: eth:ip:tcp" size="0" pos="0" show="eth:ip:tcp"/>
  </proto>
  <proto name="eth" showname="Ethernet II, Src: 02:42:71:12:56:af (02:42:71:12:56:af), Dst: 02:42:ac:11:00:02 (02:42:ac:11:00:02)" size="14" pos="0">
    <field name="eth.dst" showname="Destination: 02:42:ac:11:00:02 (02:42:ac:11:00:02)" size="6" pos="0" show="02:42:ac:11:00:02" value="0242ac110002">
      <field name="eth.addr" showname="Address: 02:42:ac:11:00:02 (02:42:ac:11:00:02)" size="6" pos="0" show="02:42:ac:11:00:02" value="0242ac110002"/>
      <field name="eth.lg" showname=".... ..1. .... .... .... .... = LG bit: Locally administered address (this is NOT the factory default)" size="3" pos="0" show="1" value="1" unmaskedvalue="0242ac"/>
      <field name="eth.ig" showname=".... ...0 .... .... .... .... = IG bit: Individual address (unicast)" size="3" pos="0" show="0" value="0" unmaskedvalue="0242ac"/>
    </field>
    <field name="eth.src" showname="Source: 02:42:71:12:56:af (02:42:71:12:56:af)" size="6" pos="6" show="02:42:71:12:56:af" value="0242711256af">
      <field name="eth.addr" showname="Address: 02:42:71:12:56:af (02:42:71:12:56:af)" size="6" pos="6" show="02:42:71:12:56:af" value="0242711256af"/>
      <field name="eth.lg" showname=".... ..1. .... .... .... .... = LG bit: Locally administered address (this is NOT the factory default)" size="3" pos="6" show="1" value="1" unmaskedvalue="024271"/>
      <field name="eth.ig" showname=".... ...0 .... .... .... .... = IG bit: Individual address (unicast)" size="3" pos="6" show="0" value="0" unmaskedvalue="024271"/>
    </field>
    <field name="eth.type" showname="Type: IP (0x0800)" size="2" pos="12" show="2048" value="0800"/>
  </proto>
  <proto name="ip" showname="Internet Protocol Version 4, Src: 1.1.1.1 (1.1.1.1), Dst: 172.17.0.2 (172.17.0.2)" size="20" pos="14">
    <field name="ip.version" showname="Version: 4" size="1" pos="14" show="4" value="45"/>
    <field name="ip.hdr_len" showname="Header length: 20 bytes" size="1" pos="14" show="20" value="45"/>
    <field name="ip.dsfield" showname="Differentiated Services Field: 0x00 (DSCP 0x00: Default; ECN: 0x00: Not-ECT (Not ECN-Capable Transport))" size="1" pos="15" show="0" value="00">
      <field name="ip.dsfield.dscp" showname="0000 00.. = Differentiated Services Codepoint: Default (0x00)" size="1" pos="15" show="0" value="0" unmaskedvalue="00"/>
      <field name="ip.dsfield.ecn" showname=".... ..00 = Explicit Congestion Notification: Not-ECT (Not ECN-Capable Transport) (0x00)" size="1" pos="15" show="0" value="0" unmaskedvalue="00"/>
    </field>
    <field name="ip.len" showname="Total Length: 40" size="2" pos="16" show="40" value="0028"/>
    <field name="ip.id" showname="Identification: 0x2def (11759)" size="2" pos="18" show="11759" value="2def"/>
    <field name="ip.flags" showname="Flags: 0x02 (Don&apos;t Fragment)" size="1" pos="20" show="2" value="40">
      <field name="ip.flags.rb" showname="0... .... = Reserved bit: Not set" size="1" pos="20" show="0" value="40"/>
      <field name="ip.flags.df" showname=".1.. .... = Don&apos;t fragment: Set" size="1" pos="20" show="1" value="40"/>
      <field name="ip.flags.mf" showname="..0. .... = More fragments: Not set" size="1" pos="20" show="0" value="40"/>
    </field>
    <field name="ip.frag_offset" showname="Fragment offset: 0" size="2" pos="20" show="0" value="4000"/>
    <field name="ip.ttl" showname="Time to live: 57" size="1" pos="22" show="57" value="39"/>
    <field name="ip.proto" showname="Protocol: TCP (6)" size="1" pos="23" show="6" value="06"/>
    <field name="ip.checksum" showname="Header checksum: 0x65cc [validation disabled]" size="2" pos="24" show="26060" value="65cc">
      <field name="ip.checksum_good" showname="Good: False" size="2" pos="24" show="0" value="65cc"/>
      <field name="ip.checksum_bad" showname="Bad: False" size="2" pos="24" show="0" value="65cc"/>
    </field>
    <field name="ip.src" showname="Source: 1.1.1.1 (1.1.1.1)" size="4" pos="26" show="1.1.1.1" value="01010101"/>
    <field name="ip.addr" showname="Source or Destination Address: 1.1.1.1 (1.1.1.1)" hide="yes" size="4" pos="26" show="1.1.1.1" value="01010101"/>
    <field name="ip.src_host" showname="Source Host: 1.1.1.1" hide="yes" size="4" pos="26" show="1.1.1.1" value="01010101"/>
    <field name="ip.host" showname="Source or Destination Host: 1.1.1.1" hide="yes" size="4" pos="26" show="1.1.1.1" value="01010101"/>
    <field name="ip.dst" showname="Destination: 172.17.0.2 (172.17.0.2)" size="4" pos="30" show="172.17.0.2" value="ac110002"/>
    <field name="ip.addr" showname="Source or Destination Address: 172.17.0.2 (172.17.0.2)" hide="yes" size="4" pos="30" show="172.17.0.2" value="ac110002"/>
    <field name="ip.dst_host" showname="Destination Host: 172.17.0.2" hide="yes" size="4" pos="30" show="172.17.0.2" value="ac110002"/>
    <field name="ip.host" showname="Source or Destination Host: 172.17.0.2" hide="yes" size="4" pos="30" show="172.17.0.2" value="ac110002"/>
  </proto>
  <proto name="tcp" showname="Transmission Control Protocol, Src Port: 853 (853), Dst Port: 59658 (59658), Seq: 1, Ack: 338, Len: 0" size="20" pos="34">
    <field name="tcp.srcport" showname="Source port: 853 (853)" size="2" pos="34" show="853" value="0355"/>
    <field name="tcp.dstport" showname="Destination port: 59658 (59658)" size="2" pos="36" show="59658" value="e90a"/>
    <field name="tcp.port" showname="Source or Destination Port: 853" hide="yes" size="2" pos="34" show="853" value="0355"/>
    <field name="tcp.port" showname="Source or Destination Port: 59658" hide="yes" size="2" pos="36" show="59658" value="e90a"/>
    <field name="tcp.stream" showname="Stream index: 0" size="0" pos="34" show="0"/>
    <field name="tcp.len" showname="TCP Segment Len: 0" hide="yes" size="1" pos="46" show="0" value="50"/>
    <field name="tcp.seq" showname="Sequence number: 1    (relative sequence number)" size="4" pos="38" show="1" value="7d3d926d"/>
    <field name="tcp.ack" showname="Acknowledgment number: 338    (relative ack number)" size="4" pos="42" show="338" value="6360ae53"/>
    <field name="tcp.hdr_len" showname="Header length: 20 bytes" size="1" pos="46" show="20" value="50"/>
    <field name="tcp.flags" showname="Flags: 0x010 (ACK)" size="2" pos="46" show="16" value="10" unmaskedvalue="5010">
      <field name="tcp.flags.res" showname="000. .... .... = Reserved: Not set" size="1" pos="46" show="0" value="0" unmaskedvalue="50"/>
      <field name="tcp.flags.ns" showname="...0 .... .... = Nonce: Not set" size="1" pos="46" show="0" value="0" unmaskedvalue="50"/>
      <field name="tcp.flags.cwr" showname=".... 0... .... = Congestion Window Reduced (CWR): Not set" size="1" pos="47" show="0" value="0" unmaskedvalue="10"/>
      <field name="tcp.flags.ecn" showname=".... .0.. .... = ECN-Echo: Not set" size="1" pos="47" show="0" value="0" unmaskedvalue="10"/>
      <field name="tcp.flags.urg" showname=".... ..0. .... = Urgent: Not set" size="1" pos="47" show="0" value="0" unmaskedvalue="10"/>
      <field name="tcp.flags.ack" showname=".... ...1 .... = Acknowledgment: Set" size="1" pos="47" show="1" value="1" unmaskedvalue="10"/>
      <field name="tcp.flags.push" showname=".... .... 0... = Push: Not set" size="1" pos="47" show="0" value="0" unmaskedvalue="10"/>
      <field name="tcp.flags.reset" showname=".... .... .0.. = Reset: Not set" size="1" pos="47" show="0" value="0" unmaskedvalue="10"/>
      <field name="tcp.flags.syn" showname=".... .... ..0. = Syn: Not set" size="1" pos="47" show="0" value="0" unmaskedvalue="10"/>
      <field name="tcp.flags.fin" showname=".... .... ...0 = Fin: Not set" size="1" pos="47" show="0" value="0" unmaskedvalue="10"/>
    </field>
    <field name="tcp.window_size_value" showname="Window size value: 30" size="2" pos="48" show="30" value="001e"/>
    <field name="tcp.window_size" showname="Calculated window size: 30720" size="2" pos="48" show="30720" value="001e"/>
    <field name="tcp.window_size_scalefactor" showname="Window size scaling factor: 1024" size="2" pos="48" show="1024" value="001e"/>
    <field name="tcp.checksum" showname="Checksum: 0xf3e2 [validation disabled]" size="2" pos="50" show="62434" value="f3e2">
      <field name="tcp.checksum_good" showname="Good Checksum: False" size="2" pos="50" show="0" value="f3e2"/>
      <field name="tcp.checksum_bad" showname="Bad Checksum: False" size="2" pos="50" show="0" value="f3e2"/>
    </field>
    <field name="tcp.analysis" showname="SEQ/ACK analysis" size="0" pos="34" show="" value="">
      <field name="tcp.analysis.acks_frame" showname="This is an ACK to the segment in frame: 4" size="0" pos="34" show="4"/>
      <field name="tcp.analysis.ack_rtt" showname="The RTT to ACK the segment was: 0.003584000 seconds" size="0" pos="34" show="0.003584000"/>
    </field>
  </proto>
</packet>


<packet>
  <proto name="geninfo" pos="0" showname="General information" size="188">
    <field name="num" pos="0" show="6" showname="Number" value="6" size="188"/>
    <field name="len" pos="0" show="188" showname="Frame Length" value="bc" size="188"/>
    <field name="caplen" pos="0" show="188" showname="Captured Length" value="bc" size="188"/>
    <field name="timestamp" pos="0" show="Jun 27, 2019 12:20:57.210326000 CEST" showname="Captured Time" value="1561630857.210326000" size="188"/>
  </proto>
  <proto name="frame" showname="Frame 6: 188 bytes on wire (1504 bits), 188 bytes captured (1504 bits) on interface 0" size="188" pos="0">
    <field name="frame.interface_id" showname="Interface id: 0" size="0" pos="0" show="0"/>
    <field name="frame.encap_type" showname="Encapsulation type: Ethernet (1)" size="0" pos="0" show="1"/>
    <field name="frame.time" showname="Arrival Time: Jun 27, 2019 12:20:57.210326000 CEST" size="0" pos="0" show="&quot;Jun 27, 2019 12:20:57.210326000 CEST&quot;"/>
    <field name="frame.offset_shift" showname="Time shift for this packet: 0.000000000 seconds" size="0" pos="0" show="0.000000000"/>
    <field name="frame.time_epoch" showname="Epoch Time: 1561630857.210326000 seconds" size="0" pos="0" show="1561630857.210326000"/>
    <field name="frame.time_delta" showname="Time delta from previous captured frame: 0.000742000 seconds" size="0" pos="0" show="0.000742000"/>
    <field name="frame.time_delta_displayed" showname="Time delta from previous displayed frame: 0.000742000 seconds" size="0" pos="0" show="0.000742000"/>
    <field name="frame.time_relative" showname="Time since reference or first frame: 0.008919000 seconds" size="0" pos="0" show="0.008919000"/>
    <field name="frame.number" showname="Frame Number: 6" size="0" pos="0" show="6"/>
    <field name="frame.len" showname="Frame Length: 188 bytes (1504 bits)" size="0" pos="0" show="188"/>
    <field name="frame.cap_len" showname="Capture Length: 188 bytes (1504 bits)" size="0" pos="0" show="188"/>
    <field name="frame.marked" showname="Frame is marked: False" size="0" pos="0" show="0"/>
    <field name="frame.ignored" showname="Frame is ignored: False" size="0" pos="0" show="0"/>
    <field name="frame.protocols" showname="Protocols in frame: eth:ip:tcp:data" size="0" pos="0" show="eth:ip:tcp:data"/>
  </proto>
  <proto name="eth" showname="Ethernet II, Src: 02:42:71:12:56:af (02:42:71:12:56:af), Dst: 02:42:ac:11:00:02 (02:42:ac:11:00:02)" size="14" pos="0">
    <field name="eth.dst" showname="Destination: 02:42:ac:11:00:02 (02:42:ac:11:00:02)" size="6" pos="0" show="02:42:ac:11:00:02" value="0242ac110002">
      <field name="eth.addr" showname="Address: 02:42:ac:11:00:02 (02:42:ac:11:00:02)" size="6" pos="0" show="02:42:ac:11:00:02" value="0242ac110002"/>
      <field name="eth.lg" showname=".... ..1. .... .... .... .... = LG bit: Locally administered address (this is NOT the factory default)" size="3" pos="0" show="1" value="1" unmaskedvalue="0242ac"/>
      <field name="eth.ig" showname=".... ...0 .... .... .... .... = IG bit: Individual address (unicast)" size="3" pos="0" show="0" value="0" unmaskedvalue="0242ac"/>
    </field>
    <field name="eth.src" showname="Source: 02:42:71:12:56:af (02:42:71:12:56:af)" size="6" pos="6" show="02:42:71:12:56:af" value="0242711256af">
      <field name="eth.addr" showname="Address: 02:42:71:12:56:af (02:42:71:12:56:af)" size="6" pos="6" show="02:42:71:12:56:af" value="0242711256af"/>
      <field name="eth.lg" showname=".... ..1. .... .... .... .... = LG bit: Locally administered address (this is NOT the factory default)" size="3" pos="6" show="1" value="1" unmaskedvalue="024271"/>
      <field name="eth.ig" showname=".... ...0 .... .... .... .... = IG bit: Individual address (unicast)" size="3" pos="6" show="0" value="0" unmaskedvalue="024271"/>
    </field>
    <field name="eth.type" showname="Type: IP (0x0800)" size="2" pos="12" show="2048" value="0800"/>
  </proto>
  <proto name="ip" showname="Internet Protocol Version 4, Src: 1.1.1.1 (1.1.1.1), Dst: 172.17.0.2 (172.17.0.2)" size="20" pos="14">
    <field name="ip.version" showname="Version: 4" size="1" pos="14" show="4" value="45"/>
    <field name="ip.hdr_len" showname="Header length: 20 bytes" size="1" pos="14" show="20" value="45"/>
    <field name="ip.dsfield" showname="Differentiated Services Field: 0x00 (DSCP 0x00: Default; ECN: 0x00: Not-ECT (Not ECN-Capable Transport))" size="1" pos="15" show="0" value="00">
      <field name="ip.dsfield.dscp" showname="0000 00.. = Differentiated Services Codepoint: Default (0x00)" size="1" pos="15" show="0" value="0" unmaskedvalue="00"/>
      <field name="ip.dsfield.ecn" showname=".... ..00 = Explicit Congestion Notification: Not-ECT (Not ECN-Capable Transport) (0x00)" size="1" pos="15" show="0" value="0" unmaskedvalue="00"/>
    </field>
    <field name="ip.len" showname="Total Length: 174" size="2" pos="16" show="174" value="00ae"/>
    <field name="ip.id" showname="Identification: 0x2df0 (11760)" size="2" pos="18" show="11760" value="2df0"/>
    <field name="ip.flags" showname="Flags: 0x02 (Don&apos;t Fragment)" size="1" pos="20" show="2" value="40">
      <field name="ip.flags.rb" showname="0... .... = Reserved bit: Not set" size="1" pos="20" show="0" value="40"/>
      <field name="ip.flags.df" showname=".1.. .... = Don&apos;t fragment: Set" size="1" pos="20" show="1" value="40"/>
      <field name="ip.flags.mf" showname="..0. .... = More fragments: Not set" size="1" pos="20" show="0" value="40"/>
    </field>
    <field name="ip.frag_offset" showname="Fragment offset: 0" size="2" pos="20" show="0" value="4000"/>
    <field name="ip.ttl" showname="Time to live: 57" size="1" pos="22" show="57" value="39"/>
    <field name="ip.proto" showname="Protocol: TCP (6)" size="1" pos="23" show="6" value="06"/>
    <field name="ip.checksum" showname="Header checksum: 0x6545 [validation disabled]" size="2" pos="24" show="25925" value="6545">
      <field name="ip.checksum_good" showname="Good: False" size="2" pos="24" show="0" value="6545"/>
      <field name="ip.checksum_bad" showname="Bad: False" size="2" pos="24" show="0" value="6545"/>
    </field>
    <field name="ip.src" showname="Source: 1.1.1.1 (1.1.1.1)" size="4" pos="26" show="1.1.1.1" value="01010101"/>
    <field name="ip.addr" showname="Source or Destination Address: 1.1.1.1 (1.1.1.1)" hide="yes" size="4" pos="26" show="1.1.1.1" value="01010101"/>
    <field name="ip.src_host" showname="Source Host: 1.1.1.1" hide="yes" size="4" pos="26" show="1.1.1.1" value="01010101"/>
    <field name="ip.host" showname="Source or Destination Host: 1.1.1.1" hide="yes" size="4" pos="26" show="1.1.1.1" value="01010101"/>
    <field name="ip.dst" showname="Destination: 172.17.0.2 (172.17.0.2)" size="4" pos="30" show="172.17.0.2" value="ac110002"/>
    <field name="ip.addr" showname="Source or Destination Address: 172.17.0.2 (172.17.0.2)" hide="yes" size="4" pos="30" show="172.17.0.2" value="ac110002"/>
    <field name="ip.dst_host" showname="Destination Host: 172.17.0.2" hide="yes" size="4" pos="30" show="172.17.0.2" value="ac110002"/>
    <field name="ip.host" showname="Source or Destination Host: 172.17.0.2" hide="yes" size="4" pos="30" show="172.17.0.2" value="ac110002"/>
  </proto>
  <proto name="tcp" showname="Transmission Control Protocol, Src Port: 853 (853), Dst Port: 59658 (59658), Seq: 1, Ack: 338, Len: 134" size="20" pos="34">
    <field name="tcp.srcport" showname="Source port: 853 (853)" size="2" pos="34" show="853" value="0355"/>
    <field name="tcp.dstport" showname="Destination port: 59658 (59658)" size="2" pos="36" show="59658" value="e90a"/>
    <field name="tcp.port" showname="Source or Destination Port: 853" hide="yes" size="2" pos="34" show="853" value="0355"/>
    <field name="tcp.port" showname="Source or Destination Port: 59658" hide="yes" size="2" pos="36" show="59658" value="e90a"/>
    <field name="tcp.stream" showname="Stream index: 0" size="0" pos="34" show="0"/>
    <field name="tcp.len" showname="TCP Segment Len: 134" hide="yes" size="1" pos="46" show="134" value="50"/>
    <field name="tcp.seq" showname="Sequence number: 1    (relative sequence number)" size="4" pos="38" show="1" value="7d3d926d"/>
    <field name="tcp.nxtseq" showname="Next sequence number: 135    (relative sequence number)" size="0" pos="34" show="135"/>
    <field name="tcp.ack" showname="Acknowledgment number: 338    (relative ack number)" size="4" pos="42" show="338" value="6360ae53"/>
    <field name="tcp.hdr_len" showname="Header length: 20 bytes" size="1" pos="46" show="20" value="50"/>
    <field name="tcp.flags" showname="Flags: 0x018 (PSH, ACK)" size="2" pos="46" show="24" value="18" unmaskedvalue="5018">
      <field name="tcp.flags.res" showname="000. .... .... = Reserved: Not set" size="1" pos="46" show="0" value="0" unmaskedvalue="50"/>
      <field name="tcp.flags.ns" showname="...0 .... .... = Nonce: Not set" size="1" pos="46" show="0" value="0" unmaskedvalue="50"/>
      <field name="tcp.flags.cwr" showname=".... 0... .... = Congestion Window Reduced (CWR): Not set" size="1" pos="47" show="0" value="0" unmaskedvalue="18"/>
      <field name="tcp.flags.ecn" showname=".... .0.. .... = ECN-Echo: Not set" size="1" pos="47" show="0" value="0" unmaskedvalue="18"/>
      <field name="tcp.flags.urg" showname=".... ..0. .... = Urgent: Not set" size="1" pos="47" show="0" value="0" unmaskedvalue="18"/>
      <field name="tcp.flags.ack" showname=".... ...1 .... = Acknowledgment: Set" size="1" pos="47" show="1" value="1" unmaskedvalue="18"/>
      <field name="tcp.flags.push" showname=".... .... 1... = Push: Set" size="1" pos="47" show="1" value="1" unmaskedvalue="18"/>
      <field name="tcp.flags.reset" showname=".... .... .0.. = Reset: Not set" size="1" pos="47" show="0" value="0" unmaskedvalue="18"/>
      <field name="tcp.flags.syn" showname=".... .... ..0. = Syn: Not set" size="1" pos="47" show="0" value="0" unmaskedvalue="18"/>
      <field name="tcp.flags.fin" showname=".... .... ...0 = Fin: Not set" size="1" pos="47" show="0" value="0" unmaskedvalue="18"/>
    </field>
    <field name="tcp.window_size_value" showname="Window size value: 30" size="2" pos="48" show="30" value="001e"/>
    <field name="tcp.window_size" showname="Calculated window size: 30720" size="2" pos="48" show="30720" value="001e"/>
    <field name="tcp.window_size_scalefactor" showname="Window size scaling factor: 1024" size="2" pos="48" show="1024" value="001e"/>
    <field name="tcp.checksum" showname="Checksum: 0xea88 [validation disabled]" size="2" pos="50" show="60040" value="ea88">
      <field name="tcp.checksum_good" showname="Good Checksum: False" size="2" pos="50" show="0" value="ea88"/>
      <field name="tcp.checksum_bad" showname="Bad Checksum: False" size="2" pos="50" show="0" value="ea88"/>
    </field>
    <field name="tcp.analysis" showname="SEQ/ACK analysis" size="0" pos="34" show="" value="">
      <field name="tcp.analysis.bytes_in_flight" showname="Bytes in flight: 134" size="0" pos="34" show="134"/>
    </field>
  </proto>
  <proto name="fake-field-wrapper">
    <field name="data" value="160303007b020000770303af2499e70f3da4db1bdca03ab259791c60aa3683008b9d27444f574e4752440100130200004f0033004500170041044048244f6b981479154adfb8a3a3f32a5405478a68d623c271a452b041dbabeacaa0a07d17d8cdfaa13c0f4b890f6ac1e25e5f7e9788159230c9664b9d07c72a002b00020304140303000101">
      <field name="data.data" showname="Data: 160303007b020000770303af2499e70f3da4db1bdca03ab2..." size="134" pos="54" show="16:03:03:00:7b:02:00:00:77:03:03:af:24:99:e7:0f:3d:a4:db:1b:dc:a0:3a:b2:59:79:1c:60:aa:36:83:00:8b:9d:27:44:4f:57:4e:47:52:44:01:00:13:02:00:00:4f:00:33:00:45:00:17:00:41:04:40:48:24:4f:6b:98:14:79:15:4a:df:b8:a3:a3:f3:2a:54:05:47:8a:68:d6:23:c2:71:a4:52:b0:41:db:ab:ea:ca:a0:a0:7d:17:d8:cd:fa:a1:3c:0f:4b:89:0f:6a:c1:e2:5e:5f:7e:97:88:15:92:30:c9:66:4b:9d:07:c7:2a:00:2b:00:02:03:04:14:03:03:00:01:01" value="160303007b020000770303af2499e70f3da4db1bdca03ab259791c60aa3683008b9d27444f574e4752440100130200004f0033004500170041044048244f6b981479154adfb8a3a3f32a5405478a68d623c271a452b041dbabeacaa0a07d17d8cdfaa13c0f4b890f6ac1e25e5f7e9788159230c9664b9d07c72a002b00020304140303000101"/>
      <field name="data.len" showname="Length: 134" size="0" pos="54" show="134"/>
  </field>
</proto>
</packet>


<packet>
  <proto name="geninfo" pos="0" showname="General information" size="54">
    <field name="num" pos="0" show="7" showname="Number" value="7" size="54"/>
    <field name="len" pos="0" show="54" showname="Frame Length" value="36" size="54"/>
    <field name="caplen" pos="0" show="54" showname="Captured Length" value="36" size="54"/>
    <field name="timestamp" pos="0" show="Jun 27, 2019 12:20:57.210351000 CEST" showname="Captured Time" value="1561630857.210351000" size="54"/>
  </proto>
  <proto name="frame" showname="Frame 7: 54 bytes on wire (432 bits), 54 bytes captured (432 bits) on interface 0" size="54" pos="0">
    <field name="frame.interface_id" showname="Interface id: 0" size="0" pos="0" show="0"/>
    <field name="frame.encap_type" showname="Encapsulation type: Ethernet (1)" size="0" pos="0" show="1"/>
    <field name="frame.time" showname="Arrival Time: Jun 27, 2019 12:20:57.210351000 CEST" size="0" pos="0" show="&quot;Jun 27, 2019 12:20:57.210351000 CEST&quot;"/>
    <field name="frame.offset_shift" showname="Time shift for this packet: 0.000000000 seconds" size="0" pos="0" show="0.000000000"/>
    <field name="frame.time_epoch" showname="Epoch Time: 1561630857.210351000 seconds" size="0" pos="0" show="1561630857.210351000"/>
    <field name="frame.time_delta" showname="Time delta from previous captured frame: 0.000025000 seconds" size="0" pos="0" show="0.000025000"/>
    <field name="frame.time_delta_displayed" showname="Time delta from previous displayed frame: 0.000025000 seconds" size="0" pos="0" show="0.000025000"/>
    <field name="frame.time_relative" showname="Time since reference or first frame: 0.008944000 seconds" size="0" pos="0" show="0.008944000"/>
    <field name="frame.number" showname="Frame Number: 7" size="0" pos="0" show="7"/>
    <field name="frame.len" showname="Frame Length: 54 bytes (432 bits)" size="0" pos="0" show="54"/>
    <field name="frame.cap_len" showname="Capture Length: 54 bytes (432 bits)" size="0" pos="0" show="54"/>
    <field name="frame.marked" showname="Frame is marked: False" size="0" pos="0" show="0"/>
    <field name="frame.ignored" showname="Frame is ignored: False" size="0" pos="0" show="0"/>
    <field name="frame.protocols" showname="Protocols in frame: eth:ip:tcp" size="0" pos="0" show="eth:ip:tcp"/>
  </proto>
  <proto name="eth" showname="Ethernet II, Src: 02:42:ac:11:00:02 (02:42:ac:11:00:02), Dst: 02:42:71:12:56:af (02:42:71:12:56:af)" size="14" pos="0">
    <field name="eth.dst" showname="Destination: 02:42:71:12:56:af (02:42:71:12:56:af)" size="6" pos="0" show="02:42:71:12:56:af" value="0242711256af">
      <field name="eth.addr" showname="Address: 02:42:71:12:56:af (02:42:71:12:56:af)" size="6" pos="0" show="02:42:71:12:56:af" value="0242711256af"/>
      <field name="eth.lg" showname=".... ..1. .... .... .... .... = LG bit: Locally administered address (this is NOT the factory default)" size="3" pos="0" show="1" value="1" unmaskedvalue="024271"/>
      <field name="eth.ig" showname=".... ...0 .... .... .... .... = IG bit: Individual address (unicast)" size="3" pos="0" show="0" value="0" unmaskedvalue="024271"/>
    </field>
    <field name="eth.src" showname="Source: 02:42:ac:11:00:02 (02:42:ac:11:00:02)" size="6" pos="6" show="02:42:ac:11:00:02" value="0242ac110002">
      <field name="eth.addr" showname="Address: 02:42:ac:11:00:02 (02:42:ac:11:00:02)" size="6" pos="6" show="02:42:ac:11:00:02" value="0242ac110002"/>
      <field name="eth.lg" showname=".... ..1. .... .... .... .... = LG bit: Locally administered address (this is NOT the factory default)" size="3" pos="6" show="1" value="1" unmaskedvalue="0242ac"/>
      <field name="eth.ig" showname=".... ...0 .... .... .... .... = IG bit: Individual address (unicast)" size="3" pos="6" show="0" value="0" unmaskedvalue="0242ac"/>
    </field>
    <field name="eth.type" showname="Type: IP (0x0800)" size="2" pos="12" show="2048" value="0800"/>
  </proto>
  <proto name="ip" showname="Internet Protocol Version 4, Src: 172.17.0.2 (172.17.0.2), Dst: 1.1.1.1 (1.1.1.1)" size="20" pos="14">
    <field name="ip.version" showname="Version: 4" size="1" pos="14" show="4" value="45"/>
    <field name="ip.hdr_len" showname="Header length: 20 bytes" size="1" pos="14" show="20" value="45"/>
    <field name="ip.dsfield" showname="Differentiated Services Field: 0x00 (DSCP 0x00: Default; ECN: 0x00: Not-ECT (Not ECN-Capable Transport))" size="1" pos="15" show="0" value="00">
      <field name="ip.dsfield.dscp" showname="0000 00.. = Differentiated Services Codepoint: Default (0x00)" size="1" pos="15" show="0" value="0" unmaskedvalue="00"/>
      <field name="ip.dsfield.ecn" showname=".... ..00 = Explicit Congestion Notification: Not-ECT (Not ECN-Capable Transport) (0x00)" size="1" pos="15" show="0" value="0" unmaskedvalue="00"/>
    </field>
    <field name="ip.len" showname="Total Length: 40" size="2" pos="16" show="40" value="0028"/>
    <field name="ip.id" showname="Identification: 0xc40c (50188)" size="2" pos="18" show="50188" value="c40c"/>
    <field name="ip.flags" showname="Flags: 0x02 (Don&apos;t Fragment)" size="1" pos="20" show="2" value="40">
      <field name="ip.flags.rb" showname="0... .... = Reserved bit: Not set" size="1" pos="20" show="0" value="40"/>
      <field name="ip.flags.df" showname=".1.. .... = Don&apos;t fragment: Set" size="1" pos="20" show="1" value="40"/>
      <field name="ip.flags.mf" showname="..0. .... = More fragments: Not set" size="1" pos="20" show="0" value="40"/>
    </field>
    <field name="ip.frag_offset" showname="Fragment offset: 0" size="2" pos="20" show="0" value="4000"/>
    <field name="ip.ttl" showname="Time to live: 64" size="1" pos="22" show="64" value="40"/>
    <field name="ip.proto" showname="Protocol: TCP (6)" size="1" pos="23" show="6" value="06"/>
    <field name="ip.checksum" showname="Header checksum: 0xc8ae [validation disabled]" size="2" pos="24" show="51374" value="c8ae">
      <field name="ip.checksum_good" showname="Good: False" size="2" pos="24" show="0" value="c8ae"/>
      <field name="ip.checksum_bad" showname="Bad: False" size="2" pos="24" show="0" value="c8ae"/>
    </field>
    <field name="ip.src" showname="Source: 172.17.0.2 (172.17.0.2)" size="4" pos="26" show="172.17.0.2" value="ac110002"/>
    <field name="ip.addr" showname="Source or Destination Address: 172.17.0.2 (172.17.0.2)" hide="yes" size="4" pos="26" show="172.17.0.2" value="ac110002"/>
    <field name="ip.src_host" showname="Source Host: 172.17.0.2" hide="yes" size="4" pos="26" show="172.17.0.2" value="ac110002"/>
    <field name="ip.host" showname="Source or Destination Host: 172.17.0.2" hide="yes" size="4" pos="26" show="172.17.0.2" value="ac110002"/>
    <field name="ip.dst" showname="Destination: 1.1.1.1 (1.1.1.1)" size="4" pos="30" show="1.1.1.1" value="01010101"/>
    <field name="ip.addr" showname="Source or Destination Address: 1.1.1.1 (1.1.1.1)" hide="yes" size="4" pos="30" show="1.1.1.1" value="01010101"/>
    <field name="ip.dst_host" showname="Destination Host: 1.1.1.1" hide="yes" size="4" pos="30" show="1.1.1.1" value="01010101"/>
    <field name="ip.host" showname="Source or Destination Host: 1.1.1.1" hide="yes" size="4" pos="30" show="1.1.1.1" value="01010101"/>
  </proto>
  <proto name="tcp" showname="Transmission Control Protocol, Src Port: 59658 (59658), Dst Port: 853 (853), Seq: 338, Ack: 135, Len: 0" size="20" pos="34">
    <field name="tcp.srcport" showname="Source port: 59658 (59658)" size="2" pos="34" show="59658" value="e90a"/>
    <field name="tcp.dstport" showname="Destination port: 853 (853)" size="2" pos="36" show="853" value="0355"/>
    <field name="tcp.port" showname="Source or Destination Port: 59658" hide="yes" size="2" pos="34" show="59658" value="e90a"/>
    <field name="tcp.port" showname="Source or Destination Port: 853" hide="yes" size="2" pos="36" show="853" value="0355"/>
    <field name="tcp.stream" showname="Stream index: 0" size="0" pos="34" show="0"/>
    <field name="tcp.len" showname="TCP Segment Len: 0" hide="yes" size="1" pos="46" show="0" value="50"/>
    <field name="tcp.seq" showname="Sequence number: 338    (relative sequence number)" size="4" pos="38" show="338" value="6360ae53"/>
    <field name="tcp.ack" showname="Acknowledgment number: 135    (relative ack number)" size="4" pos="42" show="135" value="7d3d92f3"/>
    <field name="tcp.hdr_len" showname="Header length: 20 bytes" size="1" pos="46" show="20" value="50"/>
    <field name="tcp.flags" showname="Flags: 0x010 (ACK)" size="2" pos="46" show="16" value="10" unmaskedvalue="5010">
      <field name="tcp.flags.res" showname="000. .... .... = Reserved: Not set" size="1" pos="46" show="0" value="0" unmaskedvalue="50"/>
      <field name="tcp.flags.ns" showname="...0 .... .... = Nonce: Not set" size="1" pos="46" show="0" value="0" unmaskedvalue="50"/>
      <field name="tcp.flags.cwr" showname=".... 0... .... = Congestion Window Reduced (CWR): Not set" size="1" pos="47" show="0" value="0" unmaskedvalue="10"/>
      <field name="tcp.flags.ecn" showname=".... .0.. .... = ECN-Echo: Not set" size="1" pos="47" show="0" value="0" unmaskedvalue="10"/>
      <field name="tcp.flags.urg" showname=".... ..0. .... = Urgent: Not set" size="1" pos="47" show="0" value="0" unmaskedvalue="10"/>
      <field name="tcp.flags.ack" showname=".... ...1 .... = Acknowledgment: Set" size="1" pos="47" show="1" value="1" unmaskedvalue="10"/>
      <field name="tcp.flags.push" showname=".... .... 0... = Push: Not set" size="1" pos="47" show="0" value="0" unmaskedvalue="10"/>
      <field name="tcp.flags.reset" showname=".... .... .0.. = Reset: Not set" size="1" pos="47" show="0" value="0" unmaskedvalue="10"/>
      <field name="tcp.flags.syn" showname=".... .... ..0. = Syn: Not set" size="1" pos="47" show="0" value="0" unmaskedvalue="10"/>
      <field name="tcp.flags.fin" showname=".... .... ...0 = Fin: Not set" size="1" pos="47" show="0" value="0" unmaskedvalue="10"/>
    </field>
    <field name="tcp.window_size_value" showname="Window size value: 237" size="2" pos="48" show="237" value="00ed"/>
    <field name="tcp.window_size" showname="Calculated window size: 30336" size="2" pos="48" show="30336" value="00ed"/>
    <field name="tcp.window_size_scalefactor" showname="Window size scaling factor: 128" size="2" pos="48" show="128" value="00ed"/>
    <field name="tcp.checksum" showname="Checksum: 0xae2f [validation disabled]" size="2" pos="50" show="44591" value="ae2f">
      <field name="tcp.checksum_good" showname="Good Checksum: False" size="2" pos="50" show="0" value="ae2f"/>
      <field name="tcp.checksum_bad" showname="Bad Checksum: False" size="2" pos="50" show="0" value="ae2f"/>
    </field>
    <field name="tcp.analysis" showname="SEQ/ACK analysis" size="0" pos="34" show="" value="">
      <field name="tcp.analysis.acks_frame" showname="This is an ACK to the segment in frame: 6" size="0" pos="34" show="6"/>
      <field name="tcp.analysis.ack_rtt" showname="The RTT to ACK the segment was: 0.000025000 seconds" size="0" pos="34" show="0.000025000"/>
    </field>
  </proto>
</packet>


<packet>
  <proto name="geninfo" pos="0" showname="General information" size="1514">
    <field name="num" pos="0" show="8" showname="Number" value="8" size="1514"/>
    <field name="len" pos="0" show="1514" showname="Frame Length" value="5ea" size="1514"/>
    <field name="caplen" pos="0" show="1514" showname="Captured Length" value="5ea" size="1514"/>
    <field name="timestamp" pos="0" show="Jun 27, 2019 12:20:57.210668000 CEST" showname="Captured Time" value="1561630857.210668000" size="1514"/>
  </proto>
  <proto name="frame" showname="Frame 8: 1514 bytes on wire (12112 bits), 1514 bytes captured (12112 bits) on interface 0" size="1514" pos="0">
    <field name="frame.interface_id" showname="Interface id: 0" size="0" pos="0" show="0"/>
    <field name="frame.encap_type" showname="Encapsulation type: Ethernet (1)" size="0" pos="0" show="1"/>
    <field name="frame.time" showname="Arrival Time: Jun 27, 2019 12:20:57.210668000 CEST" size="0" pos="0" show="&quot;Jun 27, 2019 12:20:57.210668000 CEST&quot;"/>
    <field name="frame.offset_shift" showname="Time shift for this packet: 0.000000000 seconds" size="0" pos="0" show="0.000000000"/>
    <field name="frame.time_epoch" showname="Epoch Time: 1561630857.210668000 seconds" size="0" pos="0" show="1561630857.210668000"/>
    <field name="frame.time_delta" showname="Time delta from previous captured frame: 0.000317000 seconds" size="0" pos="0" show="0.000317000"/>
    <field name="frame.time_delta_displayed" showname="Time delta from previous displayed frame: 0.000317000 seconds" size="0" pos="0" show="0.000317000"/>
    <field name="frame.time_relative" showname="Time since reference or first frame: 0.009261000 seconds" size="0" pos="0" show="0.009261000"/>
    <field name="frame.number" showname="Frame Number: 8" size="0" pos="0" show="8"/>
    <field name="frame.len" showname="Frame Length: 1514 bytes (12112 bits)" size="0" pos="0" show="1514"/>
    <field name="frame.cap_len" showname="Capture Length: 1514 bytes (12112 bits)" size="0" pos="0" show="1514"/>
    <field name="frame.marked" showname="Frame is marked: False" size="0" pos="0" show="0"/>
    <field name="frame.ignored" showname="Frame is ignored: False" size="0" pos="0" show="0"/>
    <field name="frame.protocols" showname="Protocols in frame: eth:ip:tcp:data" size="0" pos="0" show="eth:ip:tcp:data"/>
  </proto>
  <proto name="eth" showname="Ethernet II, Src: 02:42:71:12:56:af (02:42:71:12:56:af), Dst: 02:42:ac:11:00:02 (02:42:ac:11:00:02)" size="14" pos="0">
    <field name="eth.dst" showname="Destination: 02:42:ac:11:00:02 (02:42:ac:11:00:02)" size="6" pos="0" show="02:42:ac:11:00:02" value="0242ac110002">
      <field name="eth.addr" showname="Address: 02:42:ac:11:00:02 (02:42:ac:11:00:02)" size="6" pos="0" show="02:42:ac:11:00:02" value="0242ac110002"/>
      <field name="eth.lg" showname=".... ..1. .... .... .... .... = LG bit: Locally administered address (this is NOT the factory default)" size="3" pos="0" show="1" value="1" unmaskedvalue="0242ac"/>
      <field name="eth.ig" showname=".... ...0 .... .... .... .... = IG bit: Individual address (unicast)" size="3" pos="0" show="0" value="0" unmaskedvalue="0242ac"/>
    </field>
    <field name="eth.src" showname="Source: 02:42:71:12:56:af (02:42:71:12:56:af)" size="6" pos="6" show="02:42:71:12:56:af" value="0242711256af">
      <field name="eth.addr" showname="Address: 02:42:71:12:56:af (02:42:71:12:56:af)" size="6" pos="6" show="02:42:71:12:56:af" value="0242711256af"/>
      <field name="eth.lg" showname=".... ..1. .... .... .... .... = LG bit: Locally administered address (this is NOT the factory default)" size="3" pos="6" show="1" value="1" unmaskedvalue="024271"/>
      <field name="eth.ig" showname=".... ...0 .... .... .... .... = IG bit: Individual address (unicast)" size="3" pos="6" show="0" value="0" unmaskedvalue="024271"/>
    </field>
    <field name="eth.type" showname="Type: IP (0x0800)" size="2" pos="12" show="2048" value="0800"/>
  </proto>
  <proto name="ip" showname="Internet Protocol Version 4, Src: 1.1.1.1 (1.1.1.1), Dst: 172.17.0.2 (172.17.0.2)" size="20" pos="14">
    <field name="ip.version" showname="Version: 4" size="1" pos="14" show="4" value="45"/>
    <field name="ip.hdr_len" showname="Header length: 20 bytes" size="1" pos="14" show="20" value="45"/>
    <field name="ip.dsfield" showname="Differentiated Services Field: 0x00 (DSCP 0x00: Default; ECN: 0x00: Not-ECT (Not ECN-Capable Transport))" size="1" pos="15" show="0" value="00">
      <field name="ip.dsfield.dscp" showname="0000 00.. = Differentiated Services Codepoint: Default (0x00)" size="1" pos="15" show="0" value="0" unmaskedvalue="00"/>
      <field name="ip.dsfield.ecn" showname=".... ..00 = Explicit Congestion Notification: Not-ECT (Not ECN-Capable Transport) (0x00)" size="1" pos="15" show="0" value="0" unmaskedvalue="00"/>
    </field>
    <field name="ip.len" showname="Total Length: 1500" size="2" pos="16" show="1500" value="05dc"/>
    <field name="ip.id" showname="Identification: 0x2df1 (11761)" size="2" pos="18" show="11761" value="2df1"/>
    <field name="ip.flags" showname="Flags: 0x02 (Don&apos;t Fragment)" size="1" pos="20" show="2" value="40">
      <field name="ip.flags.rb" showname="0... .... = Reserved bit: Not set" size="1" pos="20" show="0" value="40"/>
      <field name="ip.flags.df" showname=".1.. .... = Don&apos;t fragment: Set" size="1" pos="20" show="1" value="40"/>
      <field name="ip.flags.mf" showname="..0. .... = More fragments: Not set" size="1" pos="20" show="0" value="40"/>
    </field>
    <field name="ip.frag_offset" showname="Fragment offset: 0" size="2" pos="20" show="0" value="4000"/>
    <field name="ip.ttl" showname="Time to live: 57" size="1" pos="22" show="57" value="39"/>
    <field name="ip.proto" showname="Protocol: TCP (6)" size="1" pos="23" show="6" value="06"/>
    <field name="ip.checksum" showname="Header checksum: 0x6016 [validation disabled]" size="2" pos="24" show="24598" value="6016">
      <field name="ip.checksum_good" showname="Good: False" size="2" pos="24" show="0" value="6016"/>
      <field name="ip.checksum_bad" showname="Bad: False" size="2" pos="24" show="0" value="6016"/>
    </field>
    <field name="ip.src" showname="Source: 1.1.1.1 (1.1.1.1)" size="4" pos="26" show="1.1.1.1" value="01010101"/>
    <field name="ip.addr" showname="Source or Destination Address: 1.1.1.1 (1.1.1.1)" hide="yes" size="4" pos="26" show="1.1.1.1" value="01010101"/>
    <field name="ip.src_host" showname="Source Host: 1.1.1.1" hide="yes" size="4" pos="26" show="1.1.1.1" value="01010101"/>
    <field name="ip.host" showname="Source or Destination Host: 1.1.1.1" hide="yes" size="4" pos="26" show="1.1.1.1" value="01010101"/>
    <field name="ip.dst" showname="Destination: 172.17.0.2 (172.17.0.2)" size="4" pos="30" show="172.17.0.2" value="ac110002"/>
    <field name="ip.addr" showname="Source or Destination Address: 172.17.0.2 (172.17.0.2)" hide="yes" size="4" pos="30" show="172.17.0.2" value="ac110002"/>
    <field name="ip.dst_host" showname="Destination Host: 172.17.0.2" hide="yes" size="4" pos="30" show="172.17.0.2" value="ac110002"/>
    <field name="ip.host" showname="Source or Destination Host: 172.17.0.2" hide="yes" size="4" pos="30" show="172.17.0.2" value="ac110002"/>
  </proto>
  <proto name="tcp" showname="Transmission Control Protocol, Src Port: 853 (853), Dst Port: 59658 (59658), Seq: 135, Ack: 338, Len: 1460" size="20" pos="34">
    <field name="tcp.srcport" showname="Source port: 853 (853)" size="2" pos="34" show="853" value="0355"/>
    <field name="tcp.dstport" showname="Destination port: 59658 (59658)" size="2" pos="36" show="59658" value="e90a"/>
    <field name="tcp.port" showname="Source or Destination Port: 853" hide="yes" size="2" pos="34" show="853" value="0355"/>
    <field name="tcp.port" showname="Source or Destination Port: 59658" hide="yes" size="2" pos="36" show="59658" value="e90a"/>
    <field name="tcp.stream" showname="Stream index: 0" size="0" pos="34" show="0"/>
    <field name="tcp.len" showname="TCP Segment Len: 1460" hide="yes" size="1" pos="46" show="1460" value="50"/>
    <field name="tcp.seq" showname="Sequence number: 135    (relative sequence number)" size="4" pos="38" show="135" value="7d3d92f3"/>
    <field name="tcp.nxtseq" showname="Next sequence number: 1595    (relative sequence number)" size="0" pos="34" show="1595"/>
    <field name="tcp.ack" showname="Acknowledgment number: 338    (relative ack number)" size="4" pos="42" show="338" value="6360ae53"/>
    <field name="tcp.hdr_len" showname="Header length: 20 bytes" size="1" pos="46" show="20" value="50"/>
    <field name="tcp.flags" showname="Flags: 0x010 (ACK)" size="2" pos="46" show="16" value="10" unmaskedvalue="5010">
      <field name="tcp.flags.res" showname="000. .... .... = Reserved: Not set" size="1" pos="46" show="0" value="0" unmaskedvalue="50"/>
      <field name="tcp.flags.ns" showname="...0 .... .... = Nonce: Not set" size="1" pos="46" show="0" value="0" unmaskedvalue="50"/>
      <field name="tcp.flags.cwr" showname=".... 0... .... = Congestion Window Reduced (CWR): Not set" size="1" pos="47" show="0" value="0" unmaskedvalue="10"/>
      <field name="tcp.flags.ecn" showname=".... .0.. .... = ECN-Echo: Not set" size="1" pos="47" show="0" value="0" unmaskedvalue="10"/>
      <field name="tcp.flags.urg" showname=".... ..0. .... = Urgent: Not set" size="1" pos="47" show="0" value="0" unmaskedvalue="10"/>
      <field name="tcp.flags.ack" showname=".... ...1 .... = Acknowledgment: Set" size="1" pos="47" show="1" value="1" unmaskedvalue="10"/>
      <field name="tcp.flags.push" showname=".... .... 0... = Push: Not set" size="1" pos="47" show="0" value="0" unmaskedvalue="10"/>
      <field name="tcp.flags.reset" showname=".... .... .0.. = Reset: Not set" size="1" pos="47" show="0" value="0" unmaskedvalue="10"/>
      <field name="tcp.flags.syn" showname=".... .... ..0. = Syn: Not set" size="1" pos="47" show="0" value="0" unmaskedvalue="10"/>
      <field name="tcp.flags.fin" showname=".... .... ...0 = Fin: Not set" size="1" pos="47" show="0" value="0" unmaskedvalue="10"/>
    </field>
    <field name="tcp.window_size_value" showname="Window size value: 30" size="2" pos="48" show="30" value="001e"/>
    <field name="tcp.window_size" showname="Calculated window size: 30720" size="2" pos="48" show="30720" value="001e"/>
    <field name="tcp.window_size_scalefactor" showname="Window size scaling factor: 1024" size="2" pos="48" show="1024" value="001e"/>
    <field name="tcp.checksum" showname="Checksum: 0x002f [validation disabled]" size="2" pos="50" show="47" value="002f">
      <field name="tcp.checksum_good" showname="Good Checksum: False" size="2" pos="50" show="0" value="002f"/>
      <field name="tcp.checksum_bad" showname="Bad Checksum: False" size="2" pos="50" show="0" value="002f"/>
    </field>
    <field name="tcp.analysis" showname="SEQ/ACK analysis" size="0" pos="34" show="" value="">
      <field name="tcp.analysis.bytes_in_flight" showname="Bytes in flight: 1460" size="0" pos="34" show="1460"/>
    </field>
  </proto>
  <proto name="fake-field-wrapper">
    <field name="data" value="170303001dc75a0436728de62cde41e549c158474dfe7b7a35cc04392ff9c31ca698170303099d9b3ca8a2bfef1d94d5be66ad04eafaebd99ba3b65794c8829e9db0662674c485c3605fd71806f6028473195f343036ecba3bc128fcae8da0b4cabb632cbfabf48247b33749b9fe7b68c1eafea38c85fedc65c533f839457c7842f4e7c045b24db022e35cc1df961e37ac2ca48d274a6d60bdf93fa3bc5128a06a61325c04854b47a3e4f031d62c1362038ef2661a6c2beb5d059171ad67f2c27ed148a4b9a142875e9d9106069998645a01ed93053dcbc58cdbd03713c57f7aca20c12293ba22c3ed61fe04ea2bb8077add44bfdcf646ab0b53b3276d7c0acbeeb6b5f973aef90020cefe6618da74a1b4086aed60265be10388b6aeac629eacd1ad360a10f4a07dcde559c279bafeaff27217028706b28a195a55b9a8ad2ef5fb5f2a5965607c9bf54c978626f3bf4af6f110c9011d5b2a46bf67356c182691bd3545aa5f7c684aef4d926c295a764fb236a2ce16634cd1e2a0b866fd0555df6c171b2646a56fb87e5829d83657652e42f7c3575a05873d5261b30e4ef5aac16f462fd867877e97d1f7840b3a50189385e52435d6ca5ba3ef3703ad396e2da21bcb408ec096d613e94a6fc64081caa77db49a52dc2a272a6a3cf53b748a016b5b9d03e11f232ff429b82a8a1dfd80aeaf755266e6fe1875fb9bf7f66d618632a797fb1bdc023fdbab5105f7b914c54fd78c1de052ed1d4a335b50b1fab4787a1eb7af49a3babb5b0604fbb445445900b1494f50937aa7132c564e22d9864e7c4b54e28d00a0059efe63571fff45d92bcb90ea3b01adc3aedc096256de377d631177b0b73528a0e83f82bcc719ee64d7d936ef56fbc03e86c1ea2b61e409bfa6cc303866fd675b9cd8a26cb8dc5a3e2a531484dcb093a6c755e0481ad2e68370d235528ef7b01f119debcb16c31389430aba4975c8fbfa6d8ba5d4f31d1dd0cc769dd9601296c83c3b3b04da04978dec25bff2c97dc02e83e5be8c65ceb3873bd08f76ad386380d7b10985cf37bfafd1ccb901964329d903d2385b8d95a3c1817dc887399ec0214464babe6812c8daa480600e67a4276b91b6eca3fb1f3e809faf9eef5643b32daced5edc8137143eb18d346c9b3ca33679c5b2f0cf567acc10ecea41fccb401ee1b34d5b5824a857782308f8038bd40ee0013f879ea4fefcac4809865a2f71d1d234d29ff017e096dd0c2b14abba2f4822b5b02beab05ae89161caa5ec519c65b847ff7e9d1af05790ddf4ce1155a1b95001bb5d47252e321e5bb8c6a48d277b3c8b753956f56b0bd6e67c5039e41531debb8f7709ab078fa8f78c5b6d8073444f442988b26ff3584a8d76b31f13becdf528c382b96e643a1c44cce5b34ae192a873259c60c74985e21feead1301cefd33a99f3dca1132423e4284a58c13626d88e2ae3ab302b9a5be5472b650fe79c9ceff61f30c50d5b807d029babfcbd192f15760dbdce8a8c2ac8fd864ce639ff008b9b529a13f83391786fb1d7499be8e289d2b500c187dcba01c3435ff677e3b220c02d97dcd7d3d16c405ffbbd1be72baaec314826cbd46998909b7031afa350e187c40910fe15381a25cd534a9d14260ac4b1bff7338e7ab303d81f64dff69f55c4854c951ddc49cc2bae6005878e8099f83b356759a5a76db6560ef2d2bb50437f9b5534c7891cca2419d0313a0b92d10e506990cce1e5d78c53454d849f72535e33971c124f31063c7c53878995dd0b7daba7e257c1fc7de4a7e0cf1d7ea76fcfd98b3c8dc20cf8fb9c24fc9cb9f645d64a44d0d91473cd24fbd4b92ec1d1a55864f4628a86f8ee7370c0b7e71dd08a220823a1940dd473f07557e056ea06460b47be4dc1a8279fcfdd6c1b88b05a0849a404c74872be4770364af3ff50483c13a02f90560950a24948c849007adb123ce2252f33c13f7587382cf5d783b58cc301bf1ca168697427f05ca49a810a9fb80d399b92d48abaa3b1c252a28cb93d685326fd86cb79732a480f6d016330a668d0641e02616180ceebda4">
      <field name="data.data" showname="Data: 170303001dc75a0436728de62cde41e549c158474dfe7b7a..." size="1460" pos="54" show="17:03:03:00:1d:c7:5a:04:36:72:8d:e6:2c:de:41:e5:49:c1:58:47:4d:fe:7b:7a:35:cc:04:39:2f:f9:c3:1c:a6:98:17:03:03:09:9d:9b:3c:a8:a2:bf:ef:1d:94:d5:be:66:ad:04:ea:fa:eb:d9:9b:a3:b6:57:94:c8:82:9e:9d:b0:66:26:74:c4:85:c3:60:5f:d7:18:06:f6:02:84:73:19:5f:34:30:36:ec:ba:3b:c1:28:fc:ae:8d:a0:b4:ca:bb:63:2c:bf:ab:f4:82:47:b3:37:49:b9:fe:7b:68:c1:ea:fe:a3:8c:85:fe:dc:65:c5:33:f8:39:45:7c:78:42:f4:e7:c0:45:b2:4d:b0:22:e3:5c:c1:df:96:1e:37:ac:2c:a4:8d:27:4a:6d:60:bd:f9:3f:a3:bc:51:28:a0:6a:61:32:5c:04:85:4b:47:a3:e4:f0:31:d6:2c:13:62:03:8e:f2:66:1a:6c:2b:eb:5d:05:91:71:ad:67:f2:c2:7e:d1:48:a4:b9:a1:42:87:5e:9d:91:06:06:99:98:64:5a:01:ed:93:05:3d:cb:c5:8c:db:d0:37:13:c5:7f:7a:ca:20:c1:22:93:ba:22:c3:ed:61:fe:04:ea:2b:b8:07:7a:dd:44:bf:dc:f6:46:ab:0b:53:b3:27:6d:7c:0a:cb:ee:b6:b5:f9:73:ae:f9:00:20:ce:fe:66:18:da:74:a1:b4:08:6a:ed:60:26:5b:e1:03:88:b6:ae:ac:62:9e:ac:d1:ad:36:0a:10:f4:a0:7d:cd:e5:59:c2:79:ba:fe:af:f2:72:17:02:87:06:b2:8a:19:5a:55:b9:a8:ad:2e:f5:fb:5f:2a:59:65:60:7c:9b:f5:4c:97:86:26:f3:bf:4a:f6:f1:10:c9:01:1d:5b:2a:46:bf:67:35:6c:18:26:91:bd:35:45:aa:5f:7c:68:4a:ef:4d:92:6c:29:5a:76:4f:b2:36:a2:ce:16:63:4c:d1:e2:a0:b8:66:fd:05:55:df:6c:17:1b:26:46:a5:6f:b8:7e:58:29:d8:36:57:65:2e:42:f7:c3:57:5a:05:87:3d:52:61:b3:0e:4e:f5:aa:c1:6f:46:2f:d8:67:87:7e:97:d1:f7:84:0b:3a:50:18:93:85:e5:24:35:d6:ca:5b:a3:ef:37:03:ad:39:6e:2d:a2:1b:cb:40:8e:c0:96:d6:13:e9:4a:6f:c6:40:81:ca:a7:7d:b4:9a:52:dc:2a:27:2a:6a:3c:f5:3b:74:8a:01:6b:5b:9d:03:e1:1f:23:2f:f4:29:b8:2a:8a:1d:fd:80:ae:af:75:52:66:e6:fe:18:75:fb:9b:f7:f6:6d:61:86:32:a7:97:fb:1b:dc:02:3f:db:ab:51:05:f7:b9:14:c5:4f:d7:8c:1d:e0:52:ed:1d:4a:33:5b:50:b1:fa:b4:78:7a:1e:b7:af:49:a3:ba:bb:5b:06:04:fb:b4:45:44:59:00:b1:49:4f:50:93:7a:a7:13:2c:56:4e:22:d9:86:4e:7c:4b:54:e2:8d:00:a0:05:9e:fe:63:57:1f:ff:45:d9:2b:cb:90:ea:3b:01:ad:c3:ae:dc:09:62:56:de:37:7d:63:11:77:b0:b7:35:28:a0:e8:3f:82:bc:c7:19:ee:64:d7:d9:36:ef:56:fb:c0:3e:86:c1:ea:2b:61:e4:09:bf:a6:cc:30:38:66:fd:67:5b:9c:d8:a2:6c:b8:dc:5a:3e:2a:53:14:84:dc:b0:93:a6:c7:55:e0:48:1a:d2:e6:83:70:d2:35:52:8e:f7:b0:1f:11:9d:eb:cb:16:c3:13:89:43:0a:ba:49:75:c8:fb:fa:6d:8b:a5:d4:f3:1d:1d:d0:cc:76:9d:d9:60:12:96:c8:3c:3b:3b:04:da:04:97:8d:ec:25:bf:f2:c9:7d:c0:2e:83:e5:be:8c:65:ce:b3:87:3b:d0:8f:76:ad:38:63:80:d7:b1:09:85:cf:37:bf:af:d1:cc:b9:01:96:43:29:d9:03:d2:38:5b:8d:95:a3:c1:81:7d:c8:87:39:9e:c0:21:44:64:ba:be:68:12:c8:da:a4:80:60:0e:67:a4:27:6b:91:b6:ec:a3:fb:1f:3e:80:9f:af:9e:ef:56:43:b3:2d:ac:ed:5e:dc:81:37:14:3e:b1:8d:34:6c:9b:3c:a3:36:79:c5:b2:f0:cf:56:7a:cc:10:ec:ea:41:fc:cb:40:1e:e1:b3:4d:5b:58:24:a8:57:78:23:08:f8:03:8b:d4:0e:e0:01:3f:87:9e:a4:fe:fc:ac:48:09:86:5a:2f:71:d1:d2:34:d2:9f:f0:17:e0:96:dd:0c:2b:14:ab:ba:2f:48:22:b5:b0:2b:ea:b0:5a:e8:91:61:ca:a5:ec:51:9c:65:b8:47:ff:7e:9d:1a:f0:57:90:dd:f4:ce:11:55:a1:b9:50:01:bb:5d:47:25:2e:32:1e:5b:b8:c6:a4:8d:27:7b:3c:8b:75:39:56:f5:6b:0b:d6:e6:7c:50:39:e4:15:31:de:bb:8f:77:09:ab:07:8f:a8:f7:8c:5b:6d:80:73:44:4f:44:29:88:b2:6f:f3:58:4a:8d:76:b3:1f:13:be:cd:f5:28:c3:82:b9:6e:64:3a:1c:44:cc:e5:b3:4a:e1:92:a8:73:25:9c:60:c7:49:85:e2:1f:ee:ad:13:01:ce:fd:33:a9:9f:3d:ca:11:32:42:3e:42:84:a5:8c:13:62:6d:88:e2:ae:3a:b3:02:b9:a5:be:54:72:b6:50:fe:79:c9:ce:ff:61:f3:0c:50:d5:b8:07:d0:29:ba:bf:cb:d1:92:f1:57:60:db:dc:e8:a8:c2:ac:8f:d8:64:ce:63:9f:f0:08:b9:b5:29:a1:3f:83:39:17:86:fb:1d:74:99:be:8e:28:9d:2b:50:0c:18:7d:cb:a0:1c:34:35:ff:67:7e:3b:22:0c:02:d9:7d:cd:7d:3d:16:c4:05:ff:bb:d1:be:72:ba:ae:c3:14:82:6c:bd:46:99:89:09:b7:03:1a:fa:35:0e:18:7c:40:91:0f:e1:53:81:a2:5c:d5:34:a9:d1:42:60:ac:4b:1b:ff:73:38:e7:ab:30:3d:81:f6:4d:ff:69:f5:5c:48:54:c9:51:dd:c4:9c:c2:ba:e6:00:58:78:e8:09:9f:83:b3:56:75:9a:5a:76:db:65:60:ef:2d:2b:b5:04:37:f9:b5:53:4c:78:91:cc:a2:41:9d:03:13:a0:b9:2d:10:e5:06:99:0c:ce:1e:5d:78:c5:34:54:d8:49:f7:25:35:e3:39:71:c1:24:f3:10:63:c7:c5:38:78:99:5d:d0:b7:da:ba:7e:25:7c:1f:c7:de:4a:7e:0c:f1:d7:ea:76:fc:fd:98:b3:c8:dc:20:cf:8f:b9:c2:4f:c9:cb:9f:64:5d:64:a4:4d:0d:91:47:3c:d2:4f:bd:4b:92:ec:1d:1a:55:86:4f:46:28:a8:6f:8e:e7:37:0c:0b:7e:71:dd:08:a2:20:82:3a:19:40:dd:47:3f:07:55:7e:05:6e:a0:64:60:b4:7b:e4:dc:1a:82:79:fc:fd:d6:c1:b8:8b:05:a0:84:9a:40:4c:74:87:2b:e4:77:03:64:af:3f:f5:04:83:c1:3a:02:f9:05:60:95:0a:24:94:8c:84:90:07:ad:b1:23:ce:22:52:f3:3c:13:f7:58:73:82:cf:5d:78:3b:58:cc:30:1b:f1:ca:16:86:97:42:7f:05:ca:49:a8:10:a9:fb:80:d3:99:b9:2d:48:ab:aa:3b:1c:25:2a:28:cb:93:d6:85:32:6f:d8:6c:b7:97:32:a4:80:f6:d0:16:33:0a:66:8d:06:41:e0:26:16:18:0c:ee:bd:a4" value="170303001dc75a0436728de62cde41e549c158474dfe7b7a35cc04392ff9c31ca698170303099d9b3ca8a2bfef1d94d5be66ad04eafaebd99ba3b65794c8829e9db0662674c485c3605fd71806f6028473195f343036ecba3bc128fcae8da0b4cabb632cbfabf48247b33749b9fe7b68c1eafea38c85fedc65c533f839457c7842f4e7c045b24db022e35cc1df961e37ac2ca48d274a6d60bdf93fa3bc5128a06a61325c04854b47a3e4f031d62c1362038ef2661a6c2beb5d059171ad67f2c27ed148a4b9a142875e9d9106069998645a01ed93053dcbc58cdbd03713c57f7aca20c12293ba22c3ed61fe04ea2bb8077add44bfdcf646ab0b53b3276d7c0acbeeb6b5f973aef90020cefe6618da74a1b4086aed60265be10388b6aeac629eacd1ad360a10f4a07dcde559c279bafeaff27217028706b28a195a55b9a8ad2ef5fb5f2a5965607c9bf54c978626f3bf4af6f110c9011d5b2a46bf67356c182691bd3545aa5f7c684aef4d926c295a764fb236a2ce16634cd1e2a0b866fd0555df6c171b2646a56fb87e5829d83657652e42f7c3575a05873d5261b30e4ef5aac16f462fd867877e97d1f7840b3a50189385e52435d6ca5ba3ef3703ad396e2da21bcb408ec096d613e94a6fc64081caa77db49a52dc2a272a6a3cf53b748a016b5b9d03e11f232ff429b82a8a1dfd80aeaf755266e6fe1875fb9bf7f66d618632a797fb1bdc023fdbab5105f7b914c54fd78c1de052ed1d4a335b50b1fab4787a1eb7af49a3babb5b0604fbb445445900b1494f50937aa7132c564e22d9864e7c4b54e28d00a0059efe63571fff45d92bcb90ea3b01adc3aedc096256de377d631177b0b73528a0e83f82bcc719ee64d7d936ef56fbc03e86c1ea2b61e409bfa6cc303866fd675b9cd8a26cb8dc5a3e2a531484dcb093a6c755e0481ad2e68370d235528ef7b01f119debcb16c31389430aba4975c8fbfa6d8ba5d4f31d1dd0cc769dd9601296c83c3b3b04da04978dec25bff2c97dc02e83e5be8c65ceb3873bd08f76ad386380d7b10985cf37bfafd1ccb901964329d903d2385b8d95a3c1817dc887399ec0214464babe6812c8daa480600e67a4276b91b6eca3fb1f3e809faf9eef5643b32daced5edc8137143eb18d346c9b3ca33679c5b2f0cf567acc10ecea41fccb401ee1b34d5b5824a857782308f8038bd40ee0013f879ea4fefcac4809865a2f71d1d234d29ff017e096dd0c2b14abba2f4822b5b02beab05ae89161caa5ec519c65b847ff7e9d1af05790ddf4ce1155a1b95001bb5d47252e321e5bb8c6a48d277b3c8b753956f56b0bd6e67c5039e41531debb8f7709ab078fa8f78c5b6d8073444f442988b26ff3584a8d76b31f13becdf528c382b96e643a1c44cce5b34ae192a873259c60c74985e21feead1301cefd33a99f3dca1132423e4284a58c13626d88e2ae3ab302b9a5be5472b650fe79c9ceff61f30c50d5b807d029babfcbd192f15760dbdce8a8c2ac8fd864ce639ff008b9b529a13f83391786fb1d7499be8e289d2b500c187dcba01c3435ff677e3b220c02d97dcd7d3d16c405ffbbd1be72baaec314826cbd46998909b7031afa350e187c40910fe15381a25cd534a9d14260ac4b1bff7338e7ab303d81f64dff69f55c4854c951ddc49cc2bae6005878e8099f83b356759a5a76db6560ef2d2bb50437f9b5534c7891cca2419d0313a0b92d10e506990cce1e5d78c53454d849f72535e33971c124f31063c7c53878995dd0b7daba7e257c1fc7de4a7e0cf1d7ea76fcfd98b3c8dc20cf8fb9c24fc9cb9f645d64a44d0d91473cd24fbd4b92ec1d1a55864f4628a86f8ee7370c0b7e71dd08a220823a1940dd473f07557e056ea06460b47be4dc1a8279fcfdd6c1b88b05a0849a404c74872be4770364af3ff50483c13a02f90560950a24948c849007adb123ce2252f33c13f7587382cf5d783b58cc301bf1ca168697427f05ca49a810a9fb80d399b92d48abaa3b1c252a28cb93d685326fd86cb79732a480f6d016330a668d0641e02616180ceebda4"/>
      <field name="data.len" showname="Length: 1460" size="0" pos="54" show="1460"/>
  </field>
</proto>
</packet>


<packet>
  <proto name="geninfo" pos="0" showname="General information" size="54">
    <field name="num" pos="0" show="9" showname="Number" value="9" size="54"/>
    <field name="len" pos="0" show="54" showname="Frame Length" value="36" size="54"/>
    <field name="caplen" pos="0" show="54" showname="Captured Length" value="36" size="54"/>
    <field name="timestamp" pos="0" show="Jun 27, 2019 12:20:57.210687000 CEST" showname="Captured Time" value="1561630857.210687000" size="54"/>
  </proto>
  <proto name="frame" showname="Frame 9: 54 bytes on wire (432 bits), 54 bytes captured (432 bits) on interface 0" size="54" pos="0">
    <field name="frame.interface_id" showname="Interface id: 0" size="0" pos="0" show="0"/>
    <field name="frame.encap_type" showname="Encapsulation type: Ethernet (1)" size="0" pos="0" show="1"/>
    <field name="frame.time" showname="Arrival Time: Jun 27, 2019 12:20:57.210687000 CEST" size="0" pos="0" show="&quot;Jun 27, 2019 12:20:57.210687000 CEST&quot;"/>
    <field name="frame.offset_shift" showname="Time shift for this packet: 0.000000000 seconds" size="0" pos="0" show="0.000000000"/>
    <field name="frame.time_epoch" showname="Epoch Time: 1561630857.210687000 seconds" size="0" pos="0" show="1561630857.210687000"/>
    <field name="frame.time_delta" showname="Time delta from previous captured frame: 0.000019000 seconds" size="0" pos="0" show="0.000019000"/>
    <field name="frame.time_delta_displayed" showname="Time delta from previous displayed frame: 0.000019000 seconds" size="0" pos="0" show="0.000019000"/>
    <field name="frame.time_relative" showname="Time since reference or first frame: 0.009280000 seconds" size="0" pos="0" show="0.009280000"/>
    <field name="frame.number" showname="Frame Number: 9" size="0" pos="0" show="9"/>
    <field name="frame.len" showname="Frame Length: 54 bytes (432 bits)" size="0" pos="0" show="54"/>
    <field name="frame.cap_len" showname="Capture Length: 54 bytes (432 bits)" size="0" pos="0" show="54"/>
    <field name="frame.marked" showname="Frame is marked: False" size="0" pos="0" show="0"/>
    <field name="frame.ignored" showname="Frame is ignored: False" size="0" pos="0" show="0"/>
    <field name="frame.protocols" showname="Protocols in frame: eth:ip:tcp" size="0" pos="0" show="eth:ip:tcp"/>
  </proto>
  <proto name="eth" showname="Ethernet II, Src: 02:42:ac:11:00:02 (02:42:ac:11:00:02), Dst: 02:42:71:12:56:af (02:42:71:12:56:af)" size="14" pos="0">
    <field name="eth.dst" showname="Destination: 02:42:71:12:56:af (02:42:71:12:56:af)" size="6" pos="0" show="02:42:71:12:56:af" value="0242711256af">
      <field name="eth.addr" showname="Address: 02:42:71:12:56:af (02:42:71:12:56:af)" size="6" pos="0" show="02:42:71:12:56:af" value="0242711256af"/>
      <field name="eth.lg" showname=".... ..1. .... .... .... .... = LG bit: Locally administered address (this is NOT the factory default)" size="3" pos="0" show="1" value="1" unmaskedvalue="024271"/>
      <field name="eth.ig" showname=".... ...0 .... .... .... .... = IG bit: Individual address (unicast)" size="3" pos="0" show="0" value="0" unmaskedvalue="024271"/>
    </field>
    <field name="eth.src" showname="Source: 02:42:ac:11:00:02 (02:42:ac:11:00:02)" size="6" pos="6" show="02:42:ac:11:00:02" value="0242ac110002">
      <field name="eth.addr" showname="Address: 02:42:ac:11:00:02 (02:42:ac:11:00:02)" size="6" pos="6" show="02:42:ac:11:00:02" value="0242ac110002"/>
      <field name="eth.lg" showname=".... ..1. .... .... .... .... = LG bit: Locally administered address (this is NOT the factory default)" size="3" pos="6" show="1" value="1" unmaskedvalue="0242ac"/>
      <field name="eth.ig" showname=".... ...0 .... .... .... .... = IG bit: Individual address (unicast)" size="3" pos="6" show="0" value="0" unmaskedvalue="0242ac"/>
    </field>
    <field name="eth.type" showname="Type: IP (0x0800)" size="2" pos="12" show="2048" value="0800"/>
  </proto>
  <proto name="ip" showname="Internet Protocol Version 4, Src: 172.17.0.2 (172.17.0.2), Dst: 1.1.1.1 (1.1.1.1)" size="20" pos="14">
    <field name="ip.version" showname="Version: 4" size="1" pos="14" show="4" value="45"/>
    <field name="ip.hdr_len" showname="Header length: 20 bytes" size="1" pos="14" show="20" value="45"/>
    <field name="ip.dsfield" showname="Differentiated Services Field: 0x00 (DSCP 0x00: Default; ECN: 0x00: Not-ECT (Not ECN-Capable Transport))" size="1" pos="15" show="0" value="00">
      <field name="ip.dsfield.dscp" showname="0000 00.. = Differentiated Services Codepoint: Default (0x00)" size="1" pos="15" show="0" value="0" unmaskedvalue="00"/>
      <field name="ip.dsfield.ecn" showname=".... ..00 = Explicit Congestion Notification: Not-ECT (Not ECN-Capable Transport) (0x00)" size="1" pos="15" show="0" value="0" unmaskedvalue="00"/>
    </field>
    <field name="ip.len" showname="Total Length: 40" size="2" pos="16" show="40" value="0028"/>
    <field name="ip.id" showname="Identification: 0xc40d (50189)" size="2" pos="18" show="50189" value="c40d"/>
    <field name="ip.flags" showname="Flags: 0x02 (Don&apos;t Fragment)" size="1" pos="20" show="2" value="40">
      <field name="ip.flags.rb" showname="0... .... = Reserved bit: Not set" size="1" pos="20" show="0" value="40"/>
      <field name="ip.flags.df" showname=".1.. .... = Don&apos;t fragment: Set" size="1" pos="20" show="1" value="40"/>
      <field name="ip.flags.mf" showname="..0. .... = More fragments: Not set" size="1" pos="20" show="0" value="40"/>
    </field>
    <field name="ip.frag_offset" showname="Fragment offset: 0" size="2" pos="20" show="0" value="4000"/>
    <field name="ip.ttl" showname="Time to live: 64" size="1" pos="22" show="64" value="40"/>
    <field name="ip.proto" showname="Protocol: TCP (6)" size="1" pos="23" show="6" value="06"/>
    <field name="ip.checksum" showname="Header checksum: 0xc8ad [validation disabled]" size="2" pos="24" show="51373" value="c8ad">
      <field name="ip.checksum_good" showname="Good: False" size="2" pos="24" show="0" value="c8ad"/>
      <field name="ip.checksum_bad" showname="Bad: False" size="2" pos="24" show="0" value="c8ad"/>
    </field>
    <field name="ip.src" showname="Source: 172.17.0.2 (172.17.0.2)" size="4" pos="26" show="172.17.0.2" value="ac110002"/>
    <field name="ip.addr" showname="Source or Destination Address: 172.17.0.2 (172.17.0.2)" hide="yes" size="4" pos="26" show="172.17.0.2" value="ac110002"/>
    <field name="ip.src_host" showname="Source Host: 172.17.0.2" hide="yes" size="4" pos="26" show="172.17.0.2" value="ac110002"/>
    <field name="ip.host" showname="Source or Destination Host: 172.17.0.2" hide="yes" size="4" pos="26" show="172.17.0.2" value="ac110002"/>
    <field name="ip.dst" showname="Destination: 1.1.1.1 (1.1.1.1)" size="4" pos="30" show="1.1.1.1" value="01010101"/>
    <field name="ip.addr" showname="Source or Destination Address: 1.1.1.1 (1.1.1.1)" hide="yes" size="4" pos="30" show="1.1.1.1" value="01010101"/>
    <field name="ip.dst_host" showname="Destination Host: 1.1.1.1" hide="yes" size="4" pos="30" show="1.1.1.1" value="01010101"/>
    <field name="ip.host" showname="Source or Destination Host: 1.1.1.1" hide="yes" size="4" pos="30" show="1.1.1.1" value="01010101"/>
  </proto>
  <proto name="tcp" showname="Transmission Control Protocol, Src Port: 59658 (59658), Dst Port: 853 (853), Seq: 338, Ack: 1595, Len: 0" size="20" pos="34">
    <field name="tcp.srcport" showname="Source port: 59658 (59658)" size="2" pos="34" show="59658" value="e90a"/>
    <field name="tcp.dstport" showname="Destination port: 853 (853)" size="2" pos="36" show="853" value="0355"/>
    <field name="tcp.port" showname="Source or Destination Port: 59658" hide="yes" size="2" pos="34" show="59658" value="e90a"/>
    <field name="tcp.port" showname="Source or Destination Port: 853" hide="yes" size="2" pos="36" show="853" value="0355"/>
    <field name="tcp.stream" showname="Stream index: 0" size="0" pos="34" show="0"/>
    <field name="tcp.len" showname="TCP Segment Len: 0" hide="yes" size="1" pos="46" show="0" value="50"/>
    <field name="tcp.seq" showname="Sequence number: 338    (relative sequence number)" size="4" pos="38" show="338" value="6360ae53"/>
    <field name="tcp.ack" showname="Acknowledgment number: 1595    (relative ack number)" size="4" pos="42" show="1595" value="7d3d98a7"/>
    <field name="tcp.hdr_len" showname="Header length: 20 bytes" size="1" pos="46" show="20" value="50"/>
    <field name="tcp.flags" showname="Flags: 0x010 (ACK)" size="2" pos="46" show="16" value="10" unmaskedvalue="5010">
      <field name="tcp.flags.res" showname="000. .... .... = Reserved: Not set" size="1" pos="46" show="0" value="0" unmaskedvalue="50"/>
      <field name="tcp.flags.ns" showname="...0 .... .... = Nonce: Not set" size="1" pos="46" show="0" value="0" unmaskedvalue="50"/>
      <field name="tcp.flags.cwr" showname=".... 0... .... = Congestion Window Reduced (CWR): Not set" size="1" pos="47" show="0" value="0" unmaskedvalue="10"/>
      <field name="tcp.flags.ecn" showname=".... .0.. .... = ECN-Echo: Not set" size="1" pos="47" show="0" value="0" unmaskedvalue="10"/>
      <field name="tcp.flags.urg" showname=".... ..0. .... = Urgent: Not set" size="1" pos="47" show="0" value="0" unmaskedvalue="10"/>
      <field name="tcp.flags.ack" showname=".... ...1 .... = Acknowledgment: Set" size="1" pos="47" show="1" value="1" unmaskedvalue="10"/>
      <field name="tcp.flags.push" showname=".... .... 0... = Push: Not set" size="1" pos="47" show="0" value="0" unmaskedvalue="10"/>
      <field name="tcp.flags.reset" showname=".... .... .0.. = Reset: Not set" size="1" pos="47" show="0" value="0" unmaskedvalue="10"/>
      <field name="tcp.flags.syn" showname=".... .... ..0. = Syn: Not set" size="1" pos="47" show="0" value="0" unmaskedvalue="10"/>
      <field name="tcp.flags.fin" showname=".... .... ...0 = Fin: Not set" size="1" pos="47" show="0" value="0" unmaskedvalue="10"/>
    </field>
    <field name="tcp.window_size_value" showname="Window size value: 260" size="2" pos="48" show="260" value="0104"/>
    <field name="tcp.window_size" showname="Calculated window size: 33280" size="2" pos="48" show="33280" value="0104"/>
    <field name="tcp.window_size_scalefactor" showname="Window size scaling factor: 128" size="2" pos="48" show="128" value="0104"/>
    <field name="tcp.checksum" showname="Checksum: 0xae2f [validation disabled]" size="2" pos="50" show="44591" value="ae2f">
      <field name="tcp.checksum_good" showname="Good Checksum: False" size="2" pos="50" show="0" value="ae2f"/>
      <field name="tcp.checksum_bad" showname="Bad Checksum: False" size="2" pos="50" show="0" value="ae2f"/>
    </field>
    <field name="tcp.analysis" showname="SEQ/ACK analysis" size="0" pos="34" show="" value="">
      <field name="tcp.analysis.acks_frame" showname="This is an ACK to the segment in frame: 8" size="0" pos="34" show="8"/>
      <field name="tcp.analysis.ack_rtt" showname="The RTT to ACK the segment was: 0.000019000 seconds" size="0" pos="34" show="0.000019000"/>
    </field>
  </proto>
</packet>


<packet>
  <proto name="geninfo" pos="0" showname="General information" size="1269">
    <field name="num" pos="0" show="10" showname="Number" value="a" size="1269"/>
    <field name="len" pos="0" show="1269" showname="Frame Length" value="4f5" size="1269"/>
    <field name="caplen" pos="0" show="1269" showname="Captured Length" value="4f5" size="1269"/>
    <field name="timestamp" pos="0" show="Jun 27, 2019 12:20:57.210721000 CEST" showname="Captured Time" value="1561630857.210721000" size="1269"/>
  </proto>
  <proto name="frame" showname="Frame 10: 1269 bytes on wire (10152 bits), 1269 bytes captured (10152 bits) on interface 0" size="1269" pos="0">
    <field name="frame.interface_id" showname="Interface id: 0" size="0" pos="0" show="0"/>
    <field name="frame.encap_type" showname="Encapsulation type: Ethernet (1)" size="0" pos="0" show="1"/>
    <field name="frame.time" showname="Arrival Time: Jun 27, 2019 12:20:57.210721000 CEST" size="0" pos="0" show="&quot;Jun 27, 2019 12:20:57.210721000 CEST&quot;"/>
    <field name="frame.offset_shift" showname="Time shift for this packet: 0.000000000 seconds" size="0" pos="0" show="0.000000000"/>
    <field name="frame.time_epoch" showname="Epoch Time: 1561630857.210721000 seconds" size="0" pos="0" show="1561630857.210721000"/>
    <field name="frame.time_delta" showname="Time delta from previous captured frame: 0.000034000 seconds" size="0" pos="0" show="0.000034000"/>
    <field name="frame.time_delta_displayed" showname="Time delta from previous displayed frame: 0.000034000 seconds" size="0" pos="0" show="0.000034000"/>
    <field name="frame.time_relative" showname="Time since reference or first frame: 0.009314000 seconds" size="0" pos="0" show="0.009314000"/>
    <field name="frame.number" showname="Frame Number: 10" size="0" pos="0" show="10"/>
    <field name="frame.len" showname="Frame Length: 1269 bytes (10152 bits)" size="0" pos="0" show="1269"/>
    <field name="frame.cap_len" showname="Capture Length: 1269 bytes (10152 bits)" size="0" pos="0" show="1269"/>
    <field name="frame.marked" showname="Frame is marked: False" size="0" pos="0" show="0"/>
    <field name="frame.ignored" showname="Frame is ignored: False" size="0" pos="0" show="0"/>
    <field name="frame.protocols" showname="Protocols in frame: eth:ip:tcp:data" size="0" pos="0" show="eth:ip:tcp:data"/>
  </proto>
  <proto name="eth" showname="Ethernet II, Src: 02:42:71:12:56:af (02:42:71:12:56:af), Dst: 02:42:ac:11:00:02 (02:42:ac:11:00:02)" size="14" pos="0">
    <field name="eth.dst" showname="Destination: 02:42:ac:11:00:02 (02:42:ac:11:00:02)" size="6" pos="0" show="02:42:ac:11:00:02" value="0242ac110002">
      <field name="eth.addr" showname="Address: 02:42:ac:11:00:02 (02:42:ac:11:00:02)" size="6" pos="0" show="02:42:ac:11:00:02" value="0242ac110002"/>
      <field name="eth.lg" showname=".... ..1. .... .... .... .... = LG bit: Locally administered address (this is NOT the factory default)" size="3" pos="0" show="1" value="1" unmaskedvalue="0242ac"/>
      <field name="eth.ig" showname=".... ...0 .... .... .... .... = IG bit: Individual address (unicast)" size="3" pos="0" show="0" value="0" unmaskedvalue="0242ac"/>
    </field>
    <field name="eth.src" showname="Source: 02:42:71:12:56:af (02:42:71:12:56:af)" size="6" pos="6" show="02:42:71:12:56:af" value="0242711256af">
      <field name="eth.addr" showname="Address: 02:42:71:12:56:af (02:42:71:12:56:af)" size="6" pos="6" show="02:42:71:12:56:af" value="0242711256af"/>
      <field name="eth.lg" showname=".... ..1. .... .... .... .... = LG bit: Locally administered address (this is NOT the factory default)" size="3" pos="6" show="1" value="1" unmaskedvalue="024271"/>
      <field name="eth.ig" showname=".... ...0 .... .... .... .... = IG bit: Individual address (unicast)" size="3" pos="6" show="0" value="0" unmaskedvalue="024271"/>
    </field>
    <field name="eth.type" showname="Type: IP (0x0800)" size="2" pos="12" show="2048" value="0800"/>
  </proto>
  <proto name="ip" showname="Internet Protocol Version 4, Src: 1.1.1.1 (1.1.1.1), Dst: 172.17.0.2 (172.17.0.2)" size="20" pos="14">
    <field name="ip.version" showname="Version: 4" size="1" pos="14" show="4" value="45"/>
    <field name="ip.hdr_len" showname="Header length: 20 bytes" size="1" pos="14" show="20" value="45"/>
    <field name="ip.dsfield" showname="Differentiated Services Field: 0x00 (DSCP 0x00: Default; ECN: 0x00: Not-ECT (Not ECN-Capable Transport))" size="1" pos="15" show="0" value="00">
      <field name="ip.dsfield.dscp" showname="0000 00.. = Differentiated Services Codepoint: Default (0x00)" size="1" pos="15" show="0" value="0" unmaskedvalue="00"/>
      <field name="ip.dsfield.ecn" showname=".... ..00 = Explicit Congestion Notification: Not-ECT (Not ECN-Capable Transport) (0x00)" size="1" pos="15" show="0" value="0" unmaskedvalue="00"/>
    </field>
    <field name="ip.len" showname="Total Length: 1255" size="2" pos="16" show="1255" value="04e7"/>
    <field name="ip.id" showname="Identification: 0x2df2 (11762)" size="2" pos="18" show="11762" value="2df2"/>
    <field name="ip.flags" showname="Flags: 0x02 (Don&apos;t Fragment)" size="1" pos="20" show="2" value="40">
      <field name="ip.flags.rb" showname="0... .... = Reserved bit: Not set" size="1" pos="20" show="0" value="40"/>
      <field name="ip.flags.df" showname=".1.. .... = Don&apos;t fragment: Set" size="1" pos="20" show="1" value="40"/>
      <field name="ip.flags.mf" showname="..0. .... = More fragments: Not set" size="1" pos="20" show="0" value="40"/>
    </field>
    <field name="ip.frag_offset" showname="Fragment offset: 0" size="2" pos="20" show="0" value="4000"/>
    <field name="ip.ttl" showname="Time to live: 57" size="1" pos="22" show="57" value="39"/>
    <field name="ip.proto" showname="Protocol: TCP (6)" size="1" pos="23" show="6" value="06"/>
    <field name="ip.checksum" showname="Header checksum: 0x610a [validation disabled]" size="2" pos="24" show="24842" value="610a">
      <field name="ip.checksum_good" showname="Good: False" size="2" pos="24" show="0" value="610a"/>
      <field name="ip.checksum_bad" showname="Bad: False" size="2" pos="24" show="0" value="610a"/>
    </field>
    <field name="ip.src" showname="Source: 1.1.1.1 (1.1.1.1)" size="4" pos="26" show="1.1.1.1" value="01010101"/>
    <field name="ip.addr" showname="Source or Destination Address: 1.1.1.1 (1.1.1.1)" hide="yes" size="4" pos="26" show="1.1.1.1" value="01010101"/>
    <field name="ip.src_host" showname="Source Host: 1.1.1.1" hide="yes" size="4" pos="26" show="1.1.1.1" value="01010101"/>
    <field name="ip.host" showname="Source or Destination Host: 1.1.1.1" hide="yes" size="4" pos="26" show="1.1.1.1" value="01010101"/>
    <field name="ip.dst" showname="Destination: 172.17.0.2 (172.17.0.2)" size="4" pos="30" show="172.17.0.2" value="ac110002"/>
    <field name="ip.addr" showname="Source or Destination Address: 172.17.0.2 (172.17.0.2)" hide="yes" size="4" pos="30" show="172.17.0.2" value="ac110002"/>
    <field name="ip.dst_host" showname="Destination Host: 172.17.0.2" hide="yes" size="4" pos="30" show="172.17.0.2" value="ac110002"/>
    <field name="ip.host" showname="Source or Destination Host: 172.17.0.2" hide="yes" size="4" pos="30" show="172.17.0.2" value="ac110002"/>
  </proto>
  <proto name="tcp" showname="Transmission Control Protocol, Src Port: 853 (853), Dst Port: 59658 (59658), Seq: 1595, Ack: 338, Len: 1215" size="20" pos="34">
    <field name="tcp.srcport" showname="Source port: 853 (853)" size="2" pos="34" show="853" value="0355"/>
    <field name="tcp.dstport" showname="Destination port: 59658 (59658)" size="2" pos="36" show="59658" value="e90a"/>
    <field name="tcp.port" showname="Source or Destination Port: 853" hide="yes" size="2" pos="34" show="853" value="0355"/>
    <field name="tcp.port" showname="Source or Destination Port: 59658" hide="yes" size="2" pos="36" show="59658" value="e90a"/>
    <field name="tcp.stream" showname="Stream index: 0" size="0" pos="34" show="0"/>
    <field name="tcp.len" showname="TCP Segment Len: 1215" hide="yes" size="1" pos="46" show="1215" value="50"/>
    <field name="tcp.seq" showname="Sequence number: 1595    (relative sequence number)" size="4" pos="38" show="1595" value="7d3d98a7"/>
    <field name="tcp.nxtseq" showname="Next sequence number: 2810    (relative sequence number)" size="0" pos="34" show="2810"/>
    <field name="tcp.ack" showname="Acknowledgment number: 338    (relative ack number)" size="4" pos="42" show="338" value="6360ae53"/>
    <field name="tcp.hdr_len" showname="Header length: 20 bytes" size="1" pos="46" show="20" value="50"/>
    <field name="tcp.flags" showname="Flags: 0x018 (PSH, ACK)" size="2" pos="46" show="24" value="18" unmaskedvalue="5018">
      <field name="tcp.flags.res" showname="000. .... .... = Reserved: Not set" size="1" pos="46" show="0" value="0" unmaskedvalue="50"/>
      <field name="tcp.flags.ns" showname="...0 .... .... = Nonce: Not set" size="1" pos="46" show="0" value="0" unmaskedvalue="50"/>
      <field name="tcp.flags.cwr" showname=".... 0... .... = Congestion Window Reduced (CWR): Not set" size="1" pos="47" show="0" value="0" unmaskedvalue="18"/>
      <field name="tcp.flags.ecn" showname=".... .0.. .... = ECN-Echo: Not set" size="1" pos="47" show="0" value="0" unmaskedvalue="18"/>
      <field name="tcp.flags.urg" showname=".... ..0. .... = Urgent: Not set" size="1" pos="47" show="0" value="0" unmaskedvalue="18"/>
      <field name="tcp.flags.ack" showname=".... ...1 .... = Acknowledgment: Set" size="1" pos="47" show="1" value="1" unmaskedvalue="18"/>
      <field name="tcp.flags.push" showname=".... .... 1... = Push: Set" size="1" pos="47" show="1" value="1" unmaskedvalue="18"/>
      <field name="tcp.flags.reset" showname=".... .... .0.. = Reset: Not set" size="1" pos="47" show="0" value="0" unmaskedvalue="18"/>
      <field name="tcp.flags.syn" showname=".... .... ..0. = Syn: Not set" size="1" pos="47" show="0" value="0" unmaskedvalue="18"/>
      <field name="tcp.flags.fin" showname=".... .... ...0 = Fin: Not set" size="1" pos="47" show="0" value="0" unmaskedvalue="18"/>
    </field>
    <field name="tcp.window_size_value" showname="Window size value: 30" size="2" pos="48" show="30" value="001e"/>
    <field name="tcp.window_size" showname="Calculated window size: 30720" size="2" pos="48" show="30720" value="001e"/>
    <field name="tcp.window_size_scalefactor" showname="Window size scaling factor: 1024" size="2" pos="48" show="1024" value="001e"/>
    <field name="tcp.checksum" showname="Checksum: 0x3b5a [validation disabled]" size="2" pos="50" show="15194" value="3b5a">
      <field name="tcp.checksum_good" showname="Good Checksum: False" size="2" pos="50" show="0" value="3b5a"/>
      <field name="tcp.checksum_bad" showname="Bad Checksum: False" size="2" pos="50" show="0" value="3b5a"/>
    </field>
    <field name="tcp.analysis" showname="SEQ/ACK analysis" size="0" pos="34" show="" value="">
      <field name="tcp.analysis.bytes_in_flight" showname="Bytes in flight: 1215" size="0" pos="34" show="1215"/>
    </field>
  </proto>
  <proto name="fake-field-wrapper">
    <field name="data" value="164b201a75a18e75cc9c0192ba217bea801fca736be51ce24e706533ae5804e21e900c61cdca1412a34deb8ba2b315b005828eb9ea410fca3713e6cd8844604acd40eb8e68efb2b81ffa130e2ecc56bf4dc2cbb34271ba9b7428897ba71ed663377fa50fca1801c3c57e20e30ca5ed245e14fc0deb8593f14e438978f09fc1635d8e09ab2e375c48f61c0f9bc496da4b8ede0b1dd8d77969ca3ee44f7549476622aa4cc8c21d00672029e81ccebdc0ee83005d91098624005268e9f961244d2798f64ae16c510ee3847f3e0a10e3713f7438565add400501769b5bc3197e55f0491d12850ed4d2c93e4ea8a1cb61ee73d8c3f886c4dda389b506e31dac1463a0d61da4798ff20d42d11372a1c33159c4102c08f7dddadcc1960b142f9b599999db79a1aaa4768fde913ab4ef3188799d28922e21bf4b66f5277cc05c1601466080412406b681dbbe6fa1c50497a64a27537a61eb3fb02c44ba5c7effb46b971c57ada6e87cd5a290562bcc77149587bb7364039dc56270a8cfb084d9cbebc70a32a0d40f7ddca1156ab6365ce061a5782820e5ebb5a9fd4a8d5ec41a7b2a07ece92e64e89f6e4756284aafa2edcddcdeae1d93d3cef09b423ac4e53ba10f2f9f4a577ce70fc820a783c67f4477215c7da05c01d453f8c8167074fc572cc973b6208b02e819f3a49cde5f368a170cd169b0540edfd68839f1e2cc271c9458d0cd05553b5f79bb41e551d0c1c54bf1336efae7ea057245373195fc4934acd1ac998fcca18b9366200e75e9e3da5df03fc28657feddba4cb19d0656efc56e2b2decdec75bcb2ce994753c5e985eedd6fe2bdcdb7cb9f53c82f27744b65036a73db2f4b5de8af0b72d9310555765f48f1fc058f18a0d5020e9c7853c68aa4f53372be3f802c31071318d7a9019ecc857aa4b8ca987cde6f9d9bbb177910a2ee3cdab56ac2eea58f2b7efc3b7a3ef8ca66442522a7e914ea2a6e84da708cc54ec9d0875a92471313e859f6987e2e7dbb2315ced10c613500631b2d9e9afdc3470790d5934bf6beaae30d5ed406aaa96e732c1e8a0a9439596de1bf210c3a74ef00ac380e84a8045047d810190a683d0f608f6fad279532abba57cedd9520eda42b292fc55c691929af60e9e25250e49a42bfac7f78c3c857c311d7190ccb311aa7c4d57339ad4c5f75db8ea814d3b9cc8c747cfad1577498c385beda19468dd079b4ce9fe3c583296020ceb2993e4a73ca10ddff6b739058a25922cea346be70e0bd3520614bb0da5bad71ff2e5b1deed9f8600adaf98083cdcdf588cf3412ebc7a80eb5cbe4ed8ef509d7c8a9b6b1c896dcc92344451bd9dd789ecae4dbaa85a1366fd1c945764d8e65d6b18b7cc31fd6e96a028c8d233a82925c6bf5715d6868904d30aad55981957be351684342366e3c708b560353aab075855b82986b7d3159007ff737e53eca787e24114ea8560da711703030060539af747aa2d313fd3f8734cf27fdea7fb2633309a46ced453607965211a834fea2b003dc89a24010f4b3be1262d451c0ce21510f16eb0218f0e0e46c830921764751f8a60f26a3d9f187ccf6dbf59a00b6148d4edf4ea72aa24172aa3be603517030300453f0770d875eb7a1b8c7062e8d76606a88cf614426dd78565229e189b199075ecdf8c90d3cfdf6e84eb32f8138ce5522b6663bdb9e55bf9ac2164db102932201bb4a0ffded5">
      <field name="data.data" showname="Data: 164b201a75a18e75cc9c0192ba217bea801fca736be51ce2..." size="1215" pos="54" show="16:4b:20:1a:75:a1:8e:75:cc:9c:01:92:ba:21:7b:ea:80:1f:ca:73:6b:e5:1c:e2:4e:70:65:33:ae:58:04:e2:1e:90:0c:61:cd:ca:14:12:a3:4d:eb:8b:a2:b3:15:b0:05:82:8e:b9:ea:41:0f:ca:37:13:e6:cd:88:44:60:4a:cd:40:eb:8e:68:ef:b2:b8:1f:fa:13:0e:2e:cc:56:bf:4d:c2:cb:b3:42:71:ba:9b:74:28:89:7b:a7:1e:d6:63:37:7f:a5:0f:ca:18:01:c3:c5:7e:20:e3:0c:a5:ed:24:5e:14:fc:0d:eb:85:93:f1:4e:43:89:78:f0:9f:c1:63:5d:8e:09:ab:2e:37:5c:48:f6:1c:0f:9b:c4:96:da:4b:8e:de:0b:1d:d8:d7:79:69:ca:3e:e4:4f:75:49:47:66:22:aa:4c:c8:c2:1d:00:67:20:29:e8:1c:ce:bd:c0:ee:83:00:5d:91:09:86:24:00:52:68:e9:f9:61:24:4d:27:98:f6:4a:e1:6c:51:0e:e3:84:7f:3e:0a:10:e3:71:3f:74:38:56:5a:dd:40:05:01:76:9b:5b:c3:19:7e:55:f0:49:1d:12:85:0e:d4:d2:c9:3e:4e:a8:a1:cb:61:ee:73:d8:c3:f8:86:c4:dd:a3:89:b5:06:e3:1d:ac:14:63:a0:d6:1d:a4:79:8f:f2:0d:42:d1:13:72:a1:c3:31:59:c4:10:2c:08:f7:dd:da:dc:c1:96:0b:14:2f:9b:59:99:99:db:79:a1:aa:a4:76:8f:de:91:3a:b4:ef:31:88:79:9d:28:92:2e:21:bf:4b:66:f5:27:7c:c0:5c:16:01:46:60:80:41:24:06:b6:81:db:be:6f:a1:c5:04:97:a6:4a:27:53:7a:61:eb:3f:b0:2c:44:ba:5c:7e:ff:b4:6b:97:1c:57:ad:a6:e8:7c:d5:a2:90:56:2b:cc:77:14:95:87:bb:73:64:03:9d:c5:62:70:a8:cf:b0:84:d9:cb:eb:c7:0a:32:a0:d4:0f:7d:dc:a1:15:6a:b6:36:5c:e0:61:a5:78:28:20:e5:eb:b5:a9:fd:4a:8d:5e:c4:1a:7b:2a:07:ec:e9:2e:64:e8:9f:6e:47:56:28:4a:af:a2:ed:cd:dc:de:ae:1d:93:d3:ce:f0:9b:42:3a:c4:e5:3b:a1:0f:2f:9f:4a:57:7c:e7:0f:c8:20:a7:83:c6:7f:44:77:21:5c:7d:a0:5c:01:d4:53:f8:c8:16:70:74:fc:57:2c:c9:73:b6:20:8b:02:e8:19:f3:a4:9c:de:5f:36:8a:17:0c:d1:69:b0:54:0e:df:d6:88:39:f1:e2:cc:27:1c:94:58:d0:cd:05:55:3b:5f:79:bb:41:e5:51:d0:c1:c5:4b:f1:33:6e:fa:e7:ea:05:72:45:37:31:95:fc:49:34:ac:d1:ac:99:8f:cc:a1:8b:93:66:20:0e:75:e9:e3:da:5d:f0:3f:c2:86:57:fe:dd:ba:4c:b1:9d:06:56:ef:c5:6e:2b:2d:ec:de:c7:5b:cb:2c:e9:94:75:3c:5e:98:5e:ed:d6:fe:2b:dc:db:7c:b9:f5:3c:82:f2:77:44:b6:50:36:a7:3d:b2:f4:b5:de:8a:f0:b7:2d:93:10:55:57:65:f4:8f:1f:c0:58:f1:8a:0d:50:20:e9:c7:85:3c:68:aa:4f:53:37:2b:e3:f8:02:c3:10:71:31:8d:7a:90:19:ec:c8:57:aa:4b:8c:a9:87:cd:e6:f9:d9:bb:b1:77:91:0a:2e:e3:cd:ab:56:ac:2e:ea:58:f2:b7:ef:c3:b7:a3:ef:8c:a6:64:42:52:2a:7e:91:4e:a2:a6:e8:4d:a7:08:cc:54:ec:9d:08:75:a9:24:71:31:3e:85:9f:69:87:e2:e7:db:b2:31:5c:ed:10:c6:13:50:06:31:b2:d9:e9:af:dc:34:70:79:0d:59:34:bf:6b:ea:ae:30:d5:ed:40:6a:aa:96:e7:32:c1:e8:a0:a9:43:95:96:de:1b:f2:10:c3:a7:4e:f0:0a:c3:80:e8:4a:80:45:04:7d:81:01:90:a6:83:d0:f6:08:f6:fa:d2:79:53:2a:bb:a5:7c:ed:d9:52:0e:da:42:b2:92:fc:55:c6:91:92:9a:f6:0e:9e:25:25:0e:49:a4:2b:fa:c7:f7:8c:3c:85:7c:31:1d:71:90:cc:b3:11:aa:7c:4d:57:33:9a:d4:c5:f7:5d:b8:ea:81:4d:3b:9c:c8:c7:47:cf:ad:15:77:49:8c:38:5b:ed:a1:94:68:dd:07:9b:4c:e9:fe:3c:58:32:96:02:0c:eb:29:93:e4:a7:3c:a1:0d:df:f6:b7:39:05:8a:25:92:2c:ea:34:6b:e7:0e:0b:d3:52:06:14:bb:0d:a5:ba:d7:1f:f2:e5:b1:de:ed:9f:86:00:ad:af:98:08:3c:dc:df:58:8c:f3:41:2e:bc:7a:80:eb:5c:be:4e:d8:ef:50:9d:7c:8a:9b:6b:1c:89:6d:cc:92:34:44:51:bd:9d:d7:89:ec:ae:4d:ba:a8:5a:13:66:fd:1c:94:57:64:d8:e6:5d:6b:18:b7:cc:31:fd:6e:96:a0:28:c8:d2:33:a8:29:25:c6:bf:57:15:d6:86:89:04:d3:0a:ad:55:98:19:57:be:35:16:84:34:23:66:e3:c7:08:b5:60:35:3a:ab:07:58:55:b8:29:86:b7:d3:15:90:07:ff:73:7e:53:ec:a7:87:e2:41:14:ea:85:60:da:71:17:03:03:00:60:53:9a:f7:47:aa:2d:31:3f:d3:f8:73:4c:f2:7f:de:a7:fb:26:33:30:9a:46:ce:d4:53:60:79:65:21:1a:83:4f:ea:2b:00:3d:c8:9a:24:01:0f:4b:3b:e1:26:2d:45:1c:0c:e2:15:10:f1:6e:b0:21:8f:0e:0e:46:c8:30:92:17:64:75:1f:8a:60:f2:6a:3d:9f:18:7c:cf:6d:bf:59:a0:0b:61:48:d4:ed:f4:ea:72:aa:24:17:2a:a3:be:60:35:17:03:03:00:45:3f:07:70:d8:75:eb:7a:1b:8c:70:62:e8:d7:66:06:a8:8c:f6:14:42:6d:d7:85:65:22:9e:18:9b:19:90:75:ec:df:8c:90:d3:cf:df:6e:84:eb:32:f8:13:8c:e5:52:2b:66:63:bd:b9:e5:5b:f9:ac:21:64:db:10:29:32:20:1b:b4:a0:ff:de:d5" value="164b201a75a18e75cc9c0192ba217bea801fca736be51ce24e706533ae5804e21e900c61cdca1412a34deb8ba2b315b005828eb9ea410fca3713e6cd8844604acd40eb8e68efb2b81ffa130e2ecc56bf4dc2cbb34271ba9b7428897ba71ed663377fa50fca1801c3c57e20e30ca5ed245e14fc0deb8593f14e438978f09fc1635d8e09ab2e375c48f61c0f9bc496da4b8ede0b1dd8d77969ca3ee44f7549476622aa4cc8c21d00672029e81ccebdc0ee83005d91098624005268e9f961244d2798f64ae16c510ee3847f3e0a10e3713f7438565add400501769b5bc3197e55f0491d12850ed4d2c93e4ea8a1cb61ee73d8c3f886c4dda389b506e31dac1463a0d61da4798ff20d42d11372a1c33159c4102c08f7dddadcc1960b142f9b599999db79a1aaa4768fde913ab4ef3188799d28922e21bf4b66f5277cc05c1601466080412406b681dbbe6fa1c50497a64a27537a61eb3fb02c44ba5c7effb46b971c57ada6e87cd5a290562bcc77149587bb7364039dc56270a8cfb084d9cbebc70a32a0d40f7ddca1156ab6365ce061a5782820e5ebb5a9fd4a8d5ec41a7b2a07ece92e64e89f6e4756284aafa2edcddcdeae1d93d3cef09b423ac4e53ba10f2f9f4a577ce70fc820a783c67f4477215c7da05c01d453f8c8167074fc572cc973b6208b02e819f3a49cde5f368a170cd169b0540edfd68839f1e2cc271c9458d0cd05553b5f79bb41e551d0c1c54bf1336efae7ea057245373195fc4934acd1ac998fcca18b9366200e75e9e3da5df03fc28657feddba4cb19d0656efc56e2b2decdec75bcb2ce994753c5e985eedd6fe2bdcdb7cb9f53c82f27744b65036a73db2f4b5de8af0b72d9310555765f48f1fc058f18a0d5020e9c7853c68aa4f53372be3f802c31071318d7a9019ecc857aa4b8ca987cde6f9d9bbb177910a2ee3cdab56ac2eea58f2b7efc3b7a3ef8ca66442522a7e914ea2a6e84da708cc54ec9d0875a92471313e859f6987e2e7dbb2315ced10c613500631b2d9e9afdc3470790d5934bf6beaae30d5ed406aaa96e732c1e8a0a9439596de1bf210c3a74ef00ac380e84a8045047d810190a683d0f608f6fad279532abba57cedd9520eda42b292fc55c691929af60e9e25250e49a42bfac7f78c3c857c311d7190ccb311aa7c4d57339ad4c5f75db8ea814d3b9cc8c747cfad1577498c385beda19468dd079b4ce9fe3c583296020ceb2993e4a73ca10ddff6b739058a25922cea346be70e0bd3520614bb0da5bad71ff2e5b1deed9f8600adaf98083cdcdf588cf3412ebc7a80eb5cbe4ed8ef509d7c8a9b6b1c896dcc92344451bd9dd789ecae4dbaa85a1366fd1c945764d8e65d6b18b7cc31fd6e96a028c8d233a82925c6bf5715d6868904d30aad55981957be351684342366e3c708b560353aab075855b82986b7d3159007ff737e53eca787e24114ea8560da711703030060539af747aa2d313fd3f8734cf27fdea7fb2633309a46ced453607965211a834fea2b003dc89a24010f4b3be1262d451c0ce21510f16eb0218f0e0e46c830921764751f8a60f26a3d9f187ccf6dbf59a00b6148d4edf4ea72aa24172aa3be603517030300453f0770d875eb7a1b8c7062e8d76606a88cf614426dd78565229e189b199075ecdf8c90d3cfdf6e84eb32f8138ce5522b6663bdb9e55bf9ac2164db102932201bb4a0ffded5"/>
      <field name="data.len" showname="Length: 1215" size="0" pos="54" show="1215"/>
  </field>
</proto>
</packet>


<packet>
  <proto name="geninfo" pos="0" showname="General information" size="54">
    <field name="num" pos="0" show="11" showname="Number" value="b" size="54"/>
    <field name="len" pos="0" show="54" showname="Frame Length" value="36" size="54"/>
    <field name="caplen" pos="0" show="54" showname="Captured Length" value="36" size="54"/>
    <field name="timestamp" pos="0" show="Jun 27, 2019 12:20:57.210733000 CEST" showname="Captured Time" value="1561630857.210733000" size="54"/>
  </proto>
  <proto name="frame" showname="Frame 11: 54 bytes on wire (432 bits), 54 bytes captured (432 bits) on interface 0" size="54" pos="0">
    <field name="frame.interface_id" showname="Interface id: 0" size="0" pos="0" show="0"/>
    <field name="frame.encap_type" showname="Encapsulation type: Ethernet (1)" size="0" pos="0" show="1"/>
    <field name="frame.time" showname="Arrival Time: Jun 27, 2019 12:20:57.210733000 CEST" size="0" pos="0" show="&quot;Jun 27, 2019 12:20:57.210733000 CEST&quot;"/>
    <field name="frame.offset_shift" showname="Time shift for this packet: 0.000000000 seconds" size="0" pos="0" show="0.000000000"/>
    <field name="frame.time_epoch" showname="Epoch Time: 1561630857.210733000 seconds" size="0" pos="0" show="1561630857.210733000"/>
    <field name="frame.time_delta" showname="Time delta from previous captured frame: 0.000012000 seconds" size="0" pos="0" show="0.000012000"/>
    <field name="frame.time_delta_displayed" showname="Time delta from previous displayed frame: 0.000012000 seconds" size="0" pos="0" show="0.000012000"/>
    <field name="frame.time_relative" showname="Time since reference or first frame: 0.009326000 seconds" size="0" pos="0" show="0.009326000"/>
    <field name="frame.number" showname="Frame Number: 11" size="0" pos="0" show="11"/>
    <field name="frame.len" showname="Frame Length: 54 bytes (432 bits)" size="0" pos="0" show="54"/>
    <field name="frame.cap_len" showname="Capture Length: 54 bytes (432 bits)" size="0" pos="0" show="54"/>
    <field name="frame.marked" showname="Frame is marked: False" size="0" pos="0" show="0"/>
    <field name="frame.ignored" showname="Frame is ignored: False" size="0" pos="0" show="0"/>
    <field name="frame.protocols" showname="Protocols in frame: eth:ip:tcp" size="0" pos="0" show="eth:ip:tcp"/>
  </proto>
  <proto name="eth" showname="Ethernet II, Src: 02:42:ac:11:00:02 (02:42:ac:11:00:02), Dst: 02:42:71:12:56:af (02:42:71:12:56:af)" size="14" pos="0">
    <field name="eth.dst" showname="Destination: 02:42:71:12:56:af (02:42:71:12:56:af)" size="6" pos="0" show="02:42:71:12:56:af" value="0242711256af">
      <field name="eth.addr" showname="Address: 02:42:71:12:56:af (02:42:71:12:56:af)" size="6" pos="0" show="02:42:71:12:56:af" value="0242711256af"/>
      <field name="eth.lg" showname=".... ..1. .... .... .... .... = LG bit: Locally administered address (this is NOT the factory default)" size="3" pos="0" show="1" value="1" unmaskedvalue="024271"/>
      <field name="eth.ig" showname=".... ...0 .... .... .... .... = IG bit: Individual address (unicast)" size="3" pos="0" show="0" value="0" unmaskedvalue="024271"/>
    </field>
    <field name="eth.src" showname="Source: 02:42:ac:11:00:02 (02:42:ac:11:00:02)" size="6" pos="6" show="02:42:ac:11:00:02" value="0242ac110002">
      <field name="eth.addr" showname="Address: 02:42:ac:11:00:02 (02:42:ac:11:00:02)" size="6" pos="6" show="02:42:ac:11:00:02" value="0242ac110002"/>
      <field name="eth.lg" showname=".... ..1. .... .... .... .... = LG bit: Locally administered address (this is NOT the factory default)" size="3" pos="6" show="1" value="1" unmaskedvalue="0242ac"/>
      <field name="eth.ig" showname=".... ...0 .... .... .... .... = IG bit: Individual address (unicast)" size="3" pos="6" show="0" value="0" unmaskedvalue="0242ac"/>
    </field>
    <field name="eth.type" showname="Type: IP (0x0800)" size="2" pos="12" show="2048" value="0800"/>
  </proto>
  <proto name="ip" showname="Internet Protocol Version 4, Src: 172.17.0.2 (172.17.0.2), Dst: 1.1.1.1 (1.1.1.1)" size="20" pos="14">
    <field name="ip.version" showname="Version: 4" size="1" pos="14" show="4" value="45"/>
    <field name="ip.hdr_len" showname="Header length: 20 bytes" size="1" pos="14" show="20" value="45"/>
    <field name="ip.dsfield" showname="Differentiated Services Field: 0x00 (DSCP 0x00: Default; ECN: 0x00: Not-ECT (Not ECN-Capable Transport))" size="1" pos="15" show="0" value="00">
      <field name="ip.dsfield.dscp" showname="0000 00.. = Differentiated Services Codepoint: Default (0x00)" size="1" pos="15" show="0" value="0" unmaskedvalue="00"/>
      <field name="ip.dsfield.ecn" showname=".... ..00 = Explicit Congestion Notification: Not-ECT (Not ECN-Capable Transport) (0x00)" size="1" pos="15" show="0" value="0" unmaskedvalue="00"/>
    </field>
    <field name="ip.len" showname="Total Length: 40" size="2" pos="16" show="40" value="0028"/>
    <field name="ip.id" showname="Identification: 0xc40e (50190)" size="2" pos="18" show="50190" value="c40e"/>
    <field name="ip.flags" showname="Flags: 0x02 (Don&apos;t Fragment)" size="1" pos="20" show="2" value="40">
      <field name="ip.flags.rb" showname="0... .... = Reserved bit: Not set" size="1" pos="20" show="0" value="40"/>
      <field name="ip.flags.df" showname=".1.. .... = Don&apos;t fragment: Set" size="1" pos="20" show="1" value="40"/>
      <field name="ip.flags.mf" showname="..0. .... = More fragments: Not set" size="1" pos="20" show="0" value="40"/>
    </field>
    <field name="ip.frag_offset" showname="Fragment offset: 0" size="2" pos="20" show="0" value="4000"/>
    <field name="ip.ttl" showname="Time to live: 64" size="1" pos="22" show="64" value="40"/>
    <field name="ip.proto" showname="Protocol: TCP (6)" size="1" pos="23" show="6" value="06"/>
    <field name="ip.checksum" showname="Header checksum: 0xc8ac [validation disabled]" size="2" pos="24" show="51372" value="c8ac">
      <field name="ip.checksum_good" showname="Good: False" size="2" pos="24" show="0" value="c8ac"/>
      <field name="ip.checksum_bad" showname="Bad: False" size="2" pos="24" show="0" value="c8ac"/>
    </field>
    <field name="ip.src" showname="Source: 172.17.0.2 (172.17.0.2)" size="4" pos="26" show="172.17.0.2" value="ac110002"/>
    <field name="ip.addr" showname="Source or Destination Address: 172.17.0.2 (172.17.0.2)" hide="yes" size="4" pos="26" show="172.17.0.2" value="ac110002"/>
    <field name="ip.src_host" showname="Source Host: 172.17.0.2" hide="yes" size="4" pos="26" show="172.17.0.2" value="ac110002"/>
    <field name="ip.host" showname="Source or Destination Host: 172.17.0.2" hide="yes" size="4" pos="26" show="172.17.0.2" value="ac110002"/>
    <field name="ip.dst" showname="Destination: 1.1.1.1 (1.1.1.1)" size="4" pos="30" show="1.1.1.1" value="01010101"/>
    <field name="ip.addr" showname="Source or Destination Address: 1.1.1.1 (1.1.1.1)" hide="yes" size="4" pos="30" show="1.1.1.1" value="01010101"/>
    <field name="ip.dst_host" showname="Destination Host: 1.1.1.1" hide="yes" size="4" pos="30" show="1.1.1.1" value="01010101"/>
    <field name="ip.host" showname="Source or Destination Host: 1.1.1.1" hide="yes" size="4" pos="30" show="1.1.1.1" value="01010101"/>
  </proto>
  <proto name="tcp" showname="Transmission Control Protocol, Src Port: 59658 (59658), Dst Port: 853 (853), Seq: 338, Ack: 2810, Len: 0" size="20" pos="34">
    <field name="tcp.srcport" showname="Source port: 59658 (59658)" size="2" pos="34" show="59658" value="e90a"/>
    <field name="tcp.dstport" showname="Destination port: 853 (853)" size="2" pos="36" show="853" value="0355"/>
    <field name="tcp.port" showname="Source or Destination Port: 59658" hide="yes" size="2" pos="34" show="59658" value="e90a"/>
    <field name="tcp.port" showname="Source or Destination Port: 853" hide="yes" size="2" pos="36" show="853" value="0355"/>
    <field name="tcp.stream" showname="Stream index: 0" size="0" pos="34" show="0"/>
    <field name="tcp.len" showname="TCP Segment Len: 0" hide="yes" size="1" pos="46" show="0" value="50"/>
    <field name="tcp.seq" showname="Sequence number: 338    (relative sequence number)" size="4" pos="38" show="338" value="6360ae53"/>
    <field name="tcp.ack" showname="Acknowledgment number: 2810    (relative ack number)" size="4" pos="42" show="2810" value="7d3d9d66"/>
    <field name="tcp.hdr_len" showname="Header length: 20 bytes" size="1" pos="46" show="20" value="50"/>
    <field name="tcp.flags" showname="Flags: 0x010 (ACK)" size="2" pos="46" show="16" value="10" unmaskedvalue="5010">
      <field name="tcp.flags.res" showname="000. .... .... = Reserved: Not set" size="1" pos="46" show="0" value="0" unmaskedvalue="50"/>
      <field name="tcp.flags.ns" showname="...0 .... .... = Nonce: Not set" size="1" pos="46" show="0" value="0" unmaskedvalue="50"/>
      <field name="tcp.flags.cwr" showname=".... 0... .... = Congestion Window Reduced (CWR): Not set" size="1" pos="47" show="0" value="0" unmaskedvalue="10"/>
      <field name="tcp.flags.ecn" showname=".... .0.. .... = ECN-Echo: Not set" size="1" pos="47" show="0" value="0" unmaskedvalue="10"/>
      <field name="tcp.flags.urg" showname=".... ..0. .... = Urgent: Not set" size="1" pos="47" show="0" value="0" unmaskedvalue="10"/>
      <field name="tcp.flags.ack" showname=".... ...1 .... = Acknowledgment: Set" size="1" pos="47" show="1" value="1" unmaskedvalue="10"/>
      <field name="tcp.flags.push" showname=".... .... 0... = Push: Not set" size="1" pos="47" show="0" value="0" unmaskedvalue="10"/>
      <field name="tcp.flags.reset" showname=".... .... .0.. = Reset: Not set" size="1" pos="47" show="0" value="0" unmaskedvalue="10"/>
      <field name="tcp.flags.syn" showname=".... .... ..0. = Syn: Not set" size="1" pos="47" show="0" value="0" unmaskedvalue="10"/>
      <field name="tcp.flags.fin" showname=".... .... ...0 = Fin: Not set" size="1" pos="47" show="0" value="0" unmaskedvalue="10"/>
    </field>
    <field name="tcp.window_size_value" showname="Window size value: 283" size="2" pos="48" show="283" value="011b"/>
    <field name="tcp.window_size" showname="Calculated window size: 36224" size="2" pos="48" show="36224" value="011b"/>
    <field name="tcp.window_size_scalefactor" showname="Window size scaling factor: 128" size="2" pos="48" show="128" value="011b"/>
    <field name="tcp.checksum" showname="Checksum: 0xae2f [validation disabled]" size="2" pos="50" show="44591" value="ae2f">
      <field name="tcp.checksum_good" showname="Good Checksum: False" size="2" pos="50" show="0" value="ae2f"/>
      <field name="tcp.checksum_bad" showname="Bad Checksum: False" size="2" pos="50" show="0" value="ae2f"/>
    </field>
    <field name="tcp.analysis" showname="SEQ/ACK analysis" size="0" pos="34" show="" value="">
      <field name="tcp.analysis.acks_frame" showname="This is an ACK to the segment in frame: 10" size="0" pos="34" show="10"/>
      <field name="tcp.analysis.ack_rtt" showname="The RTT to ACK the segment was: 0.000012000 seconds" size="0" pos="34" show="0.000012000"/>
    </field>
  </proto>
</packet>


<packet>
  <proto name="geninfo" pos="0" showname="General information" size="295">
    <field name="num" pos="0" show="12" showname="Number" value="c" size="295"/>
    <field name="len" pos="0" show="295" showname="Frame Length" value="127" size="295"/>
    <field name="caplen" pos="0" show="295" showname="Captured Length" value="127" size="295"/>
    <field name="timestamp" pos="0" show="Jun 27, 2019 12:20:57.210861000 CEST" showname="Captured Time" value="1561630857.210861000" size="295"/>
  </proto>
  <proto name="frame" showname="Frame 12: 295 bytes on wire (2360 bits), 295 bytes captured (2360 bits) on interface 0" size="295" pos="0">
    <field name="frame.interface_id" showname="Interface id: 0" size="0" pos="0" show="0"/>
    <field name="frame.encap_type" showname="Encapsulation type: Ethernet (1)" size="0" pos="0" show="1"/>
    <field name="frame.time" showname="Arrival Time: Jun 27, 2019 12:20:57.210861000 CEST" size="0" pos="0" show="&quot;Jun 27, 2019 12:20:57.210861000 CEST&quot;"/>
    <field name="frame.offset_shift" showname="Time shift for this packet: 0.000000000 seconds" size="0" pos="0" show="0.000000000"/>
    <field name="frame.time_epoch" showname="Epoch Time: 1561630857.210861000 seconds" size="0" pos="0" show="1561630857.210861000"/>
    <field name="frame.time_delta" showname="Time delta from previous captured frame: 0.000128000 seconds" size="0" pos="0" show="0.000128000"/>
    <field name="frame.time_delta_displayed" showname="Time delta from previous displayed frame: 0.000128000 seconds" size="0" pos="0" show="0.000128000"/>
    <field name="frame.time_relative" showname="Time since reference or first frame: 0.009454000 seconds" size="0" pos="0" show="0.009454000"/>
    <field name="frame.number" showname="Frame Number: 12" size="0" pos="0" show="12"/>
    <field name="frame.len" showname="Frame Length: 295 bytes (2360 bits)" size="0" pos="0" show="295"/>
    <field name="frame.cap_len" showname="Capture Length: 295 bytes (2360 bits)" size="0" pos="0" show="295"/>
    <field name="frame.marked" showname="Frame is marked: False" size="0" pos="0" show="0"/>
    <field name="frame.ignored" showname="Frame is ignored: False" size="0" pos="0" show="0"/>
    <field name="frame.protocols" showname="Protocols in frame: eth:ip:tcp:data" size="0" pos="0" show="eth:ip:tcp:data"/>
  </proto>
  <proto name="eth" showname="Ethernet II, Src: 02:42:71:12:56:af (02:42:71:12:56:af), Dst: 02:42:ac:11:00:02 (02:42:ac:11:00:02)" size="14" pos="0">
    <field name="eth.dst" showname="Destination: 02:42:ac:11:00:02 (02:42:ac:11:00:02)" size="6" pos="0" show="02:42:ac:11:00:02" value="0242ac110002">
      <field name="eth.addr" showname="Address: 02:42:ac:11:00:02 (02:42:ac:11:00:02)" size="6" pos="0" show="02:42:ac:11:00:02" value="0242ac110002"/>
      <field name="eth.lg" showname=".... ..1. .... .... .... .... = LG bit: Locally administered address (this is NOT the factory default)" size="3" pos="0" show="1" value="1" unmaskedvalue="0242ac"/>
      <field name="eth.ig" showname=".... ...0 .... .... .... .... = IG bit: Individual address (unicast)" size="3" pos="0" show="0" value="0" unmaskedvalue="0242ac"/>
    </field>
    <field name="eth.src" showname="Source: 02:42:71:12:56:af (02:42:71:12:56:af)" size="6" pos="6" show="02:42:71:12:56:af" value="0242711256af">
      <field name="eth.addr" showname="Address: 02:42:71:12:56:af (02:42:71:12:56:af)" size="6" pos="6" show="02:42:71:12:56:af" value="0242711256af"/>
      <field name="eth.lg" showname=".... ..1. .... .... .... .... = LG bit: Locally administered address (this is NOT the factory default)" size="3" pos="6" show="1" value="1" unmaskedvalue="024271"/>
      <field name="eth.ig" showname=".... ...0 .... .... .... .... = IG bit: Individual address (unicast)" size="3" pos="6" show="0" value="0" unmaskedvalue="024271"/>
    </field>
    <field name="eth.type" showname="Type: IP (0x0800)" size="2" pos="12" show="2048" value="0800"/>
  </proto>
  <proto name="ip" showname="Internet Protocol Version 4, Src: 1.1.1.1 (1.1.1.1), Dst: 172.17.0.2 (172.17.0.2)" size="20" pos="14">
    <field name="ip.version" showname="Version: 4" size="1" pos="14" show="4" value="45"/>
    <field name="ip.hdr_len" showname="Header length: 20 bytes" size="1" pos="14" show="20" value="45"/>
    <field name="ip.dsfield" showname="Differentiated Services Field: 0x00 (DSCP 0x00: Default; ECN: 0x00: Not-ECT (Not ECN-Capable Transport))" size="1" pos="15" show="0" value="00">
      <field name="ip.dsfield.dscp" showname="0000 00.. = Differentiated Services Codepoint: Default (0x00)" size="1" pos="15" show="0" value="0" unmaskedvalue="00"/>
      <field name="ip.dsfield.ecn" showname=".... ..00 = Explicit Congestion Notification: Not-ECT (Not ECN-Capable Transport) (0x00)" size="1" pos="15" show="0" value="0" unmaskedvalue="00"/>
    </field>
    <field name="ip.len" showname="Total Length: 281" size="2" pos="16" show="281" value="0119"/>
    <field name="ip.id" showname="Identification: 0x2df3 (11763)" size="2" pos="18" show="11763" value="2df3"/>
    <field name="ip.flags" showname="Flags: 0x02 (Don&apos;t Fragment)" size="1" pos="20" show="2" value="40">
      <field name="ip.flags.rb" showname="0... .... = Reserved bit: Not set" size="1" pos="20" show="0" value="40"/>
      <field name="ip.flags.df" showname=".1.. .... = Don&apos;t fragment: Set" size="1" pos="20" show="1" value="40"/>
      <field name="ip.flags.mf" showname="..0. .... = More fragments: Not set" size="1" pos="20" show="0" value="40"/>
    </field>
    <field name="ip.frag_offset" showname="Fragment offset: 0" size="2" pos="20" show="0" value="4000"/>
    <field name="ip.ttl" showname="Time to live: 57" size="1" pos="22" show="57" value="39"/>
    <field name="ip.proto" showname="Protocol: TCP (6)" size="1" pos="23" show="6" value="06"/>
    <field name="ip.checksum" showname="Header checksum: 0x64d7 [validation disabled]" size="2" pos="24" show="25815" value="64d7">
      <field name="ip.checksum_good" showname="Good: False" size="2" pos="24" show="0" value="64d7"/>
      <field name="ip.checksum_bad" showname="Bad: False" size="2" pos="24" show="0" value="64d7"/>
    </field>
    <field name="ip.src" showname="Source: 1.1.1.1 (1.1.1.1)" size="4" pos="26" show="1.1.1.1" value="01010101"/>
    <field name="ip.addr" showname="Source or Destination Address: 1.1.1.1 (1.1.1.1)" hide="yes" size="4" pos="26" show="1.1.1.1" value="01010101"/>
    <field name="ip.src_host" showname="Source Host: 1.1.1.1" hide="yes" size="4" pos="26" show="1.1.1.1" value="01010101"/>
    <field name="ip.host" showname="Source or Destination Host: 1.1.1.1" hide="yes" size="4" pos="26" show="1.1.1.1" value="01010101"/>
    <field name="ip.dst" showname="Destination: 172.17.0.2 (172.17.0.2)" size="4" pos="30" show="172.17.0.2" value="ac110002"/>
    <field name="ip.addr" showname="Source or Destination Address: 172.17.0.2 (172.17.0.2)" hide="yes" size="4" pos="30" show="172.17.0.2" value="ac110002"/>
    <field name="ip.dst_host" showname="Destination Host: 172.17.0.2" hide="yes" size="4" pos="30" show="172.17.0.2" value="ac110002"/>
    <field name="ip.host" showname="Source or Destination Host: 172.17.0.2" hide="yes" size="4" pos="30" show="172.17.0.2" value="ac110002"/>
  </proto>
  <proto name="tcp" showname="Transmission Control Protocol, Src Port: 853 (853), Dst Port: 59658 (59658), Seq: 2810, Ack: 338, Len: 241" size="20" pos="34">
    <field name="tcp.srcport" showname="Source port: 853 (853)" size="2" pos="34" show="853" value="0355"/>
    <field name="tcp.dstport" showname="Destination port: 59658 (59658)" size="2" pos="36" show="59658" value="e90a"/>
    <field name="tcp.port" showname="Source or Destination Port: 853" hide="yes" size="2" pos="34" show="853" value="0355"/>
    <field name="tcp.port" showname="Source or Destination Port: 59658" hide="yes" size="2" pos="36" show="59658" value="e90a"/>
    <field name="tcp.stream" showname="Stream index: 0" size="0" pos="34" show="0"/>
    <field name="tcp.len" showname="TCP Segment Len: 241" hide="yes" size="1" pos="46" show="241" value="50"/>
    <field name="tcp.seq" showname="Sequence number: 2810    (relative sequence number)" size="4" pos="38" show="2810" value="7d3d9d66"/>
    <field name="tcp.nxtseq" showname="Next sequence number: 3051    (relative sequence number)" size="0" pos="34" show="3051"/>
    <field name="tcp.ack" showname="Acknowledgment number: 338    (relative ack number)" size="4" pos="42" show="338" value="6360ae53"/>
    <field name="tcp.hdr_len" showname="Header length: 20 bytes" size="1" pos="46" show="20" value="50"/>
    <field name="tcp.flags" showname="Flags: 0x018 (PSH, ACK)" size="2" pos="46" show="24" value="18" unmaskedvalue="5018">
      <field name="tcp.flags.res" showname="000. .... .... = Reserved: Not set" size="1" pos="46" show="0" value="0" unmaskedvalue="50"/>
      <field name="tcp.flags.ns" showname="...0 .... .... = Nonce: Not set" size="1" pos="46" show="0" value="0" unmaskedvalue="50"/>
      <field name="tcp.flags.cwr" showname=".... 0... .... = Congestion Window Reduced (CWR): Not set" size="1" pos="47" show="0" value="0" unmaskedvalue="18"/>
      <field name="tcp.flags.ecn" showname=".... .0.. .... = ECN-Echo: Not set" size="1" pos="47" show="0" value="0" unmaskedvalue="18"/>
      <field name="tcp.flags.urg" showname=".... ..0. .... = Urgent: Not set" size="1" pos="47" show="0" value="0" unmaskedvalue="18"/>
      <field name="tcp.flags.ack" showname=".... ...1 .... = Acknowledgment: Set" size="1" pos="47" show="1" value="1" unmaskedvalue="18"/>
      <field name="tcp.flags.push" showname=".... .... 1... = Push: Set" size="1" pos="47" show="1" value="1" unmaskedvalue="18"/>
      <field name="tcp.flags.reset" showname=".... .... .0.. = Reset: Not set" size="1" pos="47" show="0" value="0" unmaskedvalue="18"/>
      <field name="tcp.flags.syn" showname=".... .... ..0. = Syn: Not set" size="1" pos="47" show="0" value="0" unmaskedvalue="18"/>
      <field name="tcp.flags.fin" showname=".... .... ...0 = Fin: Not set" size="1" pos="47" show="0" value="0" unmaskedvalue="18"/>
    </field>
    <field name="tcp.window_size_value" showname="Window size value: 30" size="2" pos="48" show="30" value="001e"/>
    <field name="tcp.window_size" showname="Calculated window size: 30720" size="2" pos="48" show="30720" value="001e"/>
    <field name="tcp.window_size_scalefactor" showname="Window size scaling factor: 1024" size="2" pos="48" show="1024" value="001e"/>
    <field name="tcp.checksum" showname="Checksum: 0x39ae [validation disabled]" size="2" pos="50" show="14766" value="39ae">
      <field name="tcp.checksum_good" showname="Good Checksum: False" size="2" pos="50" show="0" value="39ae"/>
      <field name="tcp.checksum_bad" showname="Bad Checksum: False" size="2" pos="50" show="0" value="39ae"/>
    </field>
    <field name="tcp.analysis" showname="SEQ/ACK analysis" size="0" pos="34" show="" value="">
      <field name="tcp.analysis.bytes_in_flight" showname="Bytes in flight: 241" size="0" pos="34" show="241"/>
    </field>
  </proto>
  <proto name="fake-field-wrapper">
    <field name="data" value="17030300ec63b2ec73b2d2a93fe6060e3f8b4eda9c3a486abc34160d09a4789a9b755446a7f0b0b8472af422fb5a9bc77dc0a2a94f5bd05b930d8712837e4e892a3574e390ec71299dbc4c23b45677fd19ff124784a0e9dc4072f115a7b0388d599650f43267c4dfd54e1a5d8775ea3b7e35e810cb6f8d72acdcb5a9e5cadb651a6de2e454da4bbcb0e261f8a37c3caa2f92cd825bad1ffc7c93a429a86346b7dc26849c5e0740f854815ab9dc9bf0d96bb9eb965996d245f03320ec9507c43ec215b5f5823c5c2dcf813164add6f5706c8f919db99e66087c680dcad505f5e912fe2359038e59cefff9646a1423439dcf">
      <field name="data.data" showname="Data: 17030300ec63b2ec73b2d2a93fe6060e3f8b4eda9c3a486a..." size="241" pos="54" show="17:03:03:00:ec:63:b2:ec:73:b2:d2:a9:3f:e6:06:0e:3f:8b:4e:da:9c:3a:48:6a:bc:34:16:0d:09:a4:78:9a:9b:75:54:46:a7:f0:b0:b8:47:2a:f4:22:fb:5a:9b:c7:7d:c0:a2:a9:4f:5b:d0:5b:93:0d:87:12:83:7e:4e:89:2a:35:74:e3:90:ec:71:29:9d:bc:4c:23:b4:56:77:fd:19:ff:12:47:84:a0:e9:dc:40:72:f1:15:a7:b0:38:8d:59:96:50:f4:32:67:c4:df:d5:4e:1a:5d:87:75:ea:3b:7e:35:e8:10:cb:6f:8d:72:ac:dc:b5:a9:e5:ca:db:65:1a:6d:e2:e4:54:da:4b:bc:b0:e2:61:f8:a3:7c:3c:aa:2f:92:cd:82:5b:ad:1f:fc:7c:93:a4:29:a8:63:46:b7:dc:26:84:9c:5e:07:40:f8:54:81:5a:b9:dc:9b:f0:d9:6b:b9:eb:96:59:96:d2:45:f0:33:20:ec:95:07:c4:3e:c2:15:b5:f5:82:3c:5c:2d:cf:81:31:64:ad:d6:f5:70:6c:8f:91:9d:b9:9e:66:08:7c:68:0d:ca:d5:05:f5:e9:12:fe:23:59:03:8e:59:ce:ff:f9:64:6a:14:23:43:9d:cf" value="17030300ec63b2ec73b2d2a93fe6060e3f8b4eda9c3a486abc34160d09a4789a9b755446a7f0b0b8472af422fb5a9bc77dc0a2a94f5bd05b930d8712837e4e892a3574e390ec71299dbc4c23b45677fd19ff124784a0e9dc4072f115a7b0388d599650f43267c4dfd54e1a5d8775ea3b7e35e810cb6f8d72acdcb5a9e5cadb651a6de2e454da4bbcb0e261f8a37c3caa2f92cd825bad1ffc7c93a429a86346b7dc26849c5e0740f854815ab9dc9bf0d96bb9eb965996d245f03320ec9507c43ec215b5f5823c5c2dcf813164add6f5706c8f919db99e66087c680dcad505f5e912fe2359038e59cefff9646a1423439dcf"/>
      <field name="data.len" showname="Length: 241" size="0" pos="54" show="241"/>
  </field>
</proto>
</packet>


<packet>
  <proto name="geninfo" pos="0" showname="General information" size="54">
    <field name="num" pos="0" show="13" showname="Number" value="d" size="54"/>
    <field name="len" pos="0" show="54" showname="Frame Length" value="36" size="54"/>
    <field name="caplen" pos="0" show="54" showname="Captured Length" value="36" size="54"/>
    <field name="timestamp" pos="0" show="Jun 27, 2019 12:20:57.210873000 CEST" showname="Captured Time" value="1561630857.210873000" size="54"/>
  </proto>
  <proto name="frame" showname="Frame 13: 54 bytes on wire (432 bits), 54 bytes captured (432 bits) on interface 0" size="54" pos="0">
    <field name="frame.interface_id" showname="Interface id: 0" size="0" pos="0" show="0"/>
    <field name="frame.encap_type" showname="Encapsulation type: Ethernet (1)" size="0" pos="0" show="1"/>
    <field name="frame.time" showname="Arrival Time: Jun 27, 2019 12:20:57.210873000 CEST" size="0" pos="0" show="&quot;Jun 27, 2019 12:20:57.210873000 CEST&quot;"/>
    <field name="frame.offset_shift" showname="Time shift for this packet: 0.000000000 seconds" size="0" pos="0" show="0.000000000"/>
    <field name="frame.time_epoch" showname="Epoch Time: 1561630857.210873000 seconds" size="0" pos="0" show="1561630857.210873000"/>
    <field name="frame.time_delta" showname="Time delta from previous captured frame: 0.000012000 seconds" size="0" pos="0" show="0.000012000"/>
    <field name="frame.time_delta_displayed" showname="Time delta from previous displayed frame: 0.000012000 seconds" size="0" pos="0" show="0.000012000"/>
    <field name="frame.time_relative" showname="Time since reference or first frame: 0.009466000 seconds" size="0" pos="0" show="0.009466000"/>
    <field name="frame.number" showname="Frame Number: 13" size="0" pos="0" show="13"/>
    <field name="frame.len" showname="Frame Length: 54 bytes (432 bits)" size="0" pos="0" show="54"/>
    <field name="frame.cap_len" showname="Capture Length: 54 bytes (432 bits)" size="0" pos="0" show="54"/>
    <field name="frame.marked" showname="Frame is marked: False" size="0" pos="0" show="0"/>
    <field name="frame.ignored" showname="Frame is ignored: False" size="0" pos="0" show="0"/>
    <field name="frame.protocols" showname="Protocols in frame: eth:ip:tcp" size="0" pos="0" show="eth:ip:tcp"/>
  </proto>
  <proto name="eth" showname="Ethernet II, Src: 02:42:ac:11:00:02 (02:42:ac:11:00:02), Dst: 02:42:71:12:56:af (02:42:71:12:56:af)" size="14" pos="0">
    <field name="eth.dst" showname="Destination: 02:42:71:12:56:af (02:42:71:12:56:af)" size="6" pos="0" show="02:42:71:12:56:af" value="0242711256af">
      <field name="eth.addr" showname="Address: 02:42:71:12:56:af (02:42:71:12:56:af)" size="6" pos="0" show="02:42:71:12:56:af" value="0242711256af"/>
      <field name="eth.lg" showname=".... ..1. .... .... .... .... = LG bit: Locally administered address (this is NOT the factory default)" size="3" pos="0" show="1" value="1" unmaskedvalue="024271"/>
      <field name="eth.ig" showname=".... ...0 .... .... .... .... = IG bit: Individual address (unicast)" size="3" pos="0" show="0" value="0" unmaskedvalue="024271"/>
    </field>
    <field name="eth.src" showname="Source: 02:42:ac:11:00:02 (02:42:ac:11:00:02)" size="6" pos="6" show="02:42:ac:11:00:02" value="0242ac110002">
      <field name="eth.addr" showname="Address: 02:42:ac:11:00:02 (02:42:ac:11:00:02)" size="6" pos="6" show="02:42:ac:11:00:02" value="0242ac110002"/>
      <field name="eth.lg" showname=".... ..1. .... .... .... .... = LG bit: Locally administered address (this is NOT the factory default)" size="3" pos="6" show="1" value="1" unmaskedvalue="0242ac"/>
      <field name="eth.ig" showname=".... ...0 .... .... .... .... = IG bit: Individual address (unicast)" size="3" pos="6" show="0" value="0" unmaskedvalue="0242ac"/>
    </field>
    <field name="eth.type" showname="Type: IP (0x0800)" size="2" pos="12" show="2048" value="0800"/>
  </proto>
  <proto name="ip" showname="Internet Protocol Version 4, Src: 172.17.0.2 (172.17.0.2), Dst: 1.1.1.1 (1.1.1.1)" size="20" pos="14">
    <field name="ip.version" showname="Version: 4" size="1" pos="14" show="4" value="45"/>
    <field name="ip.hdr_len" showname="Header length: 20 bytes" size="1" pos="14" show="20" value="45"/>
    <field name="ip.dsfield" showname="Differentiated Services Field: 0x00 (DSCP 0x00: Default; ECN: 0x00: Not-ECT (Not ECN-Capable Transport))" size="1" pos="15" show="0" value="00">
      <field name="ip.dsfield.dscp" showname="0000 00.. = Differentiated Services Codepoint: Default (0x00)" size="1" pos="15" show="0" value="0" unmaskedvalue="00"/>
      <field name="ip.dsfield.ecn" showname=".... ..00 = Explicit Congestion Notification: Not-ECT (Not ECN-Capable Transport) (0x00)" size="1" pos="15" show="0" value="0" unmaskedvalue="00"/>
    </field>
    <field name="ip.len" showname="Total Length: 40" size="2" pos="16" show="40" value="0028"/>
    <field name="ip.id" showname="Identification: 0xc40f (50191)" size="2" pos="18" show="50191" value="c40f"/>
    <field name="ip.flags" showname="Flags: 0x02 (Don&apos;t Fragment)" size="1" pos="20" show="2" value="40">
      <field name="ip.flags.rb" showname="0... .... = Reserved bit: Not set" size="1" pos="20" show="0" value="40"/>
      <field name="ip.flags.df" showname=".1.. .... = Don&apos;t fragment: Set" size="1" pos="20" show="1" value="40"/>
      <field name="ip.flags.mf" showname="..0. .... = More fragments: Not set" size="1" pos="20" show="0" value="40"/>
    </field>
    <field name="ip.frag_offset" showname="Fragment offset: 0" size="2" pos="20" show="0" value="4000"/>
    <field name="ip.ttl" showname="Time to live: 64" size="1" pos="22" show="64" value="40"/>
    <field name="ip.proto" showname="Protocol: TCP (6)" size="1" pos="23" show="6" value="06"/>
    <field name="ip.checksum" showname="Header checksum: 0xc8ab [validation disabled]" size="2" pos="24" show="51371" value="c8ab">
      <field name="ip.checksum_good" showname="Good: False" size="2" pos="24" show="0" value="c8ab"/>
      <field name="ip.checksum_bad" showname="Bad: False" size="2" pos="24" show="0" value="c8ab"/>
    </field>
    <field name="ip.src" showname="Source: 172.17.0.2 (172.17.0.2)" size="4" pos="26" show="172.17.0.2" value="ac110002"/>
    <field name="ip.addr" showname="Source or Destination Address: 172.17.0.2 (172.17.0.2)" hide="yes" size="4" pos="26" show="172.17.0.2" value="ac110002"/>
    <field name="ip.src_host" showname="Source Host: 172.17.0.2" hide="yes" size="4" pos="26" show="172.17.0.2" value="ac110002"/>
    <field name="ip.host" showname="Source or Destination Host: 172.17.0.2" hide="yes" size="4" pos="26" show="172.17.0.2" value="ac110002"/>
    <field name="ip.dst" showname="Destination: 1.1.1.1 (1.1.1.1)" size="4" pos="30" show="1.1.1.1" value="01010101"/>
    <field name="ip.addr" showname="Source or Destination Address: 1.1.1.1 (1.1.1.1)" hide="yes" size="4" pos="30" show="1.1.1.1" value="01010101"/>
    <field name="ip.dst_host" showname="Destination Host: 1.1.1.1" hide="yes" size="4" pos="30" show="1.1.1.1" value="01010101"/>
    <field name="ip.host" showname="Source or Destination Host: 1.1.1.1" hide="yes" size="4" pos="30" show="1.1.1.1" value="01010101"/>
  </proto>
  <proto name="tcp" showname="Transmission Control Protocol, Src Port: 59658 (59658), Dst Port: 853 (853), Seq: 338, Ack: 3051, Len: 0" size="20" pos="34">
    <field name="tcp.srcport" showname="Source port: 59658 (59658)" size="2" pos="34" show="59658" value="e90a"/>
    <field name="tcp.dstport" showname="Destination port: 853 (853)" size="2" pos="36" show="853" value="0355"/>
    <field name="tcp.port" showname="Source or Destination Port: 59658" hide="yes" size="2" pos="34" show="59658" value="e90a"/>
    <field name="tcp.port" showname="Source or Destination Port: 853" hide="yes" size="2" pos="36" show="853" value="0355"/>
    <field name="tcp.stream" showname="Stream index: 0" size="0" pos="34" show="0"/>
    <field name="tcp.len" showname="TCP Segment Len: 0" hide="yes" size="1" pos="46" show="0" value="50"/>
    <field name="tcp.seq" showname="Sequence number: 338    (relative sequence number)" size="4" pos="38" show="338" value="6360ae53"/>
    <field name="tcp.ack" showname="Acknowledgment number: 3051    (relative ack number)" size="4" pos="42" show="3051" value="7d3d9e57"/>
    <field name="tcp.hdr_len" showname="Header length: 20 bytes" size="1" pos="46" show="20" value="50"/>
    <field name="tcp.flags" showname="Flags: 0x010 (ACK)" size="2" pos="46" show="16" value="10" unmaskedvalue="5010">
      <field name="tcp.flags.res" showname="000. .... .... = Reserved: Not set" size="1" pos="46" show="0" value="0" unmaskedvalue="50"/>
      <field name="tcp.flags.ns" showname="...0 .... .... = Nonce: Not set" size="1" pos="46" show="0" value="0" unmaskedvalue="50"/>
      <field name="tcp.flags.cwr" showname=".... 0... .... = Congestion Window Reduced (CWR): Not set" size="1" pos="47" show="0" value="0" unmaskedvalue="10"/>
      <field name="tcp.flags.ecn" showname=".... .0.. .... = ECN-Echo: Not set" size="1" pos="47" show="0" value="0" unmaskedvalue="10"/>
      <field name="tcp.flags.urg" showname=".... ..0. .... = Urgent: Not set" size="1" pos="47" show="0" value="0" unmaskedvalue="10"/>
      <field name="tcp.flags.ack" showname=".... ...1 .... = Acknowledgment: Set" size="1" pos="47" show="1" value="1" unmaskedvalue="10"/>
      <field name="tcp.flags.push" showname=".... .... 0... = Push: Not set" size="1" pos="47" show="0" value="0" unmaskedvalue="10"/>
      <field name="tcp.flags.reset" showname=".... .... .0.. = Reset: Not set" size="1" pos="47" show="0" value="0" unmaskedvalue="10"/>
      <field name="tcp.flags.syn" showname=".... .... ..0. = Syn: Not set" size="1" pos="47" show="0" value="0" unmaskedvalue="10"/>
      <field name="tcp.flags.fin" showname=".... .... ...0 = Fin: Not set" size="1" pos="47" show="0" value="0" unmaskedvalue="10"/>
    </field>
    <field name="tcp.window_size_value" showname="Window size value: 305" size="2" pos="48" show="305" value="0131"/>
    <field name="tcp.window_size" showname="Calculated window size: 39040" size="2" pos="48" show="39040" value="0131"/>
    <field name="tcp.window_size_scalefactor" showname="Window size scaling factor: 128" size="2" pos="48" show="128" value="0131"/>
    <field name="tcp.checksum" showname="Checksum: 0xae2f [validation disabled]" size="2" pos="50" show="44591" value="ae2f">
      <field name="tcp.checksum_good" showname="Good Checksum: False" size="2" pos="50" show="0" value="ae2f"/>
      <field name="tcp.checksum_bad" showname="Bad Checksum: False" size="2" pos="50" show="0" value="ae2f"/>
    </field>
    <field name="tcp.analysis" showname="SEQ/ACK analysis" size="0" pos="34" show="" value="">
      <field name="tcp.analysis.acks_frame" showname="This is an ACK to the segment in frame: 12" size="0" pos="34" show="12"/>
      <field name="tcp.analysis.ack_rtt" showname="The RTT to ACK the segment was: 0.000012000 seconds" size="0" pos="34" show="0.000012000"/>
    </field>
  </proto>
</packet>


<packet>
  <proto name="geninfo" pos="0" showname="General information" size="60">
    <field name="num" pos="0" show="14" showname="Number" value="e" size="60"/>
    <field name="len" pos="0" show="60" showname="Frame Length" value="3c" size="60"/>
    <field name="caplen" pos="0" show="60" showname="Captured Length" value="3c" size="60"/>
    <field name="timestamp" pos="0" show="Jun 27, 2019 12:20:57.211306000 CEST" showname="Captured Time" value="1561630857.211306000" size="60"/>
  </proto>
  <proto name="frame" showname="Frame 14: 60 bytes on wire (480 bits), 60 bytes captured (480 bits) on interface 0" size="60" pos="0">
    <field name="frame.interface_id" showname="Interface id: 0" size="0" pos="0" show="0"/>
    <field name="frame.encap_type" showname="Encapsulation type: Ethernet (1)" size="0" pos="0" show="1"/>
    <field name="frame.time" showname="Arrival Time: Jun 27, 2019 12:20:57.211306000 CEST" size="0" pos="0" show="&quot;Jun 27, 2019 12:20:57.211306000 CEST&quot;"/>
    <field name="frame.offset_shift" showname="Time shift for this packet: 0.000000000 seconds" size="0" pos="0" show="0.000000000"/>
    <field name="frame.time_epoch" showname="Epoch Time: 1561630857.211306000 seconds" size="0" pos="0" show="1561630857.211306000"/>
    <field name="frame.time_delta" showname="Time delta from previous captured frame: 0.000433000 seconds" size="0" pos="0" show="0.000433000"/>
    <field name="frame.time_delta_displayed" showname="Time delta from previous displayed frame: 0.000433000 seconds" size="0" pos="0" show="0.000433000"/>
    <field name="frame.time_relative" showname="Time since reference or first frame: 0.009899000 seconds" size="0" pos="0" show="0.009899000"/>
    <field name="frame.number" showname="Frame Number: 14" size="0" pos="0" show="14"/>
    <field name="frame.len" showname="Frame Length: 60 bytes (480 bits)" size="0" pos="0" show="60"/>
    <field name="frame.cap_len" showname="Capture Length: 60 bytes (480 bits)" size="0" pos="0" show="60"/>
    <field name="frame.marked" showname="Frame is marked: False" size="0" pos="0" show="0"/>
    <field name="frame.ignored" showname="Frame is ignored: False" size="0" pos="0" show="0"/>
    <field name="frame.protocols" showname="Protocols in frame: eth:ip:tcp:data" size="0" pos="0" show="eth:ip:tcp:data"/>
  </proto>
  <proto name="eth" showname="Ethernet II, Src: 02:42:ac:11:00:02 (02:42:ac:11:00:02), Dst: 02:42:71:12:56:af (02:42:71:12:56:af)" size="14" pos="0">
    <field name="eth.dst" showname="Destination: 02:42:71:12:56:af (02:42:71:12:56:af)" size="6" pos="0" show="02:42:71:12:56:af" value="0242711256af">
      <field name="eth.addr" showname="Address: 02:42:71:12:56:af (02:42:71:12:56:af)" size="6" pos="0" show="02:42:71:12:56:af" value="0242711256af"/>
      <field name="eth.lg" showname=".... ..1. .... .... .... .... = LG bit: Locally administered address (this is NOT the factory default)" size="3" pos="0" show="1" value="1" unmaskedvalue="024271"/>
      <field name="eth.ig" showname=".... ...0 .... .... .... .... = IG bit: Individual address (unicast)" size="3" pos="0" show="0" value="0" unmaskedvalue="024271"/>
    </field>
    <field name="eth.src" showname="Source: 02:42:ac:11:00:02 (02:42:ac:11:00:02)" size="6" pos="6" show="02:42:ac:11:00:02" value="0242ac110002">
      <field name="eth.addr" showname="Address: 02:42:ac:11:00:02 (02:42:ac:11:00:02)" size="6" pos="6" show="02:42:ac:11:00:02" value="0242ac110002"/>
      <field name="eth.lg" showname=".... ..1. .... .... .... .... = LG bit: Locally administered address (this is NOT the factory default)" size="3" pos="6" show="1" value="1" unmaskedvalue="0242ac"/>
      <field name="eth.ig" showname=".... ...0 .... .... .... .... = IG bit: Individual address (unicast)" size="3" pos="6" show="0" value="0" unmaskedvalue="0242ac"/>
    </field>
    <field name="eth.type" showname="Type: IP (0x0800)" size="2" pos="12" show="2048" value="0800"/>
  </proto>
  <proto name="ip" showname="Internet Protocol Version 4, Src: 172.17.0.2 (172.17.0.2), Dst: 1.1.1.1 (1.1.1.1)" size="20" pos="14">
    <field name="ip.version" showname="Version: 4" size="1" pos="14" show="4" value="45"/>
    <field name="ip.hdr_len" showname="Header length: 20 bytes" size="1" pos="14" show="20" value="45"/>
    <field name="ip.dsfield" showname="Differentiated Services Field: 0x00 (DSCP 0x00: Default; ECN: 0x00: Not-ECT (Not ECN-Capable Transport))" size="1" pos="15" show="0" value="00">
      <field name="ip.dsfield.dscp" showname="0000 00.. = Differentiated Services Codepoint: Default (0x00)" size="1" pos="15" show="0" value="0" unmaskedvalue="00"/>
      <field name="ip.dsfield.ecn" showname=".... ..00 = Explicit Congestion Notification: Not-ECT (Not ECN-Capable Transport) (0x00)" size="1" pos="15" show="0" value="0" unmaskedvalue="00"/>
    </field>
    <field name="ip.len" showname="Total Length: 46" size="2" pos="16" show="46" value="002e"/>
    <field name="ip.id" showname="Identification: 0xc410 (50192)" size="2" pos="18" show="50192" value="c410"/>
    <field name="ip.flags" showname="Flags: 0x02 (Don&apos;t Fragment)" size="1" pos="20" show="2" value="40">
      <field name="ip.flags.rb" showname="0... .... = Reserved bit: Not set" size="1" pos="20" show="0" value="40"/>
      <field name="ip.flags.df" showname=".1.. .... = Don&apos;t fragment: Set" size="1" pos="20" show="1" value="40"/>
      <field name="ip.flags.mf" showname="..0. .... = More fragments: Not set" size="1" pos="20" show="0" value="40"/>
    </field>
    <field name="ip.frag_offset" showname="Fragment offset: 0" size="2" pos="20" show="0" value="4000"/>
    <field name="ip.ttl" showname="Time to live: 64" size="1" pos="22" show="64" value="40"/>
    <field name="ip.proto" showname="Protocol: TCP (6)" size="1" pos="23" show="6" value="06"/>
    <field name="ip.checksum" showname="Header checksum: 0xc8a4 [validation disabled]" size="2" pos="24" show="51364" value="c8a4">
      <field name="ip.checksum_good" showname="Good: False" size="2" pos="24" show="0" value="c8a4"/>
      <field name="ip.checksum_bad" showname="Bad: False" size="2" pos="24" show="0" value="c8a4"/>
    </field>
    <field name="ip.src" showname="Source: 172.17.0.2 (172.17.0.2)" size="4" pos="26" show="172.17.0.2" value="ac110002"/>
    <field name="ip.addr" showname="Source or Destination Address: 172.17.0.2 (172.17.0.2)" hide="yes" size="4" pos="26" show="172.17.0.2" value="ac110002"/>
    <field name="ip.src_host" showname="Source Host: 172.17.0.2" hide="yes" size="4" pos="26" show="172.17.0.2" value="ac110002"/>
    <field name="ip.host" showname="Source or Destination Host: 172.17.0.2" hide="yes" size="4" pos="26" show="172.17.0.2" value="ac110002"/>
    <field name="ip.dst" showname="Destination: 1.1.1.1 (1.1.1.1)" size="4" pos="30" show="1.1.1.1" value="01010101"/>
    <field name="ip.addr" showname="Source or Destination Address: 1.1.1.1 (1.1.1.1)" hide="yes" size="4" pos="30" show="1.1.1.1" value="01010101"/>
    <field name="ip.dst_host" showname="Destination Host: 1.1.1.1" hide="yes" size="4" pos="30" show="1.1.1.1" value="01010101"/>
    <field name="ip.host" showname="Source or Destination Host: 1.1.1.1" hide="yes" size="4" pos="30" show="1.1.1.1" value="01010101"/>
  </proto>
  <proto name="tcp" showname="Transmission Control Protocol, Src Port: 59658 (59658), Dst Port: 853 (853), Seq: 338, Ack: 3051, Len: 6" size="20" pos="34">
    <field name="tcp.srcport" showname="Source port: 59658 (59658)" size="2" pos="34" show="59658" value="e90a"/>
    <field name="tcp.dstport" showname="Destination port: 853 (853)" size="2" pos="36" show="853" value="0355"/>
    <field name="tcp.port" showname="Source or Destination Port: 59658" hide="yes" size="2" pos="34" show="59658" value="e90a"/>
    <field name="tcp.port" showname="Source or Destination Port: 853" hide="yes" size="2" pos="36" show="853" value="0355"/>
    <field name="tcp.stream" showname="Stream index: 0" size="0" pos="34" show="0"/>
    <field name="tcp.len" showname="TCP Segment Len: 6" hide="yes" size="1" pos="46" show="6" value="50"/>
    <field name="tcp.seq" showname="Sequence number: 338    (relative sequence number)" size="4" pos="38" show="338" value="6360ae53"/>
    <field name="tcp.nxtseq" showname="Next sequence number: 344    (relative sequence number)" size="0" pos="34" show="344"/>
    <field name="tcp.ack" showname="Acknowledgment number: 3051    (relative ack number)" size="4" pos="42" show="3051" value="7d3d9e57"/>
    <field name="tcp.hdr_len" showname="Header length: 20 bytes" size="1" pos="46" show="20" value="50"/>
    <field name="tcp.flags" showname="Flags: 0x018 (PSH, ACK)" size="2" pos="46" show="24" value="18" unmaskedvalue="5018">
      <field name="tcp.flags.res" showname="000. .... .... = Reserved: Not set" size="1" pos="46" show="0" value="0" unmaskedvalue="50"/>
      <field name="tcp.flags.ns" showname="...0 .... .... = Nonce: Not set" size="1" pos="46" show="0" value="0" unmaskedvalue="50"/>
      <field name="tcp.flags.cwr" showname=".... 0... .... = Congestion Window Reduced (CWR): Not set" size="1" pos="47" show="0" value="0" unmaskedvalue="18"/>
      <field name="tcp.flags.ecn" showname=".... .0.. .... = ECN-Echo: Not set" size="1" pos="47" show="0" value="0" unmaskedvalue="18"/>
      <field name="tcp.flags.urg" showname=".... ..0. .... = Urgent: Not set" size="1" pos="47" show="0" value="0" unmaskedvalue="18"/>
      <field name="tcp.flags.ack" showname=".... ...1 .... = Acknowledgment: Set" size="1" pos="47" show="1" value="1" unmaskedvalue="18"/>
      <field name="tcp.flags.push" showname=".... .... 1... = Push: Set" size="1" pos="47" show="1" value="1" unmaskedvalue="18"/>
      <field name="tcp.flags.reset" showname=".... .... .0.. = Reset: Not set" size="1" pos="47" show="0" value="0" unmaskedvalue="18"/>
      <field name="tcp.flags.syn" showname=".... .... ..0. = Syn: Not set" size="1" pos="47" show="0" value="0" unmaskedvalue="18"/>
      <field name="tcp.flags.fin" showname=".... .... ...0 = Fin: Not set" size="1" pos="47" show="0" value="0" unmaskedvalue="18"/>
    </field>
    <field name="tcp.window_size_value" showname="Window size value: 305" size="2" pos="48" show="305" value="0131"/>
    <field name="tcp.window_size" showname="Calculated window size: 39040" size="2" pos="48" show="39040" value="0131"/>
    <field name="tcp.window_size_scalefactor" showname="Window size scaling factor: 128" size="2" pos="48" show="128" value="0131"/>
    <field name="tcp.checksum" showname="Checksum: 0xae35 [validation disabled]" size="2" pos="50" show="44597" value="ae35">
      <field name="tcp.checksum_good" showname="Good Checksum: False" size="2" pos="50" show="0" value="ae35"/>
      <field name="tcp.checksum_bad" showname="Bad Checksum: False" size="2" pos="50" show="0" value="ae35"/>
    </field>
    <field name="tcp.analysis" showname="SEQ/ACK analysis" size="0" pos="34" show="" value="">
      <field name="tcp.analysis.bytes_in_flight" showname="Bytes in flight: 6" size="0" pos="34" show="6"/>
    </field>
  </proto>
  <proto name="fake-field-wrapper">
    <field name="data" value="140303000101">
      <field name="data.data" showname="Data: 140303000101" size="6" pos="54" show="14:03:03:00:01:01" value="140303000101"/>
      <field name="data.len" showname="Length: 6" size="0" pos="54" show="6"/>
  </field>
</proto>
</packet>


<packet>
  <proto name="geninfo" pos="0" showname="General information" size="54">
    <field name="num" pos="0" show="15" showname="Number" value="f" size="54"/>
    <field name="len" pos="0" show="54" showname="Frame Length" value="36" size="54"/>
    <field name="caplen" pos="0" show="54" showname="Captured Length" value="36" size="54"/>
    <field name="timestamp" pos="0" show="Jun 27, 2019 12:20:57.255090000 CEST" showname="Captured Time" value="1561630857.255090000" size="54"/>
  </proto>
  <proto name="frame" showname="Frame 15: 54 bytes on wire (432 bits), 54 bytes captured (432 bits) on interface 0" size="54" pos="0">
    <field name="frame.interface_id" showname="Interface id: 0" size="0" pos="0" show="0"/>
    <field name="frame.encap_type" showname="Encapsulation type: Ethernet (1)" size="0" pos="0" show="1"/>
    <field name="frame.time" showname="Arrival Time: Jun 27, 2019 12:20:57.255090000 CEST" size="0" pos="0" show="&quot;Jun 27, 2019 12:20:57.255090000 CEST&quot;"/>
    <field name="frame.offset_shift" showname="Time shift for this packet: 0.000000000 seconds" size="0" pos="0" show="0.000000000"/>
    <field name="frame.time_epoch" showname="Epoch Time: 1561630857.255090000 seconds" size="0" pos="0" show="1561630857.255090000"/>
    <field name="frame.time_delta" showname="Time delta from previous captured frame: 0.043784000 seconds" size="0" pos="0" show="0.043784000"/>
    <field name="frame.time_delta_displayed" showname="Time delta from previous displayed frame: 0.043784000 seconds" size="0" pos="0" show="0.043784000"/>
    <field name="frame.time_relative" showname="Time since reference or first frame: 0.053683000 seconds" size="0" pos="0" show="0.053683000"/>
    <field name="frame.number" showname="Frame Number: 15" size="0" pos="0" show="15"/>
    <field name="frame.len" showname="Frame Length: 54 bytes (432 bits)" size="0" pos="0" show="54"/>
    <field name="frame.cap_len" showname="Capture Length: 54 bytes (432 bits)" size="0" pos="0" show="54"/>
    <field name="frame.marked" showname="Frame is marked: False" size="0" pos="0" show="0"/>
    <field name="frame.ignored" showname="Frame is ignored: False" size="0" pos="0" show="0"/>
    <field name="frame.protocols" showname="Protocols in frame: eth:ip:tcp" size="0" pos="0" show="eth:ip:tcp"/>
  </proto>
  <proto name="eth" showname="Ethernet II, Src: 02:42:71:12:56:af (02:42:71:12:56:af), Dst: 02:42:ac:11:00:02 (02:42:ac:11:00:02)" size="14" pos="0">
    <field name="eth.dst" showname="Destination: 02:42:ac:11:00:02 (02:42:ac:11:00:02)" size="6" pos="0" show="02:42:ac:11:00:02" value="0242ac110002">
      <field name="eth.addr" showname="Address: 02:42:ac:11:00:02 (02:42:ac:11:00:02)" size="6" pos="0" show="02:42:ac:11:00:02" value="0242ac110002"/>
      <field name="eth.lg" showname=".... ..1. .... .... .... .... = LG bit: Locally administered address (this is NOT the factory default)" size="3" pos="0" show="1" value="1" unmaskedvalue="0242ac"/>
      <field name="eth.ig" showname=".... ...0 .... .... .... .... = IG bit: Individual address (unicast)" size="3" pos="0" show="0" value="0" unmaskedvalue="0242ac"/>
    </field>
    <field name="eth.src" showname="Source: 02:42:71:12:56:af (02:42:71:12:56:af)" size="6" pos="6" show="02:42:71:12:56:af" value="0242711256af">
      <field name="eth.addr" showname="Address: 02:42:71:12:56:af (02:42:71:12:56:af)" size="6" pos="6" show="02:42:71:12:56:af" value="0242711256af"/>
      <field name="eth.lg" showname=".... ..1. .... .... .... .... = LG bit: Locally administered address (this is NOT the factory default)" size="3" pos="6" show="1" value="1" unmaskedvalue="024271"/>
      <field name="eth.ig" showname=".... ...0 .... .... .... .... = IG bit: Individual address (unicast)" size="3" pos="6" show="0" value="0" unmaskedvalue="024271"/>
    </field>
    <field name="eth.type" showname="Type: IP (0x0800)" size="2" pos="12" show="2048" value="0800"/>
  </proto>
  <proto name="ip" showname="Internet Protocol Version 4, Src: 1.1.1.1 (1.1.1.1), Dst: 172.17.0.2 (172.17.0.2)" size="20" pos="14">
    <field name="ip.version" showname="Version: 4" size="1" pos="14" show="4" value="45"/>
    <field name="ip.hdr_len" showname="Header length: 20 bytes" size="1" pos="14" show="20" value="45"/>
    <field name="ip.dsfield" showname="Differentiated Services Field: 0x00 (DSCP 0x00: Default; ECN: 0x00: Not-ECT (Not ECN-Capable Transport))" size="1" pos="15" show="0" value="00">
      <field name="ip.dsfield.dscp" showname="0000 00.. = Differentiated Services Codepoint: Default (0x00)" size="1" pos="15" show="0" value="0" unmaskedvalue="00"/>
      <field name="ip.dsfield.ecn" showname=".... ..00 = Explicit Congestion Notification: Not-ECT (Not ECN-Capable Transport) (0x00)" size="1" pos="15" show="0" value="0" unmaskedvalue="00"/>
    </field>
    <field name="ip.len" showname="Total Length: 40" size="2" pos="16" show="40" value="0028"/>
    <field name="ip.id" showname="Identification: 0x2df4 (11764)" size="2" pos="18" show="11764" value="2df4"/>
    <field name="ip.flags" showname="Flags: 0x02 (Don&apos;t Fragment)" size="1" pos="20" show="2" value="40">
      <field name="ip.flags.rb" showname="0... .... = Reserved bit: Not set" size="1" pos="20" show="0" value="40"/>
      <field name="ip.flags.df" showname=".1.. .... = Don&apos;t fragment: Set" size="1" pos="20" show="1" value="40"/>
      <field name="ip.flags.mf" showname="..0. .... = More fragments: Not set" size="1" pos="20" show="0" value="40"/>
    </field>
    <field name="ip.frag_offset" showname="Fragment offset: 0" size="2" pos="20" show="0" value="4000"/>
    <field name="ip.ttl" showname="Time to live: 57" size="1" pos="22" show="57" value="39"/>
    <field name="ip.proto" showname="Protocol: TCP (6)" size="1" pos="23" show="6" value="06"/>
    <field name="ip.checksum" showname="Header checksum: 0x65c7 [validation disabled]" size="2" pos="24" show="26055" value="65c7">
      <field name="ip.checksum_good" showname="Good: False" size="2" pos="24" show="0" value="65c7"/>
      <field name="ip.checksum_bad" showname="Bad: False" size="2" pos="24" show="0" value="65c7"/>
    </field>
    <field name="ip.src" showname="Source: 1.1.1.1 (1.1.1.1)" size="4" pos="26" show="1.1.1.1" value="01010101"/>
    <field name="ip.addr" showname="Source or Destination Address: 1.1.1.1 (1.1.1.1)" hide="yes" size="4" pos="26" show="1.1.1.1" value="01010101"/>
    <field name="ip.src_host" showname="Source Host: 1.1.1.1" hide="yes" size="4" pos="26" show="1.1.1.1" value="01010101"/>
    <field name="ip.host" showname="Source or Destination Host: 1.1.1.1" hide="yes" size="4" pos="26" show="1.1.1.1" value="01010101"/>
    <field name="ip.dst" showname="Destination: 172.17.0.2 (172.17.0.2)" size="4" pos="30" show="172.17.0.2" value="ac110002"/>
    <field name="ip.addr" showname="Source or Destination Address: 172.17.0.2 (172.17.0.2)" hide="yes" size="4" pos="30" show="172.17.0.2" value="ac110002"/>
    <field name="ip.dst_host" showname="Destination Host: 172.17.0.2" hide="yes" size="4" pos="30" show="172.17.0.2" value="ac110002"/>
    <field name="ip.host" showname="Source or Destination Host: 172.17.0.2" hide="yes" size="4" pos="30" show="172.17.0.2" value="ac110002"/>
  </proto>
  <proto name="tcp" showname="Transmission Control Protocol, Src Port: 853 (853), Dst Port: 59658 (59658), Seq: 3051, Ack: 344, Len: 0" size="20" pos="34">
    <field name="tcp.srcport" showname="Source port: 853 (853)" size="2" pos="34" show="853" value="0355"/>
    <field name="tcp.dstport" showname="Destination port: 59658 (59658)" size="2" pos="36" show="59658" value="e90a"/>
    <field name="tcp.port" showname="Source or Destination Port: 853" hide="yes" size="2" pos="34" show="853" value="0355"/>
    <field name="tcp.port" showname="Source or Destination Port: 59658" hide="yes" size="2" pos="36" show="59658" value="e90a"/>
    <field name="tcp.stream" showname="Stream index: 0" size="0" pos="34" show="0"/>
    <field name="tcp.len" showname="TCP Segment Len: 0" hide="yes" size="1" pos="46" show="0" value="50"/>
    <field name="tcp.seq" showname="Sequence number: 3051    (relative sequence number)" size="4" pos="38" show="3051" value="7d3d9e57"/>
    <field name="tcp.ack" showname="Acknowledgment number: 344    (relative ack number)" size="4" pos="42" show="344" value="6360ae59"/>
    <field name="tcp.hdr_len" showname="Header length: 20 bytes" size="1" pos="46" show="20" value="50"/>
    <field name="tcp.flags" showname="Flags: 0x010 (ACK)" size="2" pos="46" show="16" value="10" unmaskedvalue="5010">
      <field name="tcp.flags.res" showname="000. .... .... = Reserved: Not set" size="1" pos="46" show="0" value="0" unmaskedvalue="50"/>
      <field name="tcp.flags.ns" showname="...0 .... .... = Nonce: Not set" size="1" pos="46" show="0" value="0" unmaskedvalue="50"/>
      <field name="tcp.flags.cwr" showname=".... 0... .... = Congestion Window Reduced (CWR): Not set" size="1" pos="47" show="0" value="0" unmaskedvalue="10"/>
      <field name="tcp.flags.ecn" showname=".... .0.. .... = ECN-Echo: Not set" size="1" pos="47" show="0" value="0" unmaskedvalue="10"/>
      <field name="tcp.flags.urg" showname=".... ..0. .... = Urgent: Not set" size="1" pos="47" show="0" value="0" unmaskedvalue="10"/>
      <field name="tcp.flags.ack" showname=".... ...1 .... = Acknowledgment: Set" size="1" pos="47" show="1" value="1" unmaskedvalue="10"/>
      <field name="tcp.flags.push" showname=".... .... 0... = Push: Not set" size="1" pos="47" show="0" value="0" unmaskedvalue="10"/>
      <field name="tcp.flags.reset" showname=".... .... .0.. = Reset: Not set" size="1" pos="47" show="0" value="0" unmaskedvalue="10"/>
      <field name="tcp.flags.syn" showname=".... .... ..0. = Syn: Not set" size="1" pos="47" show="0" value="0" unmaskedvalue="10"/>
      <field name="tcp.flags.fin" showname=".... .... ...0 = Fin: Not set" size="1" pos="47" show="0" value="0" unmaskedvalue="10"/>
    </field>
    <field name="tcp.window_size_value" showname="Window size value: 30" size="2" pos="48" show="30" value="001e"/>
    <field name="tcp.window_size" showname="Calculated window size: 30720" size="2" pos="48" show="30720" value="001e"/>
    <field name="tcp.window_size_scalefactor" showname="Window size scaling factor: 1024" size="2" pos="48" show="1024" value="001e"/>
    <field name="tcp.checksum" showname="Checksum: 0xe7f2 [validation disabled]" size="2" pos="50" show="59378" value="e7f2">
      <field name="tcp.checksum_good" showname="Good Checksum: False" size="2" pos="50" show="0" value="e7f2"/>
      <field name="tcp.checksum_bad" showname="Bad Checksum: False" size="2" pos="50" show="0" value="e7f2"/>
    </field>
    <field name="tcp.analysis" showname="SEQ/ACK analysis" size="0" pos="34" show="" value="">
      <field name="tcp.analysis.acks_frame" showname="This is an ACK to the segment in frame: 14" size="0" pos="34" show="14"/>
      <field name="tcp.analysis.ack_rtt" showname="The RTT to ACK the segment was: 0.043784000 seconds" size="0" pos="34" show="0.043784000"/>
    </field>
  </proto>
</packet>


<packet>
  <proto name="geninfo" pos="0" showname="General information" size="280">
    <field name="num" pos="0" show="16" showname="Number" value="10" size="280"/>
    <field name="len" pos="0" show="280" showname="Frame Length" value="118" size="280"/>
    <field name="caplen" pos="0" show="280" showname="Captured Length" value="118" size="280"/>
    <field name="timestamp" pos="0" show="Jun 27, 2019 12:20:57.255114000 CEST" showname="Captured Time" value="1561630857.255114000" size="280"/>
  </proto>
  <proto name="frame" showname="Frame 16: 280 bytes on wire (2240 bits), 280 bytes captured (2240 bits) on interface 0" size="280" pos="0">
    <field name="frame.interface_id" showname="Interface id: 0" size="0" pos="0" show="0"/>
    <field name="frame.encap_type" showname="Encapsulation type: Ethernet (1)" size="0" pos="0" show="1"/>
    <field name="frame.time" showname="Arrival Time: Jun 27, 2019 12:20:57.255114000 CEST" size="0" pos="0" show="&quot;Jun 27, 2019 12:20:57.255114000 CEST&quot;"/>
    <field name="frame.offset_shift" showname="Time shift for this packet: 0.000000000 seconds" size="0" pos="0" show="0.000000000"/>
    <field name="frame.time_epoch" showname="Epoch Time: 1561630857.255114000 seconds" size="0" pos="0" show="1561630857.255114000"/>
    <field name="frame.time_delta" showname="Time delta from previous captured frame: 0.000024000 seconds" size="0" pos="0" show="0.000024000"/>
    <field name="frame.time_delta_displayed" showname="Time delta from previous displayed frame: 0.000024000 seconds" size="0" pos="0" show="0.000024000"/>
    <field name="frame.time_relative" showname="Time since reference or first frame: 0.053707000 seconds" size="0" pos="0" show="0.053707000"/>
    <field name="frame.number" showname="Frame Number: 16" size="0" pos="0" show="16"/>
    <field name="frame.len" showname="Frame Length: 280 bytes (2240 bits)" size="0" pos="0" show="280"/>
    <field name="frame.cap_len" showname="Capture Length: 280 bytes (2240 bits)" size="0" pos="0" show="280"/>
    <field name="frame.marked" showname="Frame is marked: False" size="0" pos="0" show="0"/>
    <field name="frame.ignored" showname="Frame is ignored: False" size="0" pos="0" show="0"/>
    <field name="frame.protocols" showname="Protocols in frame: eth:ip:tcp:data" size="0" pos="0" show="eth:ip:tcp:data"/>
  </proto>
  <proto name="eth" showname="Ethernet II, Src: 02:42:ac:11:00:02 (02:42:ac:11:00:02), Dst: 02:42:71:12:56:af (02:42:71:12:56:af)" size="14" pos="0">
    <field name="eth.dst" showname="Destination: 02:42:71:12:56:af (02:42:71:12:56:af)" size="6" pos="0" show="02:42:71:12:56:af" value="0242711256af">
      <field name="eth.addr" showname="Address: 02:42:71:12:56:af (02:42:71:12:56:af)" size="6" pos="0" show="02:42:71:12:56:af" value="0242711256af"/>
      <field name="eth.lg" showname=".... ..1. .... .... .... .... = LG bit: Locally administered address (this is NOT the factory default)" size="3" pos="0" show="1" value="1" unmaskedvalue="024271"/>
      <field name="eth.ig" showname=".... ...0 .... .... .... .... = IG bit: Individual address (unicast)" size="3" pos="0" show="0" value="0" unmaskedvalue="024271"/>
    </field>
    <field name="eth.src" showname="Source: 02:42:ac:11:00:02 (02:42:ac:11:00:02)" size="6" pos="6" show="02:42:ac:11:00:02" value="0242ac110002">
      <field name="eth.addr" showname="Address: 02:42:ac:11:00:02 (02:42:ac:11:00:02)" size="6" pos="6" show="02:42:ac:11:00:02" value="0242ac110002"/>
      <field name="eth.lg" showname=".... ..1. .... .... .... .... = LG bit: Locally administered address (this is NOT the factory default)" size="3" pos="6" show="1" value="1" unmaskedvalue="0242ac"/>
      <field name="eth.ig" showname=".... ...0 .... .... .... .... = IG bit: Individual address (unicast)" size="3" pos="6" show="0" value="0" unmaskedvalue="0242ac"/>
    </field>
    <field name="eth.type" showname="Type: IP (0x0800)" size="2" pos="12" show="2048" value="0800"/>
  </proto>
  <proto name="ip" showname="Internet Protocol Version 4, Src: 172.17.0.2 (172.17.0.2), Dst: 1.1.1.1 (1.1.1.1)" size="20" pos="14">
    <field name="ip.version" showname="Version: 4" size="1" pos="14" show="4" value="45"/>
    <field name="ip.hdr_len" showname="Header length: 20 bytes" size="1" pos="14" show="20" value="45"/>
    <field name="ip.dsfield" showname="Differentiated Services Field: 0x00 (DSCP 0x00: Default; ECN: 0x00: Not-ECT (Not ECN-Capable Transport))" size="1" pos="15" show="0" value="00">
      <field name="ip.dsfield.dscp" showname="0000 00.. = Differentiated Services Codepoint: Default (0x00)" size="1" pos="15" show="0" value="0" unmaskedvalue="00"/>
      <field name="ip.dsfield.ecn" showname=".... ..00 = Explicit Congestion Notification: Not-ECT (Not ECN-Capable Transport) (0x00)" size="1" pos="15" show="0" value="0" unmaskedvalue="00"/>
    </field>
    <field name="ip.len" showname="Total Length: 266" size="2" pos="16" show="266" value="010a"/>
    <field name="ip.id" showname="Identification: 0xc411 (50193)" size="2" pos="18" show="50193" value="c411"/>
    <field name="ip.flags" showname="Flags: 0x02 (Don&apos;t Fragment)" size="1" pos="20" show="2" value="40">
      <field name="ip.flags.rb" showname="0... .... = Reserved bit: Not set" size="1" pos="20" show="0" value="40"/>
      <field name="ip.flags.df" showname=".1.. .... = Don&apos;t fragment: Set" size="1" pos="20" show="1" value="40"/>
      <field name="ip.flags.mf" showname="..0. .... = More fragments: Not set" size="1" pos="20" show="0" value="40"/>
    </field>
    <field name="ip.frag_offset" showname="Fragment offset: 0" size="2" pos="20" show="0" value="4000"/>
    <field name="ip.ttl" showname="Time to live: 64" size="1" pos="22" show="64" value="40"/>
    <field name="ip.proto" showname="Protocol: TCP (6)" size="1" pos="23" show="6" value="06"/>
    <field name="ip.checksum" showname="Header checksum: 0xc7c7 [validation disabled]" size="2" pos="24" show="51143" value="c7c7">
      <field name="ip.checksum_good" showname="Good: False" size="2" pos="24" show="0" value="c7c7"/>
      <field name="ip.checksum_bad" showname="Bad: False" size="2" pos="24" show="0" value="c7c7"/>
    </field>
    <field name="ip.src" showname="Source: 172.17.0.2 (172.17.0.2)" size="4" pos="26" show="172.17.0.2" value="ac110002"/>
    <field name="ip.addr" showname="Source or Destination Address: 172.17.0.2 (172.17.0.2)" hide="yes" size="4" pos="26" show="172.17.0.2" value="ac110002"/>
    <field name="ip.src_host" showname="Source Host: 172.17.0.2" hide="yes" size="4" pos="26" show="172.17.0.2" value="ac110002"/>
    <field name="ip.host" showname="Source or Destination Host: 172.17.0.2" hide="yes" size="4" pos="26" show="172.17.0.2" value="ac110002"/>
    <field name="ip.dst" showname="Destination: 1.1.1.1 (1.1.1.1)" size="4" pos="30" show="1.1.1.1" value="01010101"/>
    <field name="ip.addr" showname="Source or Destination Address: 1.1.1.1 (1.1.1.1)" hide="yes" size="4" pos="30" show="1.1.1.1" value="01010101"/>
    <field name="ip.dst_host" showname="Destination Host: 1.1.1.1" hide="yes" size="4" pos="30" show="1.1.1.1" value="01010101"/>
    <field name="ip.host" showname="Source or Destination Host: 1.1.1.1" hide="yes" size="4" pos="30" show="1.1.1.1" value="01010101"/>
  </proto>
  <proto name="tcp" showname="Transmission Control Protocol, Src Port: 59658 (59658), Dst Port: 853 (853), Seq: 344, Ack: 3051, Len: 226" size="20" pos="34">
    <field name="tcp.srcport" showname="Source port: 59658 (59658)" size="2" pos="34" show="59658" value="e90a"/>
    <field name="tcp.dstport" showname="Destination port: 853 (853)" size="2" pos="36" show="853" value="0355"/>
    <field name="tcp.port" showname="Source or Destination Port: 59658" hide="yes" size="2" pos="34" show="59658" value="e90a"/>
    <field name="tcp.port" showname="Source or Destination Port: 853" hide="yes" size="2" pos="36" show="853" value="0355"/>
    <field name="tcp.stream" showname="Stream index: 0" size="0" pos="34" show="0"/>
    <field name="tcp.len" showname="TCP Segment Len: 226" hide="yes" size="1" pos="46" show="226" value="50"/>
    <field name="tcp.seq" showname="Sequence number: 344    (relative sequence number)" size="4" pos="38" show="344" value="6360ae59"/>
    <field name="tcp.nxtseq" showname="Next sequence number: 570    (relative sequence number)" size="0" pos="34" show="570"/>
    <field name="tcp.ack" showname="Acknowledgment number: 3051    (relative ack number)" size="4" pos="42" show="3051" value="7d3d9e57"/>
    <field name="tcp.hdr_len" showname="Header length: 20 bytes" size="1" pos="46" show="20" value="50"/>
    <field name="tcp.flags" showname="Flags: 0x018 (PSH, ACK)" size="2" pos="46" show="24" value="18" unmaskedvalue="5018">
      <field name="tcp.flags.res" showname="000. .... .... = Reserved: Not set" size="1" pos="46" show="0" value="0" unmaskedvalue="50"/>
      <field name="tcp.flags.ns" showname="...0 .... .... = Nonce: Not set" size="1" pos="46" show="0" value="0" unmaskedvalue="50"/>
      <field name="tcp.flags.cwr" showname=".... 0... .... = Congestion Window Reduced (CWR): Not set" size="1" pos="47" show="0" value="0" unmaskedvalue="18"/>
      <field name="tcp.flags.ecn" showname=".... .0.. .... = ECN-Echo: Not set" size="1" pos="47" show="0" value="0" unmaskedvalue="18"/>
      <field name="tcp.flags.urg" showname=".... ..0. .... = Urgent: Not set" size="1" pos="47" show="0" value="0" unmaskedvalue="18"/>
      <field name="tcp.flags.ack" showname=".... ...1 .... = Acknowledgment: Set" size="1" pos="47" show="1" value="1" unmaskedvalue="18"/>
      <field name="tcp.flags.push" showname=".... .... 1... = Push: Set" size="1" pos="47" show="1" value="1" unmaskedvalue="18"/>
      <field name="tcp.flags.reset" showname=".... .... .0.. = Reset: Not set" size="1" pos="47" show="0" value="0" unmaskedvalue="18"/>
      <field name="tcp.flags.syn" showname=".... .... ..0. = Syn: Not set" size="1" pos="47" show="0" value="0" unmaskedvalue="18"/>
      <field name="tcp.flags.fin" showname=".... .... ...0 = Fin: Not set" size="1" pos="47" show="0" value="0" unmaskedvalue="18"/>
    </field>
    <field name="tcp.window_size_value" showname="Window size value: 305" size="2" pos="48" show="305" value="0131"/>
    <field name="tcp.window_size" showname="Calculated window size: 39040" size="2" pos="48" show="39040" value="0131"/>
    <field name="tcp.window_size_scalefactor" showname="Window size scaling factor: 128" size="2" pos="48" show="128" value="0131"/>
    <field name="tcp.checksum" showname="Checksum: 0xaf11 [validation disabled]" size="2" pos="50" show="44817" value="af11">
      <field name="tcp.checksum_good" showname="Good Checksum: False" size="2" pos="50" show="0" value="af11"/>
      <field name="tcp.checksum_bad" showname="Bad Checksum: False" size="2" pos="50" show="0" value="af11"/>
    </field>
    <field name="tcp.analysis" showname="SEQ/ACK analysis" size="0" pos="34" show="" value="">
      <field name="tcp.analysis.bytes_in_flight" showname="Bytes in flight: 226" size="0" pos="34" show="226"/>
    </field>
  </proto>
  <proto name="fake-field-wrapper">
    <field name="data" value="1703030045bc3ded3cd692596225b41d65d22a0269e25e7ba80baa8155ee18536a7d6caa9a0d505627c3cbc25e9538661a05a64e744ee8d606ffad0d6ace4e0610c7e0fee16dcc28c71b17030300930d8227faf1dfac27c1b929910de2d33159f826ca8726b6fcf415aabbf765f70616f80bb76c6159d5bda5f374f51c357a3dba4fffc81638289a2c2e650eafbc1dad9e9abb584f2b6faa1639ecae4e84d89742c8b98c7c964b5348d313b6a247883bc3cc49fe5e849fe2e0b267caeec5e69c8ea23c0ae8eca5cb7c4600a778197687c48eabdaf4928ac079b1b6eae6b3a63363a4">
      <field name="data.data" showname="Data: 1703030045bc3ded3cd692596225b41d65d22a0269e25e7b..." size="226" pos="54" show="17:03:03:00:45:bc:3d:ed:3c:d6:92:59:62:25:b4:1d:65:d2:2a:02:69:e2:5e:7b:a8:0b:aa:81:55:ee:18:53:6a:7d:6c:aa:9a:0d:50:56:27:c3:cb:c2:5e:95:38:66:1a:05:a6:4e:74:4e:e8:d6:06:ff:ad:0d:6a:ce:4e:06:10:c7:e0:fe:e1:6d:cc:28:c7:1b:17:03:03:00:93:0d:82:27:fa:f1:df:ac:27:c1:b9:29:91:0d:e2:d3:31:59:f8:26:ca:87:26:b6:fc:f4:15:aa:bb:f7:65:f7:06:16:f8:0b:b7:6c:61:59:d5:bd:a5:f3:74:f5:1c:35:7a:3d:ba:4f:ff:c8:16:38:28:9a:2c:2e:65:0e:af:bc:1d:ad:9e:9a:bb:58:4f:2b:6f:aa:16:39:ec:ae:4e:84:d8:97:42:c8:b9:8c:7c:96:4b:53:48:d3:13:b6:a2:47:88:3b:c3:cc:49:fe:5e:84:9f:e2:e0:b2:67:ca:ee:c5:e6:9c:8e:a2:3c:0a:e8:ec:a5:cb:7c:46:00:a7:78:19:76:87:c4:8e:ab:da:f4:92:8a:c0:79:b1:b6:ea:e6:b3:a6:33:63:a4" value="1703030045bc3ded3cd692596225b41d65d22a0269e25e7ba80baa8155ee18536a7d6caa9a0d505627c3cbc25e9538661a05a64e744ee8d606ffad0d6ace4e0610c7e0fee16dcc28c71b17030300930d8227faf1dfac27c1b929910de2d33159f826ca8726b6fcf415aabbf765f70616f80bb76c6159d5bda5f374f51c357a3dba4fffc81638289a2c2e650eafbc1dad9e9abb584f2b6faa1639ecae4e84d89742c8b98c7c964b5348d313b6a247883bc3cc49fe5e849fe2e0b267caeec5e69c8ea23c0ae8eca5cb7c4600a778197687c48eabdaf4928ac079b1b6eae6b3a63363a4"/>
      <field name="data.len" showname="Length: 226" size="0" pos="54" show="226"/>
  </field>
</proto>
</packet>


<packet>
  <proto name="geninfo" pos="0" showname="General information" size="54">
    <field name="num" pos="0" show="17" showname="Number" value="11" size="54"/>
    <field name="len" pos="0" show="54" showname="Frame Length" value="36" size="54"/>
    <field name="caplen" pos="0" show="54" showname="Captured Length" value="36" size="54"/>
    <field name="timestamp" pos="0" show="Jun 27, 2019 12:20:57.258677000 CEST" showname="Captured Time" value="1561630857.258677000" size="54"/>
  </proto>
  <proto name="frame" showname="Frame 17: 54 bytes on wire (432 bits), 54 bytes captured (432 bits) on interface 0" size="54" pos="0">
    <field name="frame.interface_id" showname="Interface id: 0" size="0" pos="0" show="0"/>
    <field name="frame.encap_type" showname="Encapsulation type: Ethernet (1)" size="0" pos="0" show="1"/>
    <field name="frame.time" showname="Arrival Time: Jun 27, 2019 12:20:57.258677000 CEST" size="0" pos="0" show="&quot;Jun 27, 2019 12:20:57.258677000 CEST&quot;"/>
    <field name="frame.offset_shift" showname="Time shift for this packet: 0.000000000 seconds" size="0" pos="0" show="0.000000000"/>
    <field name="frame.time_epoch" showname="Epoch Time: 1561630857.258677000 seconds" size="0" pos="0" show="1561630857.258677000"/>
    <field name="frame.time_delta" showname="Time delta from previous captured frame: 0.003563000 seconds" size="0" pos="0" show="0.003563000"/>
    <field name="frame.time_delta_displayed" showname="Time delta from previous displayed frame: 0.003563000 seconds" size="0" pos="0" show="0.003563000"/>
    <field name="frame.time_relative" showname="Time since reference or first frame: 0.057270000 seconds" size="0" pos="0" show="0.057270000"/>
    <field name="frame.number" showname="Frame Number: 17" size="0" pos="0" show="17"/>
    <field name="frame.len" showname="Frame Length: 54 bytes (432 bits)" size="0" pos="0" show="54"/>
    <field name="frame.cap_len" showname="Capture Length: 54 bytes (432 bits)" size="0" pos="0" show="54"/>
    <field name="frame.marked" showname="Frame is marked: False" size="0" pos="0" show="0"/>
    <field name="frame.ignored" showname="Frame is ignored: False" size="0" pos="0" show="0"/>
    <field name="frame.protocols" showname="Protocols in frame: eth:ip:tcp" size="0" pos="0" show="eth:ip:tcp"/>
  </proto>
  <proto name="eth" showname="Ethernet II, Src: 02:42:71:12:56:af (02:42:71:12:56:af), Dst: 02:42:ac:11:00:02 (02:42:ac:11:00:02)" size="14" pos="0">
    <field name="eth.dst" showname="Destination: 02:42:ac:11:00:02 (02:42:ac:11:00:02)" size="6" pos="0" show="02:42:ac:11:00:02" value="0242ac110002">
      <field name="eth.addr" showname="Address: 02:42:ac:11:00:02 (02:42:ac:11:00:02)" size="6" pos="0" show="02:42:ac:11:00:02" value="0242ac110002"/>
      <field name="eth.lg" showname=".... ..1. .... .... .... .... = LG bit: Locally administered address (this is NOT the factory default)" size="3" pos="0" show="1" value="1" unmaskedvalue="0242ac"/>
      <field name="eth.ig" showname=".... ...0 .... .... .... .... = IG bit: Individual address (unicast)" size="3" pos="0" show="0" value="0" unmaskedvalue="0242ac"/>
    </field>
    <field name="eth.src" showname="Source: 02:42:71:12:56:af (02:42:71:12:56:af)" size="6" pos="6" show="02:42:71:12:56:af" value="0242711256af">
      <field name="eth.addr" showname="Address: 02:42:71:12:56:af (02:42:71:12:56:af)" size="6" pos="6" show="02:42:71:12:56:af" value="0242711256af"/>
      <field name="eth.lg" showname=".... ..1. .... .... .... .... = LG bit: Locally administered address (this is NOT the factory default)" size="3" pos="6" show="1" value="1" unmaskedvalue="024271"/>
      <field name="eth.ig" showname=".... ...0 .... .... .... .... = IG bit: Individual address (unicast)" size="3" pos="6" show="0" value="0" unmaskedvalue="024271"/>
    </field>
    <field name="eth.type" showname="Type: IP (0x0800)" size="2" pos="12" show="2048" value="0800"/>
  </proto>
  <proto name="ip" showname="Internet Protocol Version 4, Src: 1.1.1.1 (1.1.1.1), Dst: 172.17.0.2 (172.17.0.2)" size="20" pos="14">
    <field name="ip.version" showname="Version: 4" size="1" pos="14" show="4" value="45"/>
    <field name="ip.hdr_len" showname="Header length: 20 bytes" size="1" pos="14" show="20" value="45"/>
    <field name="ip.dsfield" showname="Differentiated Services Field: 0x00 (DSCP 0x00: Default; ECN: 0x00: Not-ECT (Not ECN-Capable Transport))" size="1" pos="15" show="0" value="00">
      <field name="ip.dsfield.dscp" showname="0000 00.. = Differentiated Services Codepoint: Default (0x00)" size="1" pos="15" show="0" value="0" unmaskedvalue="00"/>
      <field name="ip.dsfield.ecn" showname=".... ..00 = Explicit Congestion Notification: Not-ECT (Not ECN-Capable Transport) (0x00)" size="1" pos="15" show="0" value="0" unmaskedvalue="00"/>
    </field>
    <field name="ip.len" showname="Total Length: 40" size="2" pos="16" show="40" value="0028"/>
    <field name="ip.id" showname="Identification: 0x2df5 (11765)" size="2" pos="18" show="11765" value="2df5"/>
    <field name="ip.flags" showname="Flags: 0x02 (Don&apos;t Fragment)" size="1" pos="20" show="2" value="40">
      <field name="ip.flags.rb" showname="0... .... = Reserved bit: Not set" size="1" pos="20" show="0" value="40"/>
      <field name="ip.flags.df" showname=".1.. .... = Don&apos;t fragment: Set" size="1" pos="20" show="1" value="40"/>
      <field name="ip.flags.mf" showname="..0. .... = More fragments: Not set" size="1" pos="20" show="0" value="40"/>
    </field>
    <field name="ip.frag_offset" showname="Fragment offset: 0" size="2" pos="20" show="0" value="4000"/>
    <field name="ip.ttl" showname="Time to live: 57" size="1" pos="22" show="57" value="39"/>
    <field name="ip.proto" showname="Protocol: TCP (6)" size="1" pos="23" show="6" value="06"/>
    <field name="ip.checksum" showname="Header checksum: 0x65c6 [validation disabled]" size="2" pos="24" show="26054" value="65c6">
      <field name="ip.checksum_good" showname="Good: False" size="2" pos="24" show="0" value="65c6"/>
      <field name="ip.checksum_bad" showname="Bad: False" size="2" pos="24" show="0" value="65c6"/>
    </field>
    <field name="ip.src" showname="Source: 1.1.1.1 (1.1.1.1)" size="4" pos="26" show="1.1.1.1" value="01010101"/>
    <field name="ip.addr" showname="Source or Destination Address: 1.1.1.1 (1.1.1.1)" hide="yes" size="4" pos="26" show="1.1.1.1" value="01010101"/>
    <field name="ip.src_host" showname="Source Host: 1.1.1.1" hide="yes" size="4" pos="26" show="1.1.1.1" value="01010101"/>
    <field name="ip.host" showname="Source or Destination Host: 1.1.1.1" hide="yes" size="4" pos="26" show="1.1.1.1" value="01010101"/>
    <field name="ip.dst" showname="Destination: 172.17.0.2 (172.17.0.2)" size="4" pos="30" show="172.17.0.2" value="ac110002"/>
    <field name="ip.addr" showname="Source or Destination Address: 172.17.0.2 (172.17.0.2)" hide="yes" size="4" pos="30" show="172.17.0.2" value="ac110002"/>
    <field name="ip.dst_host" showname="Destination Host: 172.17.0.2" hide="yes" size="4" pos="30" show="172.17.0.2" value="ac110002"/>
    <field name="ip.host" showname="Source or Destination Host: 172.17.0.2" hide="yes" size="4" pos="30" show="172.17.0.2" value="ac110002"/>
  </proto>
  <proto name="tcp" showname="Transmission Control Protocol, Src Port: 853 (853), Dst Port: 59658 (59658), Seq: 3051, Ack: 570, Len: 0" size="20" pos="34">
    <field name="tcp.srcport" showname="Source port: 853 (853)" size="2" pos="34" show="853" value="0355"/>
    <field name="tcp.dstport" showname="Destination port: 59658 (59658)" size="2" pos="36" show="59658" value="e90a"/>
    <field name="tcp.port" showname="Source or Destination Port: 853" hide="yes" size="2" pos="34" show="853" value="0355"/>
    <field name="tcp.port" showname="Source or Destination Port: 59658" hide="yes" size="2" pos="36" show="59658" value="e90a"/>
    <field name="tcp.stream" showname="Stream index: 0" size="0" pos="34" show="0"/>
    <field name="tcp.len" showname="TCP Segment Len: 0" hide="yes" size="1" pos="46" show="0" value="50"/>
    <field name="tcp.seq" showname="Sequence number: 3051    (relative sequence number)" size="4" pos="38" show="3051" value="7d3d9e57"/>
    <field name="tcp.ack" showname="Acknowledgment number: 570    (relative ack number)" size="4" pos="42" show="570" value="6360af3b"/>
    <field name="tcp.hdr_len" showname="Header length: 20 bytes" size="1" pos="46" show="20" value="50"/>
    <field name="tcp.flags" showname="Flags: 0x010 (ACK)" size="2" pos="46" show="16" value="10" unmaskedvalue="5010">
      <field name="tcp.flags.res" showname="000. .... .... = Reserved: Not set" size="1" pos="46" show="0" value="0" unmaskedvalue="50"/>
      <field name="tcp.flags.ns" showname="...0 .... .... = Nonce: Not set" size="1" pos="46" show="0" value="0" unmaskedvalue="50"/>
      <field name="tcp.flags.cwr" showname=".... 0... .... = Congestion Window Reduced (CWR): Not set" size="1" pos="47" show="0" value="0" unmaskedvalue="10"/>
      <field name="tcp.flags.ecn" showname=".... .0.. .... = ECN-Echo: Not set" size="1" pos="47" show="0" value="0" unmaskedvalue="10"/>
      <field name="tcp.flags.urg" showname=".... ..0. .... = Urgent: Not set" size="1" pos="47" show="0" value="0" unmaskedvalue="10"/>
      <field name="tcp.flags.ack" showname=".... ...1 .... = Acknowledgment: Set" size="1" pos="47" show="1" value="1" unmaskedvalue="10"/>
      <field name="tcp.flags.push" showname=".... .... 0... = Push: Not set" size="1" pos="47" show="0" value="0" unmaskedvalue="10"/>
      <field name="tcp.flags.reset" showname=".... .... .0.. = Reset: Not set" size="1" pos="47" show="0" value="0" unmaskedvalue="10"/>
      <field name="tcp.flags.syn" showname=".... .... ..0. = Syn: Not set" size="1" pos="47" show="0" value="0" unmaskedvalue="10"/>
      <field name="tcp.flags.fin" showname=".... .... ...0 = Fin: Not set" size="1" pos="47" show="0" value="0" unmaskedvalue="10"/>
    </field>
    <field name="tcp.window_size_value" showname="Window size value: 31" size="2" pos="48" show="31" value="001f"/>
    <field name="tcp.window_size" showname="Calculated window size: 31744" size="2" pos="48" show="31744" value="001f"/>
    <field name="tcp.window_size_scalefactor" showname="Window size scaling factor: 1024" size="2" pos="48" show="1024" value="001f"/>
    <field name="tcp.checksum" showname="Checksum: 0xe70f [validation disabled]" size="2" pos="50" show="59151" value="e70f">
      <field name="tcp.checksum_good" showname="Good Checksum: False" size="2" pos="50" show="0" value="e70f"/>
      <field name="tcp.checksum_bad" showname="Bad Checksum: False" size="2" pos="50" show="0" value="e70f"/>
    </field>
    <field name="tcp.analysis" showname="SEQ/ACK analysis" size="0" pos="34" show="" value="">
      <field name="tcp.analysis.acks_frame" showname="This is an ACK to the segment in frame: 16" size="0" pos="34" show="16"/>
      <field name="tcp.analysis.ack_rtt" showname="The RTT to ACK the segment was: 0.003563000 seconds" size="0" pos="34" show="0.003563000"/>
    </field>
  </proto>
</packet>


<packet>
  <proto name="geninfo" pos="0" showname="General information" size="206">
    <field name="num" pos="0" show="18" showname="Number" value="12" size="206"/>
    <field name="len" pos="0" show="206" showname="Frame Length" value="ce" size="206"/>
    <field name="caplen" pos="0" show="206" showname="Captured Length" value="ce" size="206"/>
    <field name="timestamp" pos="0" show="Jun 27, 2019 12:20:57.259239000 CEST" showname="Captured Time" value="1561630857.259239000" size="206"/>
  </proto>
  <proto name="frame" showname="Frame 18: 206 bytes on wire (1648 bits), 206 bytes captured (1648 bits) on interface 0" size="206" pos="0">
    <field name="frame.interface_id" showname="Interface id: 0" size="0" pos="0" show="0"/>
    <field name="frame.encap_type" showname="Encapsulation type: Ethernet (1)" size="0" pos="0" show="1"/>
    <field name="frame.time" showname="Arrival Time: Jun 27, 2019 12:20:57.259239000 CEST" size="0" pos="0" show="&quot;Jun 27, 2019 12:20:57.259239000 CEST&quot;"/>
    <field name="frame.offset_shift" showname="Time shift for this packet: 0.000000000 seconds" size="0" pos="0" show="0.000000000"/>
    <field name="frame.time_epoch" showname="Epoch Time: 1561630857.259239000 seconds" size="0" pos="0" show="1561630857.259239000"/>
    <field name="frame.time_delta" showname="Time delta from previous captured frame: 0.000562000 seconds" size="0" pos="0" show="0.000562000"/>
    <field name="frame.time_delta_displayed" showname="Time delta from previous displayed frame: 0.000562000 seconds" size="0" pos="0" show="0.000562000"/>
    <field name="frame.time_relative" showname="Time since reference or first frame: 0.057832000 seconds" size="0" pos="0" show="0.057832000"/>
    <field name="frame.number" showname="Frame Number: 18" size="0" pos="0" show="18"/>
    <field name="frame.len" showname="Frame Length: 206 bytes (1648 bits)" size="0" pos="0" show="206"/>
    <field name="frame.cap_len" showname="Capture Length: 206 bytes (1648 bits)" size="0" pos="0" show="206"/>
    <field name="frame.marked" showname="Frame is marked: False" size="0" pos="0" show="0"/>
    <field name="frame.ignored" showname="Frame is ignored: False" size="0" pos="0" show="0"/>
    <field name="frame.protocols" showname="Protocols in frame: eth:ip:tcp:data" size="0" pos="0" show="eth:ip:tcp:data"/>
  </proto>
  <proto name="eth" showname="Ethernet II, Src: 02:42:71:12:56:af (02:42:71:12:56:af), Dst: 02:42:ac:11:00:02 (02:42:ac:11:00:02)" size="14" pos="0">
    <field name="eth.dst" showname="Destination: 02:42:ac:11:00:02 (02:42:ac:11:00:02)" size="6" pos="0" show="02:42:ac:11:00:02" value="0242ac110002">
      <field name="eth.addr" showname="Address: 02:42:ac:11:00:02 (02:42:ac:11:00:02)" size="6" pos="0" show="02:42:ac:11:00:02" value="0242ac110002"/>
      <field name="eth.lg" showname=".... ..1. .... .... .... .... = LG bit: Locally administered address (this is NOT the factory default)" size="3" pos="0" show="1" value="1" unmaskedvalue="0242ac"/>
      <field name="eth.ig" showname=".... ...0 .... .... .... .... = IG bit: Individual address (unicast)" size="3" pos="0" show="0" value="0" unmaskedvalue="0242ac"/>
    </field>
    <field name="eth.src" showname="Source: 02:42:71:12:56:af (02:42:71:12:56:af)" size="6" pos="6" show="02:42:71:12:56:af" value="0242711256af">
      <field name="eth.addr" showname="Address: 02:42:71:12:56:af (02:42:71:12:56:af)" size="6" pos="6" show="02:42:71:12:56:af" value="0242711256af"/>
      <field name="eth.lg" showname=".... ..1. .... .... .... .... = LG bit: Locally administered address (this is NOT the factory default)" size="3" pos="6" show="1" value="1" unmaskedvalue="024271"/>
      <field name="eth.ig" showname=".... ...0 .... .... .... .... = IG bit: Individual address (unicast)" size="3" pos="6" show="0" value="0" unmaskedvalue="024271"/>
    </field>
    <field name="eth.type" showname="Type: IP (0x0800)" size="2" pos="12" show="2048" value="0800"/>
  </proto>
  <proto name="ip" showname="Internet Protocol Version 4, Src: 1.1.1.1 (1.1.1.1), Dst: 172.17.0.2 (172.17.0.2)" size="20" pos="14">
    <field name="ip.version" showname="Version: 4" size="1" pos="14" show="4" value="45"/>
    <field name="ip.hdr_len" showname="Header length: 20 bytes" size="1" pos="14" show="20" value="45"/>
    <field name="ip.dsfield" showname="Differentiated Services Field: 0x00 (DSCP 0x00: Default; ECN: 0x00: Not-ECT (Not ECN-Capable Transport))" size="1" pos="15" show="0" value="00">
      <field name="ip.dsfield.dscp" showname="0000 00.. = Differentiated Services Codepoint: Default (0x00)" size="1" pos="15" show="0" value="0" unmaskedvalue="00"/>
      <field name="ip.dsfield.ecn" showname=".... ..00 = Explicit Congestion Notification: Not-ECT (Not ECN-Capable Transport) (0x00)" size="1" pos="15" show="0" value="0" unmaskedvalue="00"/>
    </field>
    <field name="ip.len" showname="Total Length: 192" size="2" pos="16" show="192" value="00c0"/>
    <field name="ip.id" showname="Identification: 0x2df6 (11766)" size="2" pos="18" show="11766" value="2df6"/>
    <field name="ip.flags" showname="Flags: 0x02 (Don&apos;t Fragment)" size="1" pos="20" show="2" value="40">
      <field name="ip.flags.rb" showname="0... .... = Reserved bit: Not set" size="1" pos="20" show="0" value="40"/>
      <field name="ip.flags.df" showname=".1.. .... = Don&apos;t fragment: Set" size="1" pos="20" show="1" value="40"/>
      <field name="ip.flags.mf" showname="..0. .... = More fragments: Not set" size="1" pos="20" show="0" value="40"/>
    </field>
    <field name="ip.frag_offset" showname="Fragment offset: 0" size="2" pos="20" show="0" value="4000"/>
    <field name="ip.ttl" showname="Time to live: 57" size="1" pos="22" show="57" value="39"/>
    <field name="ip.proto" showname="Protocol: TCP (6)" size="1" pos="23" show="6" value="06"/>
    <field name="ip.checksum" showname="Header checksum: 0x652d [validation disabled]" size="2" pos="24" show="25901" value="652d">
      <field name="ip.checksum_good" showname="Good: False" size="2" pos="24" show="0" value="652d"/>
      <field name="ip.checksum_bad" showname="Bad: False" size="2" pos="24" show="0" value="652d"/>
    </field>
    <field name="ip.src" showname="Source: 1.1.1.1 (1.1.1.1)" size="4" pos="26" show="1.1.1.1" value="01010101"/>
    <field name="ip.addr" showname="Source or Destination Address: 1.1.1.1 (1.1.1.1)" hide="yes" size="4" pos="26" show="1.1.1.1" value="01010101"/>
    <field name="ip.src_host" showname="Source Host: 1.1.1.1" hide="yes" size="4" pos="26" show="1.1.1.1" value="01010101"/>
    <field name="ip.host" showname="Source or Destination Host: 1.1.1.1" hide="yes" size="4" pos="26" show="1.1.1.1" value="01010101"/>
    <field name="ip.dst" showname="Destination: 172.17.0.2 (172.17.0.2)" size="4" pos="30" show="172.17.0.2" value="ac110002"/>
    <field name="ip.addr" showname="Source or Destination Address: 172.17.0.2 (172.17.0.2)" hide="yes" size="4" pos="30" show="172.17.0.2" value="ac110002"/>
    <field name="ip.dst_host" showname="Destination Host: 172.17.0.2" hide="yes" size="4" pos="30" show="172.17.0.2" value="ac110002"/>
    <field name="ip.host" showname="Source or Destination Host: 172.17.0.2" hide="yes" size="4" pos="30" show="172.17.0.2" value="ac110002"/>
  </proto>
  <proto name="tcp" showname="Transmission Control Protocol, Src Port: 853 (853), Dst Port: 59658 (59658), Seq: 3051, Ack: 570, Len: 152" size="20" pos="34">
    <field name="tcp.srcport" showname="Source port: 853 (853)" size="2" pos="34" show="853" value="0355"/>
    <field name="tcp.dstport" showname="Destination port: 59658 (59658)" size="2" pos="36" show="59658" value="e90a"/>
    <field name="tcp.port" showname="Source or Destination Port: 853" hide="yes" size="2" pos="34" show="853" value="0355"/>
    <field name="tcp.port" showname="Source or Destination Port: 59658" hide="yes" size="2" pos="36" show="59658" value="e90a"/>
    <field name="tcp.stream" showname="Stream index: 0" size="0" pos="34" show="0"/>
    <field name="tcp.len" showname="TCP Segment Len: 152" hide="yes" size="1" pos="46" show="152" value="50"/>
    <field name="tcp.seq" showname="Sequence number: 3051    (relative sequence number)" size="4" pos="38" show="3051" value="7d3d9e57"/>
    <field name="tcp.nxtseq" showname="Next sequence number: 3203    (relative sequence number)" size="0" pos="34" show="3203"/>
    <field name="tcp.ack" showname="Acknowledgment number: 570    (relative ack number)" size="4" pos="42" show="570" value="6360af3b"/>
    <field name="tcp.hdr_len" showname="Header length: 20 bytes" size="1" pos="46" show="20" value="50"/>
    <field name="tcp.flags" showname="Flags: 0x018 (PSH, ACK)" size="2" pos="46" show="24" value="18" unmaskedvalue="5018">
      <field name="tcp.flags.res" showname="000. .... .... = Reserved: Not set" size="1" pos="46" show="0" value="0" unmaskedvalue="50"/>
      <field name="tcp.flags.ns" showname="...0 .... .... = Nonce: Not set" size="1" pos="46" show="0" value="0" unmaskedvalue="50"/>
      <field name="tcp.flags.cwr" showname=".... 0... .... = Congestion Window Reduced (CWR): Not set" size="1" pos="47" show="0" value="0" unmaskedvalue="18"/>
      <field name="tcp.flags.ecn" showname=".... .0.. .... = ECN-Echo: Not set" size="1" pos="47" show="0" value="0" unmaskedvalue="18"/>
      <field name="tcp.flags.urg" showname=".... ..0. .... = Urgent: Not set" size="1" pos="47" show="0" value="0" unmaskedvalue="18"/>
      <field name="tcp.flags.ack" showname=".... ...1 .... = Acknowledgment: Set" size="1" pos="47" show="1" value="1" unmaskedvalue="18"/>
      <field name="tcp.flags.push" showname=".... .... 1... = Push: Set" size="1" pos="47" show="1" value="1" unmaskedvalue="18"/>
      <field name="tcp.flags.reset" showname=".... .... .0.. = Reset: Not set" size="1" pos="47" show="0" value="0" unmaskedvalue="18"/>
      <field name="tcp.flags.syn" showname=".... .... ..0. = Syn: Not set" size="1" pos="47" show="0" value="0" unmaskedvalue="18"/>
      <field name="tcp.flags.fin" showname=".... .... ...0 = Fin: Not set" size="1" pos="47" show="0" value="0" unmaskedvalue="18"/>
    </field>
    <field name="tcp.window_size_value" showname="Window size value: 31" size="2" pos="48" show="31" value="001f"/>
    <field name="tcp.window_size" showname="Calculated window size: 31744" size="2" pos="48" show="31744" value="001f"/>
    <field name="tcp.window_size_scalefactor" showname="Window size scaling factor: 1024" size="2" pos="48" show="1024" value="001f"/>
    <field name="tcp.checksum" showname="Checksum: 0xf06d [validation disabled]" size="2" pos="50" show="61549" value="f06d">
      <field name="tcp.checksum_good" showname="Good Checksum: False" size="2" pos="50" show="0" value="f06d"/>
      <field name="tcp.checksum_bad" showname="Bad Checksum: False" size="2" pos="50" show="0" value="f06d"/>
    </field>
    <field name="tcp.analysis" showname="SEQ/ACK analysis" size="0" pos="34" show="" value="">
      <field name="tcp.analysis.bytes_in_flight" showname="Bytes in flight: 152" size="0" pos="34" show="152"/>
    </field>
  </proto>
  <proto name="fake-field-wrapper">
    <field name="data" value="17030300937a2eee40b1fadf8aa3ac84c14998d1e6aa2004a893f1457e9b59a61e486cc8f08b7460970937606a261efac2d33e0d7e72137058fc8a84825cdb74f9062c2e208dbe88e838906e8d7e118e65300f82c3b7db714dfa7e4ed9e4a5f900674fb010c2e1c403132dd30f4fbacb95a483a0fbd7145dc3ec99ff88b11c007e9ca1fe2f5149b611744a39a19c62155e7d9366bfb52804">
      <field name="data.data" showname="Data: 17030300937a2eee40b1fadf8aa3ac84c14998d1e6aa2004..." size="152" pos="54" show="17:03:03:00:93:7a:2e:ee:40:b1:fa:df:8a:a3:ac:84:c1:49:98:d1:e6:aa:20:04:a8:93:f1:45:7e:9b:59:a6:1e:48:6c:c8:f0:8b:74:60:97:09:37:60:6a:26:1e:fa:c2:d3:3e:0d:7e:72:13:70:58:fc:8a:84:82:5c:db:74:f9:06:2c:2e:20:8d:be:88:e8:38:90:6e:8d:7e:11:8e:65:30:0f:82:c3:b7:db:71:4d:fa:7e:4e:d9:e4:a5:f9:00:67:4f:b0:10:c2:e1:c4:03:13:2d:d3:0f:4f:ba:cb:95:a4:83:a0:fb:d7:14:5d:c3:ec:99:ff:88:b1:1c:00:7e:9c:a1:fe:2f:51:49:b6:11:74:4a:39:a1:9c:62:15:5e:7d:93:66:bf:b5:28:04" value="17030300937a2eee40b1fadf8aa3ac84c14998d1e6aa2004a893f1457e9b59a61e486cc8f08b7460970937606a261efac2d33e0d7e72137058fc8a84825cdb74f9062c2e208dbe88e838906e8d7e118e65300f82c3b7db714dfa7e4ed9e4a5f900674fb010c2e1c403132dd30f4fbacb95a483a0fbd7145dc3ec99ff88b11c007e9ca1fe2f5149b611744a39a19c62155e7d9366bfb52804"/>
      <field name="data.len" showname="Length: 152" size="0" pos="54" show="152"/>
  </field>
</proto>
</packet>


<packet>
  <proto name="geninfo" pos="0" showname="General information" size="78">
    <field name="num" pos="0" show="19" showname="Number" value="13" size="78"/>
    <field name="len" pos="0" show="78" showname="Frame Length" value="4e" size="78"/>
    <field name="caplen" pos="0" show="78" showname="Captured Length" value="4e" size="78"/>
    <field name="timestamp" pos="0" show="Jun 27, 2019 12:20:57.259450000 CEST" showname="Captured Time" value="1561630857.259450000" size="78"/>
  </proto>
  <proto name="frame" showname="Frame 19: 78 bytes on wire (624 bits), 78 bytes captured (624 bits) on interface 0" size="78" pos="0">
    <field name="frame.interface_id" showname="Interface id: 0" size="0" pos="0" show="0"/>
    <field name="frame.encap_type" showname="Encapsulation type: Ethernet (1)" size="0" pos="0" show="1"/>
    <field name="frame.time" showname="Arrival Time: Jun 27, 2019 12:20:57.259450000 CEST" size="0" pos="0" show="&quot;Jun 27, 2019 12:20:57.259450000 CEST&quot;"/>
    <field name="frame.offset_shift" showname="Time shift for this packet: 0.000000000 seconds" size="0" pos="0" show="0.000000000"/>
    <field name="frame.time_epoch" showname="Epoch Time: 1561630857.259450000 seconds" size="0" pos="0" show="1561630857.259450000"/>
    <field name="frame.time_delta" showname="Time delta from previous captured frame: 0.000211000 seconds" size="0" pos="0" show="0.000211000"/>
    <field name="frame.time_delta_displayed" showname="Time delta from previous displayed frame: 0.000211000 seconds" size="0" pos="0" show="0.000211000"/>
    <field name="frame.time_relative" showname="Time since reference or first frame: 0.058043000 seconds" size="0" pos="0" show="0.058043000"/>
    <field name="frame.number" showname="Frame Number: 19" size="0" pos="0" show="19"/>
    <field name="frame.len" showname="Frame Length: 78 bytes (624 bits)" size="0" pos="0" show="78"/>
    <field name="frame.cap_len" showname="Capture Length: 78 bytes (624 bits)" size="0" pos="0" show="78"/>
    <field name="frame.marked" showname="Frame is marked: False" size="0" pos="0" show="0"/>
    <field name="frame.ignored" showname="Frame is ignored: False" size="0" pos="0" show="0"/>
    <field name="frame.protocols" showname="Protocols in frame: eth:ip:tcp:data" size="0" pos="0" show="eth:ip:tcp:data"/>
  </proto>
  <proto name="eth" showname="Ethernet II, Src: 02:42:ac:11:00:02 (02:42:ac:11:00:02), Dst: 02:42:71:12:56:af (02:42:71:12:56:af)" size="14" pos="0">
    <field name="eth.dst" showname="Destination: 02:42:71:12:56:af (02:42:71:12:56:af)" size="6" pos="0" show="02:42:71:12:56:af" value="0242711256af">
      <field name="eth.addr" showname="Address: 02:42:71:12:56:af (02:42:71:12:56:af)" size="6" pos="0" show="02:42:71:12:56:af" value="0242711256af"/>
      <field name="eth.lg" showname=".... ..1. .... .... .... .... = LG bit: Locally administered address (this is NOT the factory default)" size="3" pos="0" show="1" value="1" unmaskedvalue="024271"/>
      <field name="eth.ig" showname=".... ...0 .... .... .... .... = IG bit: Individual address (unicast)" size="3" pos="0" show="0" value="0" unmaskedvalue="024271"/>
    </field>
    <field name="eth.src" showname="Source: 02:42:ac:11:00:02 (02:42:ac:11:00:02)" size="6" pos="6" show="02:42:ac:11:00:02" value="0242ac110002">
      <field name="eth.addr" showname="Address: 02:42:ac:11:00:02 (02:42:ac:11:00:02)" size="6" pos="6" show="02:42:ac:11:00:02" value="0242ac110002"/>
      <field name="eth.lg" showname=".... ..1. .... .... .... .... = LG bit: Locally administered address (this is NOT the factory default)" size="3" pos="6" show="1" value="1" unmaskedvalue="0242ac"/>
      <field name="eth.ig" showname=".... ...0 .... .... .... .... = IG bit: Individual address (unicast)" size="3" pos="6" show="0" value="0" unmaskedvalue="0242ac"/>
    </field>
    <field name="eth.type" showname="Type: IP (0x0800)" size="2" pos="12" show="2048" value="0800"/>
  </proto>
  <proto name="ip" showname="Internet Protocol Version 4, Src: 172.17.0.2 (172.17.0.2), Dst: 1.1.1.1 (1.1.1.1)" size="20" pos="14">
    <field name="ip.version" showname="Version: 4" size="1" pos="14" show="4" value="45"/>
    <field name="ip.hdr_len" showname="Header length: 20 bytes" size="1" pos="14" show="20" value="45"/>
    <field name="ip.dsfield" showname="Differentiated Services Field: 0x00 (DSCP 0x00: Default; ECN: 0x00: Not-ECT (Not ECN-Capable Transport))" size="1" pos="15" show="0" value="00">
      <field name="ip.dsfield.dscp" showname="0000 00.. = Differentiated Services Codepoint: Default (0x00)" size="1" pos="15" show="0" value="0" unmaskedvalue="00"/>
      <field name="ip.dsfield.ecn" showname=".... ..00 = Explicit Congestion Notification: Not-ECT (Not ECN-Capable Transport) (0x00)" size="1" pos="15" show="0" value="0" unmaskedvalue="00"/>
    </field>
    <field name="ip.len" showname="Total Length: 64" size="2" pos="16" show="64" value="0040"/>
    <field name="ip.id" showname="Identification: 0xc412 (50194)" size="2" pos="18" show="50194" value="c412"/>
    <field name="ip.flags" showname="Flags: 0x02 (Don&apos;t Fragment)" size="1" pos="20" show="2" value="40">
      <field name="ip.flags.rb" showname="0... .... = Reserved bit: Not set" size="1" pos="20" show="0" value="40"/>
      <field name="ip.flags.df" showname=".1.. .... = Don&apos;t fragment: Set" size="1" pos="20" show="1" value="40"/>
      <field name="ip.flags.mf" showname="..0. .... = More fragments: Not set" size="1" pos="20" show="0" value="40"/>
    </field>
    <field name="ip.frag_offset" showname="Fragment offset: 0" size="2" pos="20" show="0" value="4000"/>
    <field name="ip.ttl" showname="Time to live: 64" size="1" pos="22" show="64" value="40"/>
    <field name="ip.proto" showname="Protocol: TCP (6)" size="1" pos="23" show="6" value="06"/>
    <field name="ip.checksum" showname="Header checksum: 0xc890 [validation disabled]" size="2" pos="24" show="51344" value="c890">
      <field name="ip.checksum_good" showname="Good: False" size="2" pos="24" show="0" value="c890"/>
      <field name="ip.checksum_bad" showname="Bad: False" size="2" pos="24" show="0" value="c890"/>
    </field>
    <field name="ip.src" showname="Source: 172.17.0.2 (172.17.0.2)" size="4" pos="26" show="172.17.0.2" value="ac110002"/>
    <field name="ip.addr" showname="Source or Destination Address: 172.17.0.2 (172.17.0.2)" hide="yes" size="4" pos="26" show="172.17.0.2" value="ac110002"/>
    <field name="ip.src_host" showname="Source Host: 172.17.0.2" hide="yes" size="4" pos="26" show="172.17.0.2" value="ac110002"/>
    <field name="ip.host" showname="Source or Destination Host: 172.17.0.2" hide="yes" size="4" pos="26" show="172.17.0.2" value="ac110002"/>
    <field name="ip.dst" showname="Destination: 1.1.1.1 (1.1.1.1)" size="4" pos="30" show="1.1.1.1" value="01010101"/>
    <field name="ip.addr" showname="Source or Destination Address: 1.1.1.1 (1.1.1.1)" hide="yes" size="4" pos="30" show="1.1.1.1" value="01010101"/>
    <field name="ip.dst_host" showname="Destination Host: 1.1.1.1" hide="yes" size="4" pos="30" show="1.1.1.1" value="01010101"/>
    <field name="ip.host" showname="Source or Destination Host: 1.1.1.1" hide="yes" size="4" pos="30" show="1.1.1.1" value="01010101"/>
  </proto>
  <proto name="tcp" showname="Transmission Control Protocol, Src Port: 59658 (59658), Dst Port: 853 (853), Seq: 570, Ack: 3203, Len: 24" size="20" pos="34">
    <field name="tcp.srcport" showname="Source port: 59658 (59658)" size="2" pos="34" show="59658" value="e90a"/>
    <field name="tcp.dstport" showname="Destination port: 853 (853)" size="2" pos="36" show="853" value="0355"/>
    <field name="tcp.port" showname="Source or Destination Port: 59658" hide="yes" size="2" pos="34" show="59658" value="e90a"/>
    <field name="tcp.port" showname="Source or Destination Port: 853" hide="yes" size="2" pos="36" show="853" value="0355"/>
    <field name="tcp.stream" showname="Stream index: 0" size="0" pos="34" show="0"/>
    <field name="tcp.len" showname="TCP Segment Len: 24" hide="yes" size="1" pos="46" show="24" value="50"/>
    <field name="tcp.seq" showname="Sequence number: 570    (relative sequence number)" size="4" pos="38" show="570" value="6360af3b"/>
    <field name="tcp.nxtseq" showname="Next sequence number: 594    (relative sequence number)" size="0" pos="34" show="594"/>
    <field name="tcp.ack" showname="Acknowledgment number: 3203    (relative ack number)" size="4" pos="42" show="3203" value="7d3d9eef"/>
    <field name="tcp.hdr_len" showname="Header length: 20 bytes" size="1" pos="46" show="20" value="50"/>
    <field name="tcp.flags" showname="Flags: 0x018 (PSH, ACK)" size="2" pos="46" show="24" value="18" unmaskedvalue="5018">
      <field name="tcp.flags.res" showname="000. .... .... = Reserved: Not set" size="1" pos="46" show="0" value="0" unmaskedvalue="50"/>
      <field name="tcp.flags.ns" showname="...0 .... .... = Nonce: Not set" size="1" pos="46" show="0" value="0" unmaskedvalue="50"/>
      <field name="tcp.flags.cwr" showname=".... 0... .... = Congestion Window Reduced (CWR): Not set" size="1" pos="47" show="0" value="0" unmaskedvalue="18"/>
      <field name="tcp.flags.ecn" showname=".... .0.. .... = ECN-Echo: Not set" size="1" pos="47" show="0" value="0" unmaskedvalue="18"/>
      <field name="tcp.flags.urg" showname=".... ..0. .... = Urgent: Not set" size="1" pos="47" show="0" value="0" unmaskedvalue="18"/>
      <field name="tcp.flags.ack" showname=".... ...1 .... = Acknowledgment: Set" size="1" pos="47" show="1" value="1" unmaskedvalue="18"/>
      <field name="tcp.flags.push" showname=".... .... 1... = Push: Set" size="1" pos="47" show="1" value="1" unmaskedvalue="18"/>
      <field name="tcp.flags.reset" showname=".... .... .0.. = Reset: Not set" size="1" pos="47" show="0" value="0" unmaskedvalue="18"/>
      <field name="tcp.flags.syn" showname=".... .... ..0. = Syn: Not set" size="1" pos="47" show="0" value="0" unmaskedvalue="18"/>
      <field name="tcp.flags.fin" showname=".... .... ...0 = Fin: Not set" size="1" pos="47" show="0" value="0" unmaskedvalue="18"/>
    </field>
    <field name="tcp.window_size_value" showname="Window size value: 328" size="2" pos="48" show="328" value="0148"/>
    <field name="tcp.window_size" showname="Calculated window size: 41984" size="2" pos="48" show="41984" value="0148"/>
    <field name="tcp.window_size_scalefactor" showname="Window size scaling factor: 128" size="2" pos="48" show="128" value="0148"/>
    <field name="tcp.checksum" showname="Checksum: 0xae47 [validation disabled]" size="2" pos="50" show="44615" value="ae47">
      <field name="tcp.checksum_good" showname="Good Checksum: False" size="2" pos="50" show="0" value="ae47"/>
      <field name="tcp.checksum_bad" showname="Bad Checksum: False" size="2" pos="50" show="0" value="ae47"/>
    </field>
    <field name="tcp.analysis" showname="SEQ/ACK analysis" size="0" pos="34" show="" value="">
      <field name="tcp.analysis.acks_frame" showname="This is an ACK to the segment in frame: 18" size="0" pos="34" show="18"/>
      <field name="tcp.analysis.ack_rtt" showname="The RTT to ACK the segment was: 0.000211000 seconds" size="0" pos="34" show="0.000211000"/>
      <field name="tcp.analysis.bytes_in_flight" showname="Bytes in flight: 24" size="0" pos="34" show="24"/>
    </field>
  </proto>
  <proto name="fake-field-wrapper">
    <field name="data" value="170303001316550d31c9b4cc1ace17b474331bf4cb163431">
      <field name="data.data" showname="Data: 170303001316550d31c9b4cc1ace17b474331bf4cb163431" size="24" pos="54" show="17:03:03:00:13:16:55:0d:31:c9:b4:cc:1a:ce:17:b4:74:33:1b:f4:cb:16:34:31" value="170303001316550d31c9b4cc1ace17b474331bf4cb163431"/>
      <field name="data.len" showname="Length: 24" size="0" pos="54" show="24"/>
  </field>
</proto>
</packet>


<packet>
  <proto name="geninfo" pos="0" showname="General information" size="54">
    <field name="num" pos="0" show="20" showname="Number" value="14" size="54"/>
    <field name="len" pos="0" show="54" showname="Frame Length" value="36" size="54"/>
    <field name="caplen" pos="0" show="54" showname="Captured Length" value="36" size="54"/>
    <field name="timestamp" pos="0" show="Jun 27, 2019 12:20:57.259519000 CEST" showname="Captured Time" value="1561630857.259519000" size="54"/>
  </proto>
  <proto name="frame" showname="Frame 20: 54 bytes on wire (432 bits), 54 bytes captured (432 bits) on interface 0" size="54" pos="0">
    <field name="frame.interface_id" showname="Interface id: 0" size="0" pos="0" show="0"/>
    <field name="frame.encap_type" showname="Encapsulation type: Ethernet (1)" size="0" pos="0" show="1"/>
    <field name="frame.time" showname="Arrival Time: Jun 27, 2019 12:20:57.259519000 CEST" size="0" pos="0" show="&quot;Jun 27, 2019 12:20:57.259519000 CEST&quot;"/>
    <field name="frame.offset_shift" showname="Time shift for this packet: 0.000000000 seconds" size="0" pos="0" show="0.000000000"/>
    <field name="frame.time_epoch" showname="Epoch Time: 1561630857.259519000 seconds" size="0" pos="0" show="1561630857.259519000"/>
    <field name="frame.time_delta" showname="Time delta from previous captured frame: 0.000069000 seconds" size="0" pos="0" show="0.000069000"/>
    <field name="frame.time_delta_displayed" showname="Time delta from previous displayed frame: 0.000069000 seconds" size="0" pos="0" show="0.000069000"/>
    <field name="frame.time_relative" showname="Time since reference or first frame: 0.058112000 seconds" size="0" pos="0" show="0.058112000"/>
    <field name="frame.number" showname="Frame Number: 20" size="0" pos="0" show="20"/>
    <field name="frame.len" showname="Frame Length: 54 bytes (432 bits)" size="0" pos="0" show="54"/>
    <field name="frame.cap_len" showname="Capture Length: 54 bytes (432 bits)" size="0" pos="0" show="54"/>
    <field name="frame.marked" showname="Frame is marked: False" size="0" pos="0" show="0"/>
    <field name="frame.ignored" showname="Frame is ignored: False" size="0" pos="0" show="0"/>
    <field name="frame.protocols" showname="Protocols in frame: eth:ip:tcp" size="0" pos="0" show="eth:ip:tcp"/>
  </proto>
  <proto name="eth" showname="Ethernet II, Src: 02:42:ac:11:00:02 (02:42:ac:11:00:02), Dst: 02:42:71:12:56:af (02:42:71:12:56:af)" size="14" pos="0">
    <field name="eth.dst" showname="Destination: 02:42:71:12:56:af (02:42:71:12:56:af)" size="6" pos="0" show="02:42:71:12:56:af" value="0242711256af">
      <field name="eth.addr" showname="Address: 02:42:71:12:56:af (02:42:71:12:56:af)" size="6" pos="0" show="02:42:71:12:56:af" value="0242711256af"/>
      <field name="eth.lg" showname=".... ..1. .... .... .... .... = LG bit: Locally administered address (this is NOT the factory default)" size="3" pos="0" show="1" value="1" unmaskedvalue="024271"/>
      <field name="eth.ig" showname=".... ...0 .... .... .... .... = IG bit: Individual address (unicast)" size="3" pos="0" show="0" value="0" unmaskedvalue="024271"/>
    </field>
    <field name="eth.src" showname="Source: 02:42:ac:11:00:02 (02:42:ac:11:00:02)" size="6" pos="6" show="02:42:ac:11:00:02" value="0242ac110002">
      <field name="eth.addr" showname="Address: 02:42:ac:11:00:02 (02:42:ac:11:00:02)" size="6" pos="6" show="02:42:ac:11:00:02" value="0242ac110002"/>
      <field name="eth.lg" showname=".... ..1. .... .... .... .... = LG bit: Locally administered address (this is NOT the factory default)" size="3" pos="6" show="1" value="1" unmaskedvalue="0242ac"/>
      <field name="eth.ig" showname=".... ...0 .... .... .... .... = IG bit: Individual address (unicast)" size="3" pos="6" show="0" value="0" unmaskedvalue="0242ac"/>
    </field>
    <field name="eth.type" showname="Type: IP (0x0800)" size="2" pos="12" show="2048" value="0800"/>
  </proto>
  <proto name="ip" showname="Internet Protocol Version 4, Src: 172.17.0.2 (172.17.0.2), Dst: 1.1.1.1 (1.1.1.1)" size="20" pos="14">
    <field name="ip.version" showname="Version: 4" size="1" pos="14" show="4" value="45"/>
    <field name="ip.hdr_len" showname="Header length: 20 bytes" size="1" pos="14" show="20" value="45"/>
    <field name="ip.dsfield" showname="Differentiated Services Field: 0x00 (DSCP 0x00: Default; ECN: 0x00: Not-ECT (Not ECN-Capable Transport))" size="1" pos="15" show="0" value="00">
      <field name="ip.dsfield.dscp" showname="0000 00.. = Differentiated Services Codepoint: Default (0x00)" size="1" pos="15" show="0" value="0" unmaskedvalue="00"/>
      <field name="ip.dsfield.ecn" showname=".... ..00 = Explicit Congestion Notification: Not-ECT (Not ECN-Capable Transport) (0x00)" size="1" pos="15" show="0" value="0" unmaskedvalue="00"/>
    </field>
    <field name="ip.len" showname="Total Length: 40" size="2" pos="16" show="40" value="0028"/>
    <field name="ip.id" showname="Identification: 0xc413 (50195)" size="2" pos="18" show="50195" value="c413"/>
    <field name="ip.flags" showname="Flags: 0x02 (Don&apos;t Fragment)" size="1" pos="20" show="2" value="40">
      <field name="ip.flags.rb" showname="0... .... = Reserved bit: Not set" size="1" pos="20" show="0" value="40"/>
      <field name="ip.flags.df" showname=".1.. .... = Don&apos;t fragment: Set" size="1" pos="20" show="1" value="40"/>
      <field name="ip.flags.mf" showname="..0. .... = More fragments: Not set" size="1" pos="20" show="0" value="40"/>
    </field>
    <field name="ip.frag_offset" showname="Fragment offset: 0" size="2" pos="20" show="0" value="4000"/>
    <field name="ip.ttl" showname="Time to live: 64" size="1" pos="22" show="64" value="40"/>
    <field name="ip.proto" showname="Protocol: TCP (6)" size="1" pos="23" show="6" value="06"/>
    <field name="ip.checksum" showname="Header checksum: 0xc8a7 [validation disabled]" size="2" pos="24" show="51367" value="c8a7">
      <field name="ip.checksum_good" showname="Good: False" size="2" pos="24" show="0" value="c8a7"/>
      <field name="ip.checksum_bad" showname="Bad: False" size="2" pos="24" show="0" value="c8a7"/>
    </field>
    <field name="ip.src" showname="Source: 172.17.0.2 (172.17.0.2)" size="4" pos="26" show="172.17.0.2" value="ac110002"/>
    <field name="ip.addr" showname="Source or Destination Address: 172.17.0.2 (172.17.0.2)" hide="yes" size="4" pos="26" show="172.17.0.2" value="ac110002"/>
    <field name="ip.src_host" showname="Source Host: 172.17.0.2" hide="yes" size="4" pos="26" show="172.17.0.2" value="ac110002"/>
    <field name="ip.host" showname="Source or Destination Host: 172.17.0.2" hide="yes" size="4" pos="26" show="172.17.0.2" value="ac110002"/>
    <field name="ip.dst" showname="Destination: 1.1.1.1 (1.1.1.1)" size="4" pos="30" show="1.1.1.1" value="01010101"/>
    <field name="ip.addr" showname="Source or Destination Address: 1.1.1.1 (1.1.1.1)" hide="yes" size="4" pos="30" show="1.1.1.1" value="01010101"/>
    <field name="ip.dst_host" showname="Destination Host: 1.1.1.1" hide="yes" size="4" pos="30" show="1.1.1.1" value="01010101"/>
    <field name="ip.host" showname="Source or Destination Host: 1.1.1.1" hide="yes" size="4" pos="30" show="1.1.1.1" value="01010101"/>
  </proto>
  <proto name="tcp" showname="Transmission Control Protocol, Src Port: 59658 (59658), Dst Port: 853 (853), Seq: 594, Ack: 3203, Len: 0" size="20" pos="34">
    <field name="tcp.srcport" showname="Source port: 59658 (59658)" size="2" pos="34" show="59658" value="e90a"/>
    <field name="tcp.dstport" showname="Destination port: 853 (853)" size="2" pos="36" show="853" value="0355"/>
    <field name="tcp.port" showname="Source or Destination Port: 59658" hide="yes" size="2" pos="34" show="59658" value="e90a"/>
    <field name="tcp.port" showname="Source or Destination Port: 853" hide="yes" size="2" pos="36" show="853" value="0355"/>
    <field name="tcp.stream" showname="Stream index: 0" size="0" pos="34" show="0"/>
    <field name="tcp.len" showname="TCP Segment Len: 0" hide="yes" size="1" pos="46" show="0" value="50"/>
    <field name="tcp.seq" showname="Sequence number: 594    (relative sequence number)" size="4" pos="38" show="594" value="6360af53"/>
    <field name="tcp.ack" showname="Acknowledgment number: 3203    (relative ack number)" size="4" pos="42" show="3203" value="7d3d9eef"/>
    <field name="tcp.hdr_len" showname="Header length: 20 bytes" size="1" pos="46" show="20" value="50"/>
    <field name="tcp.flags" showname="Flags: 0x011 (FIN, ACK)" size="2" pos="46" show="17" value="11" unmaskedvalue="5011">
      <field name="tcp.flags.res" showname="000. .... .... = Reserved: Not set" size="1" pos="46" show="0" value="0" unmaskedvalue="50"/>
      <field name="tcp.flags.ns" showname="...0 .... .... = Nonce: Not set" size="1" pos="46" show="0" value="0" unmaskedvalue="50"/>
      <field name="tcp.flags.cwr" showname=".... 0... .... = Congestion Window Reduced (CWR): Not set" size="1" pos="47" show="0" value="0" unmaskedvalue="11"/>
      <field name="tcp.flags.ecn" showname=".... .0.. .... = ECN-Echo: Not set" size="1" pos="47" show="0" value="0" unmaskedvalue="11"/>
      <field name="tcp.flags.urg" showname=".... ..0. .... = Urgent: Not set" size="1" pos="47" show="0" value="0" unmaskedvalue="11"/>
      <field name="tcp.flags.ack" showname=".... ...1 .... = Acknowledgment: Set" size="1" pos="47" show="1" value="1" unmaskedvalue="11"/>
      <field name="tcp.flags.push" showname=".... .... 0... = Push: Not set" size="1" pos="47" show="0" value="0" unmaskedvalue="11"/>
      <field name="tcp.flags.reset" showname=".... .... .0.. = Reset: Not set" size="1" pos="47" show="0" value="0" unmaskedvalue="11"/>
      <field name="tcp.flags.syn" showname=".... .... ..0. = Syn: Not set" size="1" pos="47" show="0" value="0" unmaskedvalue="11"/>
      <field name="tcp.flags.fin" showname=".... .... ...1 = Fin: Set" size="1" pos="47" show="1" value="1" unmaskedvalue="11">
        <field name="expert" showname="Expert Info (Chat/Sequence): Connection finish (FIN)" size="0" pos="47">
          <field name="expert.message" showname="Message: Connection finish (FIN)" size="0" pos="0" show="Connection finish (FIN)"/>
          <field name="expert.severity" showname="Severity level: Chat" size="0" pos="0" show="2097152"/>
          <field name="expert.group" showname="Group: Sequence" size="0" pos="0" show="33554432"/>
        </field>
      </field>
    </field>
    <field name="tcp.window_size_value" showname="Window size value: 328" size="2" pos="48" show="328" value="0148"/>
    <field name="tcp.window_size" showname="Calculated window size: 41984" size="2" pos="48" show="41984" value="0148"/>
    <field name="tcp.window_size_scalefactor" showname="Window size scaling factor: 128" size="2" pos="48" show="128" value="0148"/>
    <field name="tcp.checksum" showname="Checksum: 0xae2f [validation disabled]" size="2" pos="50" show="44591" value="ae2f">
      <field name="tcp.checksum_good" showname="Good Checksum: False" size="2" pos="50" show="0" value="ae2f"/>
      <field name="tcp.checksum_bad" showname="Bad Checksum: False" size="2" pos="50" show="0" value="ae2f"/>
    </field>
  </proto>
</packet>


<packet>
  <proto name="geninfo" pos="0" showname="General information" size="54">
    <field name="num" pos="0" show="21" showname="Number" value="15" size="54"/>
    <field name="len" pos="0" show="54" showname="Frame Length" value="36" size="54"/>
    <field name="caplen" pos="0" show="54" showname="Captured Length" value="36" size="54"/>
    <field name="timestamp" pos="0" show="Jun 27, 2019 12:20:57.263135000 CEST" showname="Captured Time" value="1561630857.263135000" size="54"/>
  </proto>
  <proto name="frame" showname="Frame 21: 54 bytes on wire (432 bits), 54 bytes captured (432 bits) on interface 0" size="54" pos="0">
    <field name="frame.interface_id" showname="Interface id: 0" size="0" pos="0" show="0"/>
    <field name="frame.encap_type" showname="Encapsulation type: Ethernet (1)" size="0" pos="0" show="1"/>
    <field name="frame.time" showname="Arrival Time: Jun 27, 2019 12:20:57.263135000 CEST" size="0" pos="0" show="&quot;Jun 27, 2019 12:20:57.263135000 CEST&quot;"/>
    <field name="frame.offset_shift" showname="Time shift for this packet: 0.000000000 seconds" size="0" pos="0" show="0.000000000"/>
    <field name="frame.time_epoch" showname="Epoch Time: 1561630857.263135000 seconds" size="0" pos="0" show="1561630857.263135000"/>
    <field name="frame.time_delta" showname="Time delta from previous captured frame: 0.003616000 seconds" size="0" pos="0" show="0.003616000"/>
    <field name="frame.time_delta_displayed" showname="Time delta from previous displayed frame: 0.003616000 seconds" size="0" pos="0" show="0.003616000"/>
    <field name="frame.time_relative" showname="Time since reference or first frame: 0.061728000 seconds" size="0" pos="0" show="0.061728000"/>
    <field name="frame.number" showname="Frame Number: 21" size="0" pos="0" show="21"/>
    <field name="frame.len" showname="Frame Length: 54 bytes (432 bits)" size="0" pos="0" show="54"/>
    <field name="frame.cap_len" showname="Capture Length: 54 bytes (432 bits)" size="0" pos="0" show="54"/>
    <field name="frame.marked" showname="Frame is marked: False" size="0" pos="0" show="0"/>
    <field name="frame.ignored" showname="Frame is ignored: False" size="0" pos="0" show="0"/>
    <field name="frame.protocols" showname="Protocols in frame: eth:ip:tcp" size="0" pos="0" show="eth:ip:tcp"/>
  </proto>
  <proto name="eth" showname="Ethernet II, Src: 02:42:71:12:56:af (02:42:71:12:56:af), Dst: 02:42:ac:11:00:02 (02:42:ac:11:00:02)" size="14" pos="0">
    <field name="eth.dst" showname="Destination: 02:42:ac:11:00:02 (02:42:ac:11:00:02)" size="6" pos="0" show="02:42:ac:11:00:02" value="0242ac110002">
      <field name="eth.addr" showname="Address: 02:42:ac:11:00:02 (02:42:ac:11:00:02)" size="6" pos="0" show="02:42:ac:11:00:02" value="0242ac110002"/>
      <field name="eth.lg" showname=".... ..1. .... .... .... .... = LG bit: Locally administered address (this is NOT the factory default)" size="3" pos="0" show="1" value="1" unmaskedvalue="0242ac"/>
      <field name="eth.ig" showname=".... ...0 .... .... .... .... = IG bit: Individual address (unicast)" size="3" pos="0" show="0" value="0" unmaskedvalue="0242ac"/>
    </field>
    <field name="eth.src" showname="Source: 02:42:71:12:56:af (02:42:71:12:56:af)" size="6" pos="6" show="02:42:71:12:56:af" value="0242711256af">
      <field name="eth.addr" showname="Address: 02:42:71:12:56:af (02:42:71:12:56:af)" size="6" pos="6" show="02:42:71:12:56:af" value="0242711256af"/>
      <field name="eth.lg" showname=".... ..1. .... .... .... .... = LG bit: Locally administered address (this is NOT the factory default)" size="3" pos="6" show="1" value="1" unmaskedvalue="024271"/>
      <field name="eth.ig" showname=".... ...0 .... .... .... .... = IG bit: Individual address (unicast)" size="3" pos="6" show="0" value="0" unmaskedvalue="024271"/>
    </field>
    <field name="eth.type" showname="Type: IP (0x0800)" size="2" pos="12" show="2048" value="0800"/>
  </proto>
  <proto name="ip" showname="Internet Protocol Version 4, Src: 1.1.1.1 (1.1.1.1), Dst: 172.17.0.2 (172.17.0.2)" size="20" pos="14">
    <field name="ip.version" showname="Version: 4" size="1" pos="14" show="4" value="45"/>
    <field name="ip.hdr_len" showname="Header length: 20 bytes" size="1" pos="14" show="20" value="45"/>
    <field name="ip.dsfield" showname="Differentiated Services Field: 0x00 (DSCP 0x00: Default; ECN: 0x00: Not-ECT (Not ECN-Capable Transport))" size="1" pos="15" show="0" value="00">
      <field name="ip.dsfield.dscp" showname="0000 00.. = Differentiated Services Codepoint: Default (0x00)" size="1" pos="15" show="0" value="0" unmaskedvalue="00"/>
      <field name="ip.dsfield.ecn" showname=".... ..00 = Explicit Congestion Notification: Not-ECT (Not ECN-Capable Transport) (0x00)" size="1" pos="15" show="0" value="0" unmaskedvalue="00"/>
    </field>
    <field name="ip.len" showname="Total Length: 40" size="2" pos="16" show="40" value="0028"/>
    <field name="ip.id" showname="Identification: 0x2df7 (11767)" size="2" pos="18" show="11767" value="2df7"/>
    <field name="ip.flags" showname="Flags: 0x02 (Don&apos;t Fragment)" size="1" pos="20" show="2" value="40">
      <field name="ip.flags.rb" showname="0... .... = Reserved bit: Not set" size="1" pos="20" show="0" value="40"/>
      <field name="ip.flags.df" showname=".1.. .... = Don&apos;t fragment: Set" size="1" pos="20" show="1" value="40"/>
      <field name="ip.flags.mf" showname="..0. .... = More fragments: Not set" size="1" pos="20" show="0" value="40"/>
    </field>
    <field name="ip.frag_offset" showname="Fragment offset: 0" size="2" pos="20" show="0" value="4000"/>
    <field name="ip.ttl" showname="Time to live: 57" size="1" pos="22" show="57" value="39"/>
    <field name="ip.proto" showname="Protocol: TCP (6)" size="1" pos="23" show="6" value="06"/>
    <field name="ip.checksum" showname="Header checksum: 0x65c4 [validation disabled]" size="2" pos="24" show="26052" value="65c4">
      <field name="ip.checksum_good" showname="Good: False" size="2" pos="24" show="0" value="65c4"/>
      <field name="ip.checksum_bad" showname="Bad: False" size="2" pos="24" show="0" value="65c4"/>
    </field>
    <field name="ip.src" showname="Source: 1.1.1.1 (1.1.1.1)" size="4" pos="26" show="1.1.1.1" value="01010101"/>
    <field name="ip.addr" showname="Source or Destination Address: 1.1.1.1 (1.1.1.1)" hide="yes" size="4" pos="26" show="1.1.1.1" value="01010101"/>
    <field name="ip.src_host" showname="Source Host: 1.1.1.1" hide="yes" size="4" pos="26" show="1.1.1.1" value="01010101"/>
    <field name="ip.host" showname="Source or Destination Host: 1.1.1.1" hide="yes" size="4" pos="26" show="1.1.1.1" value="01010101"/>
    <field name="ip.dst" showname="Destination: 172.17.0.2 (172.17.0.2)" size="4" pos="30" show="172.17.0.2" value="ac110002"/>
    <field name="ip.addr" showname="Source or Destination Address: 172.17.0.2 (172.17.0.2)" hide="yes" size="4" pos="30" show="172.17.0.2" value="ac110002"/>
    <field name="ip.dst_host" showname="Destination Host: 172.17.0.2" hide="yes" size="4" pos="30" show="172.17.0.2" value="ac110002"/>
    <field name="ip.host" showname="Source or Destination Host: 172.17.0.2" hide="yes" size="4" pos="30" show="172.17.0.2" value="ac110002"/>
  </proto>
  <proto name="tcp" showname="Transmission Control Protocol, Src Port: 853 (853), Dst Port: 59658 (59658), Seq: 3203, Ack: 595, Len: 0" size="20" pos="34">
    <field name="tcp.srcport" showname="Source port: 853 (853)" size="2" pos="34" show="853" value="0355"/>
    <field name="tcp.dstport" showname="Destination port: 59658 (59658)" size="2" pos="36" show="59658" value="e90a"/>
    <field name="tcp.port" showname="Source or Destination Port: 853" hide="yes" size="2" pos="34" show="853" value="0355"/>
    <field name="tcp.port" showname="Source or Destination Port: 59658" hide="yes" size="2" pos="36" show="59658" value="e90a"/>
    <field name="tcp.stream" showname="Stream index: 0" size="0" pos="34" show="0"/>
    <field name="tcp.len" showname="TCP Segment Len: 0" hide="yes" size="1" pos="46" show="0" value="50"/>
    <field name="tcp.seq" showname="Sequence number: 3203    (relative sequence number)" size="4" pos="38" show="3203" value="7d3d9eef"/>
    <field name="tcp.ack" showname="Acknowledgment number: 595    (relative ack number)" size="4" pos="42" show="595" value="6360af54"/>
    <field name="tcp.hdr_len" showname="Header length: 20 bytes" size="1" pos="46" show="20" value="50"/>
    <field name="tcp.flags" showname="Flags: 0x011 (FIN, ACK)" size="2" pos="46" show="17" value="11" unmaskedvalue="5011">
      <field name="tcp.flags.res" showname="000. .... .... = Reserved: Not set" size="1" pos="46" show="0" value="0" unmaskedvalue="50"/>
      <field name="tcp.flags.ns" showname="...0 .... .... = Nonce: Not set" size="1" pos="46" show="0" value="0" unmaskedvalue="50"/>
      <field name="tcp.flags.cwr" showname=".... 0... .... = Congestion Window Reduced (CWR): Not set" size="1" pos="47" show="0" value="0" unmaskedvalue="11"/>
      <field name="tcp.flags.ecn" showname=".... .0.. .... = ECN-Echo: Not set" size="1" pos="47" show="0" value="0" unmaskedvalue="11"/>
      <field name="tcp.flags.urg" showname=".... ..0. .... = Urgent: Not set" size="1" pos="47" show="0" value="0" unmaskedvalue="11"/>
      <field name="tcp.flags.ack" showname=".... ...1 .... = Acknowledgment: Set" size="1" pos="47" show="1" value="1" unmaskedvalue="11"/>
      <field name="tcp.flags.push" showname=".... .... 0... = Push: Not set" size="1" pos="47" show="0" value="0" unmaskedvalue="11"/>
      <field name="tcp.flags.reset" showname=".... .... .0.. = Reset: Not set" size="1" pos="47" show="0" value="0" unmaskedvalue="11"/>
      <field name="tcp.flags.syn" showname=".... .... ..0. = Syn: Not set" size="1" pos="47" show="0" value="0" unmaskedvalue="11"/>
      <field name="tcp.flags.fin" showname=".... .... ...1 = Fin: Set" size="1" pos="47" show="1" value="1" unmaskedvalue="11">
        <field name="expert" showname="Expert Info (Chat/Sequence): Connection finish (FIN)" size="0" pos="47">
          <field name="expert.message" showname="Message: Connection finish (FIN)" size="0" pos="0" show="Connection finish (FIN)"/>
          <field name="expert.severity" showname="Severity level: Chat" size="0" pos="0" show="2097152"/>
          <field name="expert.group" showname="Group: Sequence" size="0" pos="0" show="33554432"/>
        </field>
      </field>
    </field>
    <field name="tcp.window_size_value" showname="Window size value: 31" size="2" pos="48" show="31" value="001f"/>
    <field name="tcp.window_size" showname="Calculated window size: 31744" size="2" pos="48" show="31744" value="001f"/>
    <field name="tcp.window_size_scalefactor" showname="Window size scaling factor: 1024" size="2" pos="48" show="1024" value="001f"/>
    <field name="tcp.checksum" showname="Checksum: 0xe65d [validation disabled]" size="2" pos="50" show="58973" value="e65d">
      <field name="tcp.checksum_good" showname="Good Checksum: False" size="2" pos="50" show="0" value="e65d"/>
      <field name="tcp.checksum_bad" showname="Bad Checksum: False" size="2" pos="50" show="0" value="e65d"/>
    </field>
    <field name="tcp.analysis" showname="SEQ/ACK analysis" size="0" pos="34" show="" value="">
      <field name="tcp.analysis.acks_frame" showname="This is an ACK to the segment in frame: 20" size="0" pos="34" show="20"/>
      <field name="tcp.analysis.ack_rtt" showname="The RTT to ACK the segment was: 0.003616000 seconds" size="0" pos="34" show="0.003616000"/>
    </field>
  </proto>
</packet>


<packet>
  <proto name="geninfo" pos="0" showname="General information" size="54">
    <field name="num" pos="0" show="22" showname="Number" value="16" size="54"/>
    <field name="len" pos="0" show="54" showname="Frame Length" value="36" size="54"/>
    <field name="caplen" pos="0" show="54" showname="Captured Length" value="36" size="54"/>
    <field name="timestamp" pos="0" show="Jun 27, 2019 12:20:57.263160000 CEST" showname="Captured Time" value="1561630857.263160000" size="54"/>
  </proto>
  <proto name="frame" showname="Frame 22: 54 bytes on wire (432 bits), 54 bytes captured (432 bits) on interface 0" size="54" pos="0">
    <field name="frame.interface_id" showname="Interface id: 0" size="0" pos="0" show="0"/>
    <field name="frame.encap_type" showname="Encapsulation type: Ethernet (1)" size="0" pos="0" show="1"/>
    <field name="frame.time" showname="Arrival Time: Jun 27, 2019 12:20:57.263160000 CEST" size="0" pos="0" show="&quot;Jun 27, 2019 12:20:57.263160000 CEST&quot;"/>
    <field name="frame.offset_shift" showname="Time shift for this packet: 0.000000000 seconds" size="0" pos="0" show="0.000000000"/>
    <field name="frame.time_epoch" showname="Epoch Time: 1561630857.263160000 seconds" size="0" pos="0" show="1561630857.263160000"/>
    <field name="frame.time_delta" showname="Time delta from previous captured frame: 0.000025000 seconds" size="0" pos="0" show="0.000025000"/>
    <field name="frame.time_delta_displayed" showname="Time delta from previous displayed frame: 0.000025000 seconds" size="0" pos="0" show="0.000025000"/>
    <field name="frame.time_relative" showname="Time since reference or first frame: 0.061753000 seconds" size="0" pos="0" show="0.061753000"/>
    <field name="frame.number" showname="Frame Number: 22" size="0" pos="0" show="22"/>
    <field name="frame.len" showname="Frame Length: 54 bytes (432 bits)" size="0" pos="0" show="54"/>
    <field name="frame.cap_len" showname="Capture Length: 54 bytes (432 bits)" size="0" pos="0" show="54"/>
    <field name="frame.marked" showname="Frame is marked: False" size="0" pos="0" show="0"/>
    <field name="frame.ignored" showname="Frame is ignored: False" size="0" pos="0" show="0"/>
    <field name="frame.protocols" showname="Protocols in frame: eth:ip:tcp" size="0" pos="0" show="eth:ip:tcp"/>
  </proto>
  <proto name="eth" showname="Ethernet II, Src: 02:42:ac:11:00:02 (02:42:ac:11:00:02), Dst: 02:42:71:12:56:af (02:42:71:12:56:af)" size="14" pos="0">
    <field name="eth.dst" showname="Destination: 02:42:71:12:56:af (02:42:71:12:56:af)" size="6" pos="0" show="02:42:71:12:56:af" value="0242711256af">
      <field name="eth.addr" showname="Address: 02:42:71:12:56:af (02:42:71:12:56:af)" size="6" pos="0" show="02:42:71:12:56:af" value="0242711256af"/>
      <field name="eth.lg" showname=".... ..1. .... .... .... .... = LG bit: Locally administered address (this is NOT the factory default)" size="3" pos="0" show="1" value="1" unmaskedvalue="024271"/>
      <field name="eth.ig" showname=".... ...0 .... .... .... .... = IG bit: Individual address (unicast)" size="3" pos="0" show="0" value="0" unmaskedvalue="024271"/>
    </field>
    <field name="eth.src" showname="Source: 02:42:ac:11:00:02 (02:42:ac:11:00:02)" size="6" pos="6" show="02:42:ac:11:00:02" value="0242ac110002">
      <field name="eth.addr" showname="Address: 02:42:ac:11:00:02 (02:42:ac:11:00:02)" size="6" pos="6" show="02:42:ac:11:00:02" value="0242ac110002"/>
      <field name="eth.lg" showname=".... ..1. .... .... .... .... = LG bit: Locally administered address (this is NOT the factory default)" size="3" pos="6" show="1" value="1" unmaskedvalue="0242ac"/>
      <field name="eth.ig" showname=".... ...0 .... .... .... .... = IG bit: Individual address (unicast)" size="3" pos="6" show="0" value="0" unmaskedvalue="0242ac"/>
    </field>
    <field name="eth.type" showname="Type: IP (0x0800)" size="2" pos="12" show="2048" value="0800"/>
  </proto>
  <proto name="ip" showname="Internet Protocol Version 4, Src: 172.17.0.2 (172.17.0.2), Dst: 1.1.1.1 (1.1.1.1)" size="20" pos="14">
    <field name="ip.version" showname="Version: 4" size="1" pos="14" show="4" value="45"/>
    <field name="ip.hdr_len" showname="Header length: 20 bytes" size="1" pos="14" show="20" value="45"/>
    <field name="ip.dsfield" showname="Differentiated Services Field: 0x00 (DSCP 0x00: Default; ECN: 0x00: Not-ECT (Not ECN-Capable Transport))" size="1" pos="15" show="0" value="00">
      <field name="ip.dsfield.dscp" showname="0000 00.. = Differentiated Services Codepoint: Default (0x00)" size="1" pos="15" show="0" value="0" unmaskedvalue="00"/>
      <field name="ip.dsfield.ecn" showname=".... ..00 = Explicit Congestion Notification: Not-ECT (Not ECN-Capable Transport) (0x00)" size="1" pos="15" show="0" value="0" unmaskedvalue="00"/>
    </field>
    <field name="ip.len" showname="Total Length: 40" size="2" pos="16" show="40" value="0028"/>
    <field name="ip.id" showname="Identification: 0xc414 (50196)" size="2" pos="18" show="50196" value="c414"/>
    <field name="ip.flags" showname="Flags: 0x02 (Don&apos;t Fragment)" size="1" pos="20" show="2" value="40">
      <field name="ip.flags.rb" showname="0... .... = Reserved bit: Not set" size="1" pos="20" show="0" value="40"/>
      <field name="ip.flags.df" showname=".1.. .... = Don&apos;t fragment: Set" size="1" pos="20" show="1" value="40"/>
      <field name="ip.flags.mf" showname="..0. .... = More fragments: Not set" size="1" pos="20" show="0" value="40"/>
    </field>
    <field name="ip.frag_offset" showname="Fragment offset: 0" size="2" pos="20" show="0" value="4000"/>
    <field name="ip.ttl" showname="Time to live: 64" size="1" pos="22" show="64" value="40"/>
    <field name="ip.proto" showname="Protocol: TCP (6)" size="1" pos="23" show="6" value="06"/>
    <field name="ip.checksum" showname="Header checksum: 0xc8a6 [validation disabled]" size="2" pos="24" show="51366" value="c8a6">
      <field name="ip.checksum_good" showname="Good: False" size="2" pos="24" show="0" value="c8a6"/>
      <field name="ip.checksum_bad" showname="Bad: False" size="2" pos="24" show="0" value="c8a6"/>
    </field>
    <field name="ip.src" showname="Source: 172.17.0.2 (172.17.0.2)" size="4" pos="26" show="172.17.0.2" value="ac110002"/>
    <field name="ip.addr" showname="Source or Destination Address: 172.17.0.2 (172.17.0.2)" hide="yes" size="4" pos="26" show="172.17.0.2" value="ac110002"/>
    <field name="ip.src_host" showname="Source Host: 172.17.0.2" hide="yes" size="4" pos="26" show="172.17.0.2" value="ac110002"/>
    <field name="ip.host" showname="Source or Destination Host: 172.17.0.2" hide="yes" size="4" pos="26" show="172.17.0.2" value="ac110002"/>
    <field name="ip.dst" showname="Destination: 1.1.1.1 (1.1.1.1)" size="4" pos="30" show="1.1.1.1" value="01010101"/>
    <field name="ip.addr" showname="Source or Destination Address: 1.1.1.1 (1.1.1.1)" hide="yes" size="4" pos="30" show="1.1.1.1" value="01010101"/>
    <field name="ip.dst_host" showname="Destination Host: 1.1.1.1" hide="yes" size="4" pos="30" show="1.1.1.1" value="01010101"/>
    <field name="ip.host" showname="Source or Destination Host: 1.1.1.1" hide="yes" size="4" pos="30" show="1.1.1.1" value="01010101"/>
  </proto>
  <proto name="tcp" showname="Transmission Control Protocol, Src Port: 59658 (59658), Dst Port: 853 (853), Seq: 595, Ack: 3204, Len: 0" size="20" pos="34">
    <field name="tcp.srcport" showname="Source port: 59658 (59658)" size="2" pos="34" show="59658" value="e90a"/>
    <field name="tcp.dstport" showname="Destination port: 853 (853)" size="2" pos="36" show="853" value="0355"/>
    <field name="tcp.port" showname="Source or Destination Port: 59658" hide="yes" size="2" pos="34" show="59658" value="e90a"/>
    <field name="tcp.port" showname="Source or Destination Port: 853" hide="yes" size="2" pos="36" show="853" value="0355"/>
    <field name="tcp.stream" showname="Stream index: 0" size="0" pos="34" show="0"/>
    <field name="tcp.len" showname="TCP Segment Len: 0" hide="yes" size="1" pos="46" show="0" value="50"/>
    <field name="tcp.seq" showname="Sequence number: 595    (relative sequence number)" size="4" pos="38" show="595" value="6360af54"/>
    <field name="tcp.ack" showname="Acknowledgment number: 3204    (relative ack number)" size="4" pos="42" show="3204" value="7d3d9ef0"/>
    <field name="tcp.hdr_len" showname="Header length: 20 bytes" size="1" pos="46" show="20" value="50"/>
    <field name="tcp.flags" showname="Flags: 0x010 (ACK)" size="2" pos="46" show="16" value="10" unmaskedvalue="5010">
      <field name="tcp.flags.res" showname="000. .... .... = Reserved: Not set" size="1" pos="46" show="0" value="0" unmaskedvalue="50"/>
      <field name="tcp.flags.ns" showname="...0 .... .... = Nonce: Not set" size="1" pos="46" show="0" value="0" unmaskedvalue="50"/>
      <field name="tcp.flags.cwr" showname=".... 0... .... = Congestion Window Reduced (CWR): Not set" size="1" pos="47" show="0" value="0" unmaskedvalue="10"/>
      <field name="tcp.flags.ecn" showname=".... .0.. .... = ECN-Echo: Not set" size="1" pos="47" show="0" value="0" unmaskedvalue="10"/>
      <field name="tcp.flags.urg" showname=".... ..0. .... = Urgent: Not set" size="1" pos="47" show="0" value="0" unmaskedvalue="10"/>
      <field name="tcp.flags.ack" showname=".... ...1 .... = Acknowledgment: Set" size="1" pos="47" show="1" value="1" unmaskedvalue="10"/>
      <field name="tcp.flags.push" showname=".... .... 0... = Push: Not set" size="1" pos="47" show="0" value="0" unmaskedvalue="10"/>
      <field name="tcp.flags.reset" showname=".... .... .0.. = Reset: Not set" size="1" pos="47" show="0" value="0" unmaskedvalue="10"/>
      <field name="tcp.flags.syn" showname=".... .... ..0. = Syn: Not set" size="1" pos="47" show="0" value="0" unmaskedvalue="10"/>
      <field name="tcp.flags.fin" showname=".... .... ...0 = Fin: Not set" size="1" pos="47" show="0" value="0" unmaskedvalue="10"/>
    </field>
    <field name="tcp.window_size_value" showname="Window size value: 328" size="2" pos="48" show="328" value="0148"/>
    <field name="tcp.window_size" showname="Calculated window size: 41984" size="2" pos="48" show="41984" value="0148"/>
    <field name="tcp.window_size_scalefactor" showname="Window size scaling factor: 128" size="2" pos="48" show="128" value="0148"/>
    <field name="tcp.checksum" showname="Checksum: 0xae2f [validation disabled]" size="2" pos="50" show="44591" value="ae2f">
      <field name="tcp.checksum_good" showname="Good Checksum: False" size="2" pos="50" show="0" value="ae2f"/>
      <field name="tcp.checksum_bad" showname="Bad Checksum: False" size="2" pos="50" show="0" value="ae2f"/>
    </field>
    <field name="tcp.analysis" showname="SEQ/ACK analysis" size="0" pos="34" show="" value="">
      <field name="tcp.analysis.acks_frame" showname="This is an ACK to the segment in frame: 21" size="0" pos="34" show="21"/>
      <field name="tcp.analysis.ack_rtt" showname="The RTT to ACK the segment was: 0.000025000 seconds" size="0" pos="34" show="0.000025000"/>
    </field>
  </proto>
</packet>


</pdml>
