<?xml version="1.0"?>
<?xml-stylesheet type="text/xsl" href="pdml2html.xsl"?>
<!-- You can find pdml2html.xsl in /usr/share/wireshark or at http://anonsvn.wireshark.org/trunk/wireshark/pdml2html.xsl. -->
<pdml version="0" creator="wireshark/1.10.14" time="Wed Jul 24 18:55:42 2019" capture_file="ipv4--22.cap">
<packet>
  <proto name="geninfo" pos="0" showname="General information" size="74">
    <field name="num" pos="0" show="1" showname="Number" value="1" size="74"/>
    <field name="len" pos="0" show="74" showname="Frame Length" value="4a" size="74"/>
    <field name="caplen" pos="0" show="74" showname="Captured Length" value="4a" size="74"/>
    <field name="timestamp" pos="0" show="Jun 27, 2019 12:20:59.162944000 CEST" showname="Captured Time" value="1561630859.162944000" size="74"/>
  </proto>
  <proto name="frame" showname="Frame 1: 74 bytes on wire (592 bits), 74 bytes captured (592 bits) on interface 0" size="74" pos="0">
    <field name="frame.interface_id" showname="Interface id: 0" size="0" pos="0" show="0"/>
    <field name="frame.encap_type" showname="Encapsulation type: Ethernet (1)" size="0" pos="0" show="1"/>
    <field name="frame.time" showname="Arrival Time: Jun 27, 2019 12:20:59.162944000 CEST" size="0" pos="0" show="&quot;Jun 27, 2019 12:20:59.162944000 CEST&quot;"/>
    <field name="frame.offset_shift" showname="Time shift for this packet: 0.000000000 seconds" size="0" pos="0" show="0.000000000"/>
    <field name="frame.time_epoch" showname="Epoch Time: 1561630859.162944000 seconds" size="0" pos="0" show="1561630859.162944000"/>
    <field name="frame.time_delta" showname="Time delta from previous captured frame: 0.000000000 seconds" size="0" pos="0" show="0.000000000"/>
    <field name="frame.time_delta_displayed" showname="Time delta from previous displayed frame: 0.000000000 seconds" size="0" pos="0" show="0.000000000"/>
    <field name="frame.time_relative" showname="Time since reference or first frame: 0.000000000 seconds" size="0" pos="0" show="0.000000000"/>
    <field name="frame.number" showname="Frame Number: 1" size="0" pos="0" show="1"/>
    <field name="frame.len" showname="Frame Length: 74 bytes (592 bits)" size="0" pos="0" show="74"/>
    <field name="frame.cap_len" showname="Capture Length: 74 bytes (592 bits)" size="0" pos="0" show="74"/>
    <field name="frame.marked" showname="Frame is marked: False" size="0" pos="0" show="0"/>
    <field name="frame.ignored" showname="Frame is ignored: False" size="0" pos="0" show="0"/>
    <field name="frame.protocols" showname="Protocols in frame: eth:ip:tcp" size="0" pos="0" show="eth:ip:tcp"/>
  </proto>
  <proto name="eth" showname="Ethernet II, Src: 02:42:ac:11:00:02 (02:42:ac:11:00:02), Dst: 02:42:71:12:56:af (02:42:71:12:56:af)" size="14" pos="0">
    <field name="eth.dst" showname="Destination: 02:42:71:12:56:af (02:42:71:12:56:af)" size="6" pos="0" show="02:42:71:12:56:af" value="0242711256af">
      <field name="eth.addr" showname="Address: 02:42:71:12:56:af (02:42:71:12:56:af)" size="6" pos="0" show="02:42:71:12:56:af" value="0242711256af"/>
      <field name="eth.lg" showname=".... ..1. .... .... .... .... = LG bit: Locally administered address (this is NOT the factory default)" size="3" pos="0" show="1" value="1" unmaskedvalue="024271"/>
      <field name="eth.ig" showname=".... ...0 .... .... .... .... = IG bit: Individual address (unicast)" size="3" pos="0" show="0" value="0" unmaskedvalue="024271"/>
    </field>
    <field name="eth.src" showname="Source: 02:42:ac:11:00:02 (02:42:ac:11:00:02)" size="6" pos="6" show="02:42:ac:11:00:02" value="0242ac110002">
      <field name="eth.addr" showname="Address: 02:42:ac:11:00:02 (02:42:ac:11:00:02)" size="6" pos="6" show="02:42:ac:11:00:02" value="0242ac110002"/>
      <field name="eth.lg" showname=".... ..1. .... .... .... .... = LG bit: Locally administered address (this is NOT the factory default)" size="3" pos="6" show="1" value="1" unmaskedvalue="0242ac"/>
      <field name="eth.ig" showname=".... ...0 .... .... .... .... = IG bit: Individual address (unicast)" size="3" pos="6" show="0" value="0" unmaskedvalue="0242ac"/>
    </field>
    <field name="eth.type" showname="Type: IP (0x0800)" size="2" pos="12" show="2048" value="0800"/>
  </proto>
  <proto name="ip" showname="Internet Protocol Version 4, Src: 172.17.0.2 (172.17.0.2), Dst: 1.1.1.1 (1.1.1.1)" size="20" pos="14">
    <field name="ip.version" showname="Version: 4" size="1" pos="14" show="4" value="45"/>
    <field name="ip.hdr_len" showname="Header length: 20 bytes" size="1" pos="14" show="20" value="45"/>
    <field name="ip.dsfield" showname="Differentiated Services Field: 0x00 (DSCP 0x00: Default; ECN: 0x00: Not-ECT (Not ECN-Capable Transport))" size="1" pos="15" show="0" value="00">
      <field name="ip.dsfield.dscp" showname="0000 00.. = Differentiated Services Codepoint: Default (0x00)" size="1" pos="15" show="0" value="0" unmaskedvalue="00"/>
      <field name="ip.dsfield.ecn" showname=".... ..00 = Explicit Congestion Notification: Not-ECT (Not ECN-Capable Transport) (0x00)" size="1" pos="15" show="0" value="0" unmaskedvalue="00"/>
    </field>
    <field name="ip.len" showname="Total Length: 60" size="2" pos="16" show="60" value="003c"/>
    <field name="ip.id" showname="Identification: 0x4244 (16964)" size="2" pos="18" show="16964" value="4244"/>
    <field name="ip.flags" showname="Flags: 0x02 (Don&apos;t Fragment)" size="1" pos="20" show="2" value="40">
      <field name="ip.flags.rb" showname="0... .... = Reserved bit: Not set" size="1" pos="20" show="0" value="40"/>
      <field name="ip.flags.df" showname=".1.. .... = Don&apos;t fragment: Set" size="1" pos="20" show="1" value="40"/>
      <field name="ip.flags.mf" showname="..0. .... = More fragments: Not set" size="1" pos="20" show="0" value="40"/>
    </field>
    <field name="ip.frag_offset" showname="Fragment offset: 0" size="2" pos="20" show="0" value="4000"/>
    <field name="ip.ttl" showname="Time to live: 64" size="1" pos="22" show="64" value="40"/>
    <field name="ip.proto" showname="Protocol: TCP (6)" size="1" pos="23" show="6" value="06"/>
    <field name="ip.checksum" showname="Header checksum: 0x4a63 [validation disabled]" size="2" pos="24" show="19043" value="4a63">
      <field name="ip.checksum_good" showname="Good: False" size="2" pos="24" show="0" value="4a63"/>
      <field name="ip.checksum_bad" showname="Bad: False" size="2" pos="24" show="0" value="4a63"/>
    </field>
    <field name="ip.src" showname="Source: 172.17.0.2 (172.17.0.2)" size="4" pos="26" show="172.17.0.2" value="ac110002"/>
    <field name="ip.addr" showname="Source or Destination Address: 172.17.0.2 (172.17.0.2)" hide="yes" size="4" pos="26" show="172.17.0.2" value="ac110002"/>
    <field name="ip.src_host" showname="Source Host: 172.17.0.2" hide="yes" size="4" pos="26" show="172.17.0.2" value="ac110002"/>
    <field name="ip.host" showname="Source or Destination Host: 172.17.0.2" hide="yes" size="4" pos="26" show="172.17.0.2" value="ac110002"/>
    <field name="ip.dst" showname="Destination: 1.1.1.1 (1.1.1.1)" size="4" pos="30" show="1.1.1.1" value="01010101"/>
    <field name="ip.addr" showname="Source or Destination Address: 1.1.1.1 (1.1.1.1)" hide="yes" size="4" pos="30" show="1.1.1.1" value="01010101"/>
    <field name="ip.dst_host" showname="Destination Host: 1.1.1.1" hide="yes" size="4" pos="30" show="1.1.1.1" value="01010101"/>
    <field name="ip.host" showname="Source or Destination Host: 1.1.1.1" hide="yes" size="4" pos="30" show="1.1.1.1" value="01010101"/>
  </proto>
  <proto name="tcp" showname="Transmission Control Protocol, Src Port: 59694 (59694), Dst Port: 853 (853), Seq: 0, Len: 0" size="40" pos="34">
    <field name="tcp.srcport" showname="Source port: 59694 (59694)" size="2" pos="34" show="59694" value="e92e"/>
    <field name="tcp.dstport" showname="Destination port: 853 (853)" size="2" pos="36" show="853" value="0355"/>
    <field name="tcp.port" showname="Source or Destination Port: 59694" hide="yes" size="2" pos="34" show="59694" value="e92e"/>
    <field name="tcp.port" showname="Source or Destination Port: 853" hide="yes" size="2" pos="36" show="853" value="0355"/>
    <field name="tcp.stream" showname="Stream index: 0" size="0" pos="34" show="0"/>
    <field name="tcp.len" showname="TCP Segment Len: 0" hide="yes" size="1" pos="46" show="0" value="a0"/>
    <field name="tcp.seq" showname="Sequence number: 0    (relative sequence number)" size="4" pos="38" show="0" value="04a632f6"/>
    <field name="tcp.hdr_len" showname="Header length: 40 bytes" size="1" pos="46" show="40" value="a0"/>
    <field name="tcp.flags" showname="Flags: 0x002 (SYN)" size="2" pos="46" show="2" value="2" unmaskedvalue="a002">
      <field name="tcp.flags.res" showname="000. .... .... = Reserved: Not set" size="1" pos="46" show="0" value="0" unmaskedvalue="a0"/>
      <field name="tcp.flags.ns" showname="...0 .... .... = Nonce: Not set" size="1" pos="46" show="0" value="0" unmaskedvalue="a0"/>
      <field name="tcp.flags.cwr" showname=".... 0... .... = Congestion Window Reduced (CWR): Not set" size="1" pos="47" show="0" value="0" unmaskedvalue="02"/>
      <field name="tcp.flags.ecn" showname=".... .0.. .... = ECN-Echo: Not set" size="1" pos="47" show="0" value="0" unmaskedvalue="02"/>
      <field name="tcp.flags.urg" showname=".... ..0. .... = Urgent: Not set" size="1" pos="47" show="0" value="0" unmaskedvalue="02"/>
      <field name="tcp.flags.ack" showname=".... ...0 .... = Acknowledgment: Not set" size="1" pos="47" show="0" value="0" unmaskedvalue="02"/>
      <field name="tcp.flags.push" showname=".... .... 0... = Push: Not set" size="1" pos="47" show="0" value="0" unmaskedvalue="02"/>
      <field name="tcp.flags.reset" showname=".... .... .0.. = Reset: Not set" size="1" pos="47" show="0" value="0" unmaskedvalue="02"/>
      <field name="tcp.flags.syn" showname=".... .... ..1. = Syn: Set" size="1" pos="47" show="1" value="1" unmaskedvalue="02">
        <field name="expert" showname="Expert Info (Chat/Sequence): Connection establish request (SYN): server port 853" size="0" pos="47">
          <field name="expert.message" showname="Message: Connection establish request (SYN): server port 853" size="0" pos="0" show="Connection establish request (SYN): server port 853"/>
          <field name="expert.severity" showname="Severity level: Chat" size="0" pos="0" show="2097152"/>
          <field name="expert.group" showname="Group: Sequence" size="0" pos="0" show="33554432"/>
        </field>
      </field>
      <field name="tcp.flags.fin" showname=".... .... ...0 = Fin: Not set" size="1" pos="47" show="0" value="0" unmaskedvalue="02"/>
    </field>
    <field name="tcp.window_size_value" showname="Window size value: 29200" size="2" pos="48" show="29200" value="7210"/>
    <field name="tcp.window_size" showname="Calculated window size: 29200" size="2" pos="48" show="29200" value="7210"/>
    <field name="tcp.checksum" showname="Checksum: 0xae43 [validation disabled]" size="2" pos="50" show="44611" value="ae43">
      <field name="tcp.checksum_good" showname="Good Checksum: False" size="2" pos="50" show="0" value="ae43"/>
      <field name="tcp.checksum_bad" showname="Bad Checksum: False" size="2" pos="50" show="0" value="ae43"/>
    </field>
    <field name="tcp.options" showname="Options: (20 bytes), Maximum segment size, SACK permitted, Timestamps, No-Operation (NOP), Window scale" size="20" pos="54" show="02:04:05:b4:04:02:08:0a:9b:12:70:b2:00:00:00:00:01:03:03:07" value="020405b40402080a9b1270b20000000001030307">
      <field name="tcp.options.mss" showname="Maximum segment size: 1460 bytes" size="4" pos="54" show="" value="">
        <field name="tcp.option_kind" showname="Kind: MSS size (2)" size="1" pos="54" show="2" value="02"/>
        <field name="tcp.option_len" showname="Length: 4" size="1" pos="55" show="4" value="04"/>
        <field name="tcp.options.mss_val" showname="MSS Value: 1460" size="2" pos="56" show="1460" value="05b4"/>
      </field>
      <field name="tcp.options.sack_perm" showname="TCP SACK Permitted Option: True" size="2" pos="58" show="1" value="0402">
        <field name="tcp.option_kind" showname="Kind: SACK Permission (4)" size="1" pos="58" show="4" value="04"/>
        <field name="tcp.option_len" showname="Length: 2" size="1" pos="59" show="2" value="02"/>
      </field>
      <field name="" show="Timestamps: TSval 2601676978, TSecr 0" size="10" pos="60" value="080a9b1270b200000000">
        <field name="tcp.option_kind" showname="Kind: Timestamp (8)" size="1" pos="60" show="8" value="08"/>
        <field name="tcp.option_len" showname="Length: 10" size="1" pos="61" show="10" value="0a"/>
        <field name="tcp.options.timestamp.tsval" showname="Timestamp value: 2601676978" size="4" pos="62" show="2601676978" value="9b1270b2"/>
        <field name="tcp.options.timestamp.tsecr" showname="Timestamp echo reply: 0" size="4" pos="66" show="0" value="00000000"/>
      </field>
      <field name="" show="No-Operation (NOP)" size="1" pos="70" value="01">
        <field name="tcp.options.type" showname="Type: 1" size="1" pos="70" show="1" value="01">
          <field name="tcp.options.type.copy" showname="0... .... = Copy on fragmentation: No" size="1" pos="70" show="0" value="0" unmaskedvalue="01"/>
          <field name="tcp.options.type.class" showname=".00. .... = Class: Control (0)" size="1" pos="70" show="0" value="0" unmaskedvalue="01"/>
          <field name="tcp.options.type.number" showname="...0 0001 = Number: No-Operation (NOP) (1)" size="1" pos="70" show="1" value="1" unmaskedvalue="01"/>
        </field>
      </field>
      <field name="" show="Window scale: 7 (multiply by 128)" size="3" pos="71" value="030307">
        <field name="tcp.option_kind" showname="Kind: Window Scale (3)" size="1" pos="71" show="3" value="03"/>
        <field name="tcp.option_len" showname="Length: 3" size="1" pos="72" show="3" value="03"/>
        <field name="tcp.options.wscale.shift" showname="Shift count: 7" size="1" pos="73" show="7" value="07"/>
        <field name="tcp.options.wscale.multiplier" showname="Multiplier: 128" size="1" pos="73" show="128" value="07"/>
      </field>
    </field>
  </proto>
</packet>


<packet>
  <proto name="geninfo" pos="0" showname="General information" size="66">
    <field name="num" pos="0" show="2" showname="Number" value="2" size="66"/>
    <field name="len" pos="0" show="66" showname="Frame Length" value="42" size="66"/>
    <field name="caplen" pos="0" show="66" showname="Captured Length" value="42" size="66"/>
    <field name="timestamp" pos="0" show="Jun 27, 2019 12:20:59.166579000 CEST" showname="Captured Time" value="1561630859.166579000" size="66"/>
  </proto>
  <proto name="frame" showname="Frame 2: 66 bytes on wire (528 bits), 66 bytes captured (528 bits) on interface 0" size="66" pos="0">
    <field name="frame.interface_id" showname="Interface id: 0" size="0" pos="0" show="0"/>
    <field name="frame.encap_type" showname="Encapsulation type: Ethernet (1)" size="0" pos="0" show="1"/>
    <field name="frame.time" showname="Arrival Time: Jun 27, 2019 12:20:59.166579000 CEST" size="0" pos="0" show="&quot;Jun 27, 2019 12:20:59.166579000 CEST&quot;"/>
    <field name="frame.offset_shift" showname="Time shift for this packet: 0.000000000 seconds" size="0" pos="0" show="0.000000000"/>
    <field name="frame.time_epoch" showname="Epoch Time: 1561630859.166579000 seconds" size="0" pos="0" show="1561630859.166579000"/>
    <field name="frame.time_delta" showname="Time delta from previous captured frame: 0.003635000 seconds" size="0" pos="0" show="0.003635000"/>
    <field name="frame.time_delta_displayed" showname="Time delta from previous displayed frame: 0.003635000 seconds" size="0" pos="0" show="0.003635000"/>
    <field name="frame.time_relative" showname="Time since reference or first frame: 0.003635000 seconds" size="0" pos="0" show="0.003635000"/>
    <field name="frame.number" showname="Frame Number: 2" size="0" pos="0" show="2"/>
    <field name="frame.len" showname="Frame Length: 66 bytes (528 bits)" size="0" pos="0" show="66"/>
    <field name="frame.cap_len" showname="Capture Length: 66 bytes (528 bits)" size="0" pos="0" show="66"/>
    <field name="frame.marked" showname="Frame is marked: False" size="0" pos="0" show="0"/>
    <field name="frame.ignored" showname="Frame is ignored: False" size="0" pos="0" show="0"/>
    <field name="frame.protocols" showname="Protocols in frame: eth:ip:tcp" size="0" pos="0" show="eth:ip:tcp"/>
  </proto>
  <proto name="eth" showname="Ethernet II, Src: 02:42:71:12:56:af (02:42:71:12:56:af), Dst: 02:42:ac:11:00:02 (02:42:ac:11:00:02)" size="14" pos="0">
    <field name="eth.dst" showname="Destination: 02:42:ac:11:00:02 (02:42:ac:11:00:02)" size="6" pos="0" show="02:42:ac:11:00:02" value="0242ac110002">
      <field name="eth.addr" showname="Address: 02:42:ac:11:00:02 (02:42:ac:11:00:02)" size="6" pos="0" show="02:42:ac:11:00:02" value="0242ac110002"/>
      <field name="eth.lg" showname=".... ..1. .... .... .... .... = LG bit: Locally administered address (this is NOT the factory default)" size="3" pos="0" show="1" value="1" unmaskedvalue="0242ac"/>
      <field name="eth.ig" showname=".... ...0 .... .... .... .... = IG bit: Individual address (unicast)" size="3" pos="0" show="0" value="0" unmaskedvalue="0242ac"/>
    </field>
    <field name="eth.src" showname="Source: 02:42:71:12:56:af (02:42:71:12:56:af)" size="6" pos="6" show="02:42:71:12:56:af" value="0242711256af">
      <field name="eth.addr" showname="Address: 02:42:71:12:56:af (02:42:71:12:56:af)" size="6" pos="6" show="02:42:71:12:56:af" value="0242711256af"/>
      <field name="eth.lg" showname=".... ..1. .... .... .... .... = LG bit: Locally administered address (this is NOT the factory default)" size="3" pos="6" show="1" value="1" unmaskedvalue="024271"/>
      <field name="eth.ig" showname=".... ...0 .... .... .... .... = IG bit: Individual address (unicast)" size="3" pos="6" show="0" value="0" unmaskedvalue="024271"/>
    </field>
    <field name="eth.type" showname="Type: IP (0x0800)" size="2" pos="12" show="2048" value="0800"/>
  </proto>
  <proto name="ip" showname="Internet Protocol Version 4, Src: 1.1.1.1 (1.1.1.1), Dst: 172.17.0.2 (172.17.0.2)" size="20" pos="14">
    <field name="ip.version" showname="Version: 4" size="1" pos="14" show="4" value="45"/>
    <field name="ip.hdr_len" showname="Header length: 20 bytes" size="1" pos="14" show="20" value="45"/>
    <field name="ip.dsfield" showname="Differentiated Services Field: 0x00 (DSCP 0x00: Default; ECN: 0x00: Not-ECT (Not ECN-Capable Transport))" size="1" pos="15" show="0" value="00">
      <field name="ip.dsfield.dscp" showname="0000 00.. = Differentiated Services Codepoint: Default (0x00)" size="1" pos="15" show="0" value="0" unmaskedvalue="00"/>
      <field name="ip.dsfield.ecn" showname=".... ..00 = Explicit Congestion Notification: Not-ECT (Not ECN-Capable Transport) (0x00)" size="1" pos="15" show="0" value="0" unmaskedvalue="00"/>
    </field>
    <field name="ip.len" showname="Total Length: 52" size="2" pos="16" show="52" value="0034"/>
    <field name="ip.id" showname="Identification: 0x0000 (0)" size="2" pos="18" show="0" value="0000"/>
    <field name="ip.flags" showname="Flags: 0x02 (Don&apos;t Fragment)" size="1" pos="20" show="2" value="40">
      <field name="ip.flags.rb" showname="0... .... = Reserved bit: Not set" size="1" pos="20" show="0" value="40"/>
      <field name="ip.flags.df" showname=".1.. .... = Don&apos;t fragment: Set" size="1" pos="20" show="1" value="40"/>
      <field name="ip.flags.mf" showname="..0. .... = More fragments: Not set" size="1" pos="20" show="0" value="40"/>
    </field>
    <field name="ip.frag_offset" showname="Fragment offset: 0" size="2" pos="20" show="0" value="4000"/>
    <field name="ip.ttl" showname="Time to live: 57" size="1" pos="22" show="57" value="39"/>
    <field name="ip.proto" showname="Protocol: TCP (6)" size="1" pos="23" show="6" value="06"/>
    <field name="ip.checksum" showname="Header checksum: 0x93af [validation disabled]" size="2" pos="24" show="37807" value="93af">
      <field name="ip.checksum_good" showname="Good: False" size="2" pos="24" show="0" value="93af"/>
      <field name="ip.checksum_bad" showname="Bad: False" size="2" pos="24" show="0" value="93af"/>
    </field>
    <field name="ip.src" showname="Source: 1.1.1.1 (1.1.1.1)" size="4" pos="26" show="1.1.1.1" value="01010101"/>
    <field name="ip.addr" showname="Source or Destination Address: 1.1.1.1 (1.1.1.1)" hide="yes" size="4" pos="26" show="1.1.1.1" value="01010101"/>
    <field name="ip.src_host" showname="Source Host: 1.1.1.1" hide="yes" size="4" pos="26" show="1.1.1.1" value="01010101"/>
    <field name="ip.host" showname="Source or Destination Host: 1.1.1.1" hide="yes" size="4" pos="26" show="1.1.1.1" value="01010101"/>
    <field name="ip.dst" showname="Destination: 172.17.0.2 (172.17.0.2)" size="4" pos="30" show="172.17.0.2" value="ac110002"/>
    <field name="ip.addr" showname="Source or Destination Address: 172.17.0.2 (172.17.0.2)" hide="yes" size="4" pos="30" show="172.17.0.2" value="ac110002"/>
    <field name="ip.dst_host" showname="Destination Host: 172.17.0.2" hide="yes" size="4" pos="30" show="172.17.0.2" value="ac110002"/>
    <field name="ip.host" showname="Source or Destination Host: 172.17.0.2" hide="yes" size="4" pos="30" show="172.17.0.2" value="ac110002"/>
  </proto>
  <proto name="tcp" showname="Transmission Control Protocol, Src Port: 853 (853), Dst Port: 59694 (59694), Seq: 0, Ack: 1, Len: 0" size="32" pos="34">
    <field name="tcp.srcport" showname="Source port: 853 (853)" size="2" pos="34" show="853" value="0355"/>
    <field name="tcp.dstport" showname="Destination port: 59694 (59694)" size="2" pos="36" show="59694" value="e92e"/>
    <field name="tcp.port" showname="Source or Destination Port: 853" hide="yes" size="2" pos="34" show="853" value="0355"/>
    <field name="tcp.port" showname="Source or Destination Port: 59694" hide="yes" size="2" pos="36" show="59694" value="e92e"/>
    <field name="tcp.stream" showname="Stream index: 0" size="0" pos="34" show="0"/>
    <field name="tcp.len" showname="TCP Segment Len: 0" hide="yes" size="1" pos="46" show="0" value="80"/>
    <field name="tcp.seq" showname="Sequence number: 0    (relative sequence number)" size="4" pos="38" show="0" value="498053db"/>
    <field name="tcp.ack" showname="Acknowledgment number: 1    (relative ack number)" size="4" pos="42" show="1" value="04a632f7"/>
    <field name="tcp.hdr_len" showname="Header length: 32 bytes" size="1" pos="46" show="32" value="80"/>
    <field name="tcp.flags" showname="Flags: 0x012 (SYN, ACK)" size="2" pos="46" show="18" value="12" unmaskedvalue="8012">
      <field name="tcp.flags.res" showname="000. .... .... = Reserved: Not set" size="1" pos="46" show="0" value="0" unmaskedvalue="80"/>
      <field name="tcp.flags.ns" showname="...0 .... .... = Nonce: Not set" size="1" pos="46" show="0" value="0" unmaskedvalue="80"/>
      <field name="tcp.flags.cwr" showname=".... 0... .... = Congestion Window Reduced (CWR): Not set" size="1" pos="47" show="0" value="0" unmaskedvalue="12"/>
      <field name="tcp.flags.ecn" showname=".... .0.. .... = ECN-Echo: Not set" size="1" pos="47" show="0" value="0" unmaskedvalue="12"/>
      <field name="tcp.flags.urg" showname=".... ..0. .... = Urgent: Not set" size="1" pos="47" show="0" value="0" unmaskedvalue="12"/>
      <field name="tcp.flags.ack" showname=".... ...1 .... = Acknowledgment: Set" size="1" pos="47" show="1" value="1" unmaskedvalue="12"/>
      <field name="tcp.flags.push" showname=".... .... 0... = Push: Not set" size="1" pos="47" show="0" value="0" unmaskedvalue="12"/>
      <field name="tcp.flags.reset" showname=".... .... .0.. = Reset: Not set" size="1" pos="47" show="0" value="0" unmaskedvalue="12"/>
      <field name="tcp.flags.syn" showname=".... .... ..1. = Syn: Set" size="1" pos="47" show="1" value="1" unmaskedvalue="12">
        <field name="expert" showname="Expert Info (Chat/Sequence): Connection establish acknowledge (SYN+ACK): server port 853" size="0" pos="47">
          <field name="expert.message" showname="Message: Connection establish acknowledge (SYN+ACK): server port 853" size="0" pos="0" show="Connection establish acknowledge (SYN+ACK): server port 853"/>
          <field name="expert.severity" showname="Severity level: Chat" size="0" pos="0" show="2097152"/>
          <field name="expert.group" showname="Group: Sequence" size="0" pos="0" show="33554432"/>
        </field>
      </field>
      <field name="tcp.flags.fin" showname=".... .... ...0 = Fin: Not set" size="1" pos="47" show="0" value="0" unmaskedvalue="12"/>
    </field>
    <field name="tcp.window_size_value" showname="Window size value: 29200" size="2" pos="48" show="29200" value="7210"/>
    <field name="tcp.window_size" showname="Calculated window size: 29200" size="2" pos="48" show="29200" value="7210"/>
    <field name="tcp.checksum" showname="Checksum: 0x8d5c [validation disabled]" size="2" pos="50" show="36188" value="8d5c">
      <field name="tcp.checksum_good" showname="Good Checksum: False" size="2" pos="50" show="0" value="8d5c"/>
      <field name="tcp.checksum_bad" showname="Bad Checksum: False" size="2" pos="50" show="0" value="8d5c"/>
    </field>
    <field name="tcp.options" showname="Options: (12 bytes), Maximum segment size, No-Operation (NOP), No-Operation (NOP), SACK permitted, No-Operation (NOP), Window scale" size="12" pos="54" show="02:04:05:b4:01:01:04:02:01:03:03:0a" value="020405b4010104020103030a">
      <field name="tcp.options.mss" showname="Maximum segment size: 1460 bytes" size="4" pos="54" show="" value="">
        <field name="tcp.option_kind" showname="Kind: MSS size (2)" size="1" pos="54" show="2" value="02"/>
        <field name="tcp.option_len" showname="Length: 4" size="1" pos="55" show="4" value="04"/>
        <field name="tcp.options.mss_val" showname="MSS Value: 1460" size="2" pos="56" show="1460" value="05b4"/>
      </field>
      <field name="" show="No-Operation (NOP)" size="1" pos="58" value="01">
        <field name="tcp.options.type" showname="Type: 1" size="1" pos="58" show="1" value="01">
          <field name="tcp.options.type.copy" showname="0... .... = Copy on fragmentation: No" size="1" pos="58" show="0" value="0" unmaskedvalue="01"/>
          <field name="tcp.options.type.class" showname=".00. .... = Class: Control (0)" size="1" pos="58" show="0" value="0" unmaskedvalue="01"/>
          <field name="tcp.options.type.number" showname="...0 0001 = Number: No-Operation (NOP) (1)" size="1" pos="58" show="1" value="1" unmaskedvalue="01"/>
        </field>
      </field>
      <field name="" show="No-Operation (NOP)" size="1" pos="59" value="01">
        <field name="tcp.options.type" showname="Type: 1" size="1" pos="59" show="1" value="01">
          <field name="tcp.options.type.copy" showname="0... .... = Copy on fragmentation: No" size="1" pos="59" show="0" value="0" unmaskedvalue="01"/>
          <field name="tcp.options.type.class" showname=".00. .... = Class: Control (0)" size="1" pos="59" show="0" value="0" unmaskedvalue="01"/>
          <field name="tcp.options.type.number" showname="...0 0001 = Number: No-Operation (NOP) (1)" size="1" pos="59" show="1" value="1" unmaskedvalue="01"/>
        </field>
      </field>
      <field name="tcp.options.sack_perm" showname="TCP SACK Permitted Option: True" size="2" pos="60" show="1" value="0402">
        <field name="tcp.option_kind" showname="Kind: SACK Permission (4)" size="1" pos="60" show="4" value="04"/>
        <field name="tcp.option_len" showname="Length: 2" size="1" pos="61" show="2" value="02"/>
      </field>
      <field name="" show="No-Operation (NOP)" size="1" pos="62" value="01">
        <field name="tcp.options.type" showname="Type: 1" size="1" pos="62" show="1" value="01">
          <field name="tcp.options.type.copy" showname="0... .... = Copy on fragmentation: No" size="1" pos="62" show="0" value="0" unmaskedvalue="01"/>
          <field name="tcp.options.type.class" showname=".00. .... = Class: Control (0)" size="1" pos="62" show="0" value="0" unmaskedvalue="01"/>
          <field name="tcp.options.type.number" showname="...0 0001 = Number: No-Operation (NOP) (1)" size="1" pos="62" show="1" value="1" unmaskedvalue="01"/>
        </field>
      </field>
      <field name="" show="Window scale: 10 (multiply by 1024)" size="3" pos="63" value="03030a">
        <field name="tcp.option_kind" showname="Kind: Window Scale (3)" size="1" pos="63" show="3" value="03"/>
        <field name="tcp.option_len" showname="Length: 3" size="1" pos="64" show="3" value="03"/>
        <field name="tcp.options.wscale.shift" showname="Shift count: 10" size="1" pos="65" show="10" value="0a"/>
        <field name="tcp.options.wscale.multiplier" showname="Multiplier: 1024" size="1" pos="65" show="1024" value="0a"/>
      </field>
    </field>
    <field name="tcp.analysis" showname="SEQ/ACK analysis" size="0" pos="34" show="" value="">
      <field name="tcp.analysis.acks_frame" showname="This is an ACK to the segment in frame: 1" size="0" pos="34" show="1"/>
      <field name="tcp.analysis.ack_rtt" showname="The RTT to ACK the segment was: 0.003635000 seconds" size="0" pos="34" show="0.003635000"/>
    </field>
  </proto>
</packet>


<packet>
  <proto name="geninfo" pos="0" showname="General information" size="54">
    <field name="num" pos="0" show="3" showname="Number" value="3" size="54"/>
    <field name="len" pos="0" show="54" showname="Frame Length" value="36" size="54"/>
    <field name="caplen" pos="0" show="54" showname="Captured Length" value="36" size="54"/>
    <field name="timestamp" pos="0" show="Jun 27, 2019 12:20:59.166620000 CEST" showname="Captured Time" value="1561630859.166620000" size="54"/>
  </proto>
  <proto name="frame" showname="Frame 3: 54 bytes on wire (432 bits), 54 bytes captured (432 bits) on interface 0" size="54" pos="0">
    <field name="frame.interface_id" showname="Interface id: 0" size="0" pos="0" show="0"/>
    <field name="frame.encap_type" showname="Encapsulation type: Ethernet (1)" size="0" pos="0" show="1"/>
    <field name="frame.time" showname="Arrival Time: Jun 27, 2019 12:20:59.166620000 CEST" size="0" pos="0" show="&quot;Jun 27, 2019 12:20:59.166620000 CEST&quot;"/>
    <field name="frame.offset_shift" showname="Time shift for this packet: 0.000000000 seconds" size="0" pos="0" show="0.000000000"/>
    <field name="frame.time_epoch" showname="Epoch Time: 1561630859.166620000 seconds" size="0" pos="0" show="1561630859.166620000"/>
    <field name="frame.time_delta" showname="Time delta from previous captured frame: 0.000041000 seconds" size="0" pos="0" show="0.000041000"/>
    <field name="frame.time_delta_displayed" showname="Time delta from previous displayed frame: 0.000041000 seconds" size="0" pos="0" show="0.000041000"/>
    <field name="frame.time_relative" showname="Time since reference or first frame: 0.003676000 seconds" size="0" pos="0" show="0.003676000"/>
    <field name="frame.number" showname="Frame Number: 3" size="0" pos="0" show="3"/>
    <field name="frame.len" showname="Frame Length: 54 bytes (432 bits)" size="0" pos="0" show="54"/>
    <field name="frame.cap_len" showname="Capture Length: 54 bytes (432 bits)" size="0" pos="0" show="54"/>
    <field name="frame.marked" showname="Frame is marked: False" size="0" pos="0" show="0"/>
    <field name="frame.ignored" showname="Frame is ignored: False" size="0" pos="0" show="0"/>
    <field name="frame.protocols" showname="Protocols in frame: eth:ip:tcp" size="0" pos="0" show="eth:ip:tcp"/>
  </proto>
  <proto name="eth" showname="Ethernet II, Src: 02:42:ac:11:00:02 (02:42:ac:11:00:02), Dst: 02:42:71:12:56:af (02:42:71:12:56:af)" size="14" pos="0">
    <field name="eth.dst" showname="Destination: 02:42:71:12:56:af (02:42:71:12:56:af)" size="6" pos="0" show="02:42:71:12:56:af" value="0242711256af">
      <field name="eth.addr" showname="Address: 02:42:71:12:56:af (02:42:71:12:56:af)" size="6" pos="0" show="02:42:71:12:56:af" value="0242711256af"/>
      <field name="eth.lg" showname=".... ..1. .... .... .... .... = LG bit: Locally administered address (this is NOT the factory default)" size="3" pos="0" show="1" value="1" unmaskedvalue="024271"/>
      <field name="eth.ig" showname=".... ...0 .... .... .... .... = IG bit: Individual address (unicast)" size="3" pos="0" show="0" value="0" unmaskedvalue="024271"/>
    </field>
    <field name="eth.src" showname="Source: 02:42:ac:11:00:02 (02:42:ac:11:00:02)" size="6" pos="6" show="02:42:ac:11:00:02" value="0242ac110002">
      <field name="eth.addr" showname="Address: 02:42:ac:11:00:02 (02:42:ac:11:00:02)" size="6" pos="6" show="02:42:ac:11:00:02" value="0242ac110002"/>
      <field name="eth.lg" showname=".... ..1. .... .... .... .... = LG bit: Locally administered address (this is NOT the factory default)" size="3" pos="6" show="1" value="1" unmaskedvalue="0242ac"/>
      <field name="eth.ig" showname=".... ...0 .... .... .... .... = IG bit: Individual address (unicast)" size="3" pos="6" show="0" value="0" unmaskedvalue="0242ac"/>
    </field>
    <field name="eth.type" showname="Type: IP (0x0800)" size="2" pos="12" show="2048" value="0800"/>
  </proto>
  <proto name="ip" showname="Internet Protocol Version 4, Src: 172.17.0.2 (172.17.0.2), Dst: 1.1.1.1 (1.1.1.1)" size="20" pos="14">
    <field name="ip.version" showname="Version: 4" size="1" pos="14" show="4" value="45"/>
    <field name="ip.hdr_len" showname="Header length: 20 bytes" size="1" pos="14" show="20" value="45"/>
    <field name="ip.dsfield" showname="Differentiated Services Field: 0x00 (DSCP 0x00: Default; ECN: 0x00: Not-ECT (Not ECN-Capable Transport))" size="1" pos="15" show="0" value="00">
      <field name="ip.dsfield.dscp" showname="0000 00.. = Differentiated Services Codepoint: Default (0x00)" size="1" pos="15" show="0" value="0" unmaskedvalue="00"/>
      <field name="ip.dsfield.ecn" showname=".... ..00 = Explicit Congestion Notification: Not-ECT (Not ECN-Capable Transport) (0x00)" size="1" pos="15" show="0" value="0" unmaskedvalue="00"/>
    </field>
    <field name="ip.len" showname="Total Length: 40" size="2" pos="16" show="40" value="0028"/>
    <field name="ip.id" showname="Identification: 0x4245 (16965)" size="2" pos="18" show="16965" value="4245"/>
    <field name="ip.flags" showname="Flags: 0x02 (Don&apos;t Fragment)" size="1" pos="20" show="2" value="40">
      <field name="ip.flags.rb" showname="0... .... = Reserved bit: Not set" size="1" pos="20" show="0" value="40"/>
      <field name="ip.flags.df" showname=".1.. .... = Don&apos;t fragment: Set" size="1" pos="20" show="1" value="40"/>
      <field name="ip.flags.mf" showname="..0. .... = More fragments: Not set" size="1" pos="20" show="0" value="40"/>
    </field>
    <field name="ip.frag_offset" showname="Fragment offset: 0" size="2" pos="20" show="0" value="4000"/>
    <field name="ip.ttl" showname="Time to live: 64" size="1" pos="22" show="64" value="40"/>
    <field name="ip.proto" showname="Protocol: TCP (6)" size="1" pos="23" show="6" value="06"/>
    <field name="ip.checksum" showname="Header checksum: 0x4a76 [validation disabled]" size="2" pos="24" show="19062" value="4a76">
      <field name="ip.checksum_good" showname="Good: False" size="2" pos="24" show="0" value="4a76"/>
      <field name="ip.checksum_bad" showname="Bad: False" size="2" pos="24" show="0" value="4a76"/>
    </field>
    <field name="ip.src" showname="Source: 172.17.0.2 (172.17.0.2)" size="4" pos="26" show="172.17.0.2" value="ac110002"/>
    <field name="ip.addr" showname="Source or Destination Address: 172.17.0.2 (172.17.0.2)" hide="yes" size="4" pos="26" show="172.17.0.2" value="ac110002"/>
    <field name="ip.src_host" showname="Source Host: 172.17.0.2" hide="yes" size="4" pos="26" show="172.17.0.2" value="ac110002"/>
    <field name="ip.host" showname="Source or Destination Host: 172.17.0.2" hide="yes" size="4" pos="26" show="172.17.0.2" value="ac110002"/>
    <field name="ip.dst" showname="Destination: 1.1.1.1 (1.1.1.1)" size="4" pos="30" show="1.1.1.1" value="01010101"/>
    <field name="ip.addr" showname="Source or Destination Address: 1.1.1.1 (1.1.1.1)" hide="yes" size="4" pos="30" show="1.1.1.1" value="01010101"/>
    <field name="ip.dst_host" showname="Destination Host: 1.1.1.1" hide="yes" size="4" pos="30" show="1.1.1.1" value="01010101"/>
    <field name="ip.host" showname="Source or Destination Host: 1.1.1.1" hide="yes" size="4" pos="30" show="1.1.1.1" value="01010101"/>
  </proto>
  <proto name="tcp" showname="Transmission Control Protocol, Src Port: 59694 (59694), Dst Port: 853 (853), Seq: 1, Ack: 1, Len: 0" size="20" pos="34">
    <field name="tcp.srcport" showname="Source port: 59694 (59694)" size="2" pos="34" show="59694" value="e92e"/>
    <field name="tcp.dstport" showname="Destination port: 853 (853)" size="2" pos="36" show="853" value="0355"/>
    <field name="tcp.port" showname="Source or Destination Port: 59694" hide="yes" size="2" pos="34" show="59694" value="e92e"/>
    <field name="tcp.port" showname="Source or Destination Port: 853" hide="yes" size="2" pos="36" show="853" value="0355"/>
    <field name="tcp.stream" showname="Stream index: 0" size="0" pos="34" show="0"/>
    <field name="tcp.len" showname="TCP Segment Len: 0" hide="yes" size="1" pos="46" show="0" value="50"/>
    <field name="tcp.seq" showname="Sequence number: 1    (relative sequence number)" size="4" pos="38" show="1" value="04a632f7"/>
    <field name="tcp.ack" showname="Acknowledgment number: 1    (relative ack number)" size="4" pos="42" show="1" value="498053dc"/>
    <field name="tcp.hdr_len" showname="Header length: 20 bytes" size="1" pos="46" show="20" value="50"/>
    <field name="tcp.flags" showname="Flags: 0x010 (ACK)" size="2" pos="46" show="16" value="10" unmaskedvalue="5010">
      <field name="tcp.flags.res" showname="000. .... .... = Reserved: Not set" size="1" pos="46" show="0" value="0" unmaskedvalue="50"/>
      <field name="tcp.flags.ns" showname="...0 .... .... = Nonce: Not set" size="1" pos="46" show="0" value="0" unmaskedvalue="50"/>
      <field name="tcp.flags.cwr" showname=".... 0... .... = Congestion Window Reduced (CWR): Not set" size="1" pos="47" show="0" value="0" unmaskedvalue="10"/>
      <field name="tcp.flags.ecn" showname=".... .0.. .... = ECN-Echo: Not set" size="1" pos="47" show="0" value="0" unmaskedvalue="10"/>
      <field name="tcp.flags.urg" showname=".... ..0. .... = Urgent: Not set" size="1" pos="47" show="0" value="0" unmaskedvalue="10"/>
      <field name="tcp.flags.ack" showname=".... ...1 .... = Acknowledgment: Set" size="1" pos="47" show="1" value="1" unmaskedvalue="10"/>
      <field name="tcp.flags.push" showname=".... .... 0... = Push: Not set" size="1" pos="47" show="0" value="0" unmaskedvalue="10"/>
      <field name="tcp.flags.reset" showname=".... .... .0.. = Reset: Not set" size="1" pos="47" show="0" value="0" unmaskedvalue="10"/>
      <field name="tcp.flags.syn" showname=".... .... ..0. = Syn: Not set" size="1" pos="47" show="0" value="0" unmaskedvalue="10"/>
      <field name="tcp.flags.fin" showname=".... .... ...0 = Fin: Not set" size="1" pos="47" show="0" value="0" unmaskedvalue="10"/>
    </field>
    <field name="tcp.window_size_value" showname="Window size value: 229" size="2" pos="48" show="229" value="00e5"/>
    <field name="tcp.window_size" showname="Calculated window size: 29312" size="2" pos="48" show="29312" value="00e5"/>
    <field name="tcp.window_size_scalefactor" showname="Window size scaling factor: 128" size="2" pos="48" show="128" value="00e5"/>
    <field name="tcp.checksum" showname="Checksum: 0xae2f [validation disabled]" size="2" pos="50" show="44591" value="ae2f">
      <field name="tcp.checksum_good" showname="Good Checksum: False" size="2" pos="50" show="0" value="ae2f"/>
      <field name="tcp.checksum_bad" showname="Bad Checksum: False" size="2" pos="50" show="0" value="ae2f"/>
    </field>
    <field name="tcp.analysis" showname="SEQ/ACK analysis" size="0" pos="34" show="" value="">
      <field name="tcp.analysis.acks_frame" showname="This is an ACK to the segment in frame: 2" size="0" pos="34" show="2"/>
      <field name="tcp.analysis.ack_rtt" showname="The RTT to ACK the segment was: 0.000041000 seconds" size="0" pos="34" show="0.000041000"/>
    </field>
  </proto>
</packet>


<packet>
  <proto name="geninfo" pos="0" showname="General information" size="391">
    <field name="num" pos="0" show="4" showname="Number" value="4" size="391"/>
    <field name="len" pos="0" show="391" showname="Frame Length" value="187" size="391"/>
    <field name="caplen" pos="0" show="391" showname="Captured Length" value="187" size="391"/>
    <field name="timestamp" pos="0" show="Jun 27, 2019 12:20:59.167484000 CEST" showname="Captured Time" value="1561630859.167484000" size="391"/>
  </proto>
  <proto name="frame" showname="Frame 4: 391 bytes on wire (3128 bits), 391 bytes captured (3128 bits) on interface 0" size="391" pos="0">
    <field name="frame.interface_id" showname="Interface id: 0" size="0" pos="0" show="0"/>
    <field name="frame.encap_type" showname="Encapsulation type: Ethernet (1)" size="0" pos="0" show="1"/>
    <field name="frame.time" showname="Arrival Time: Jun 27, 2019 12:20:59.167484000 CEST" size="0" pos="0" show="&quot;Jun 27, 2019 12:20:59.167484000 CEST&quot;"/>
    <field name="frame.offset_shift" showname="Time shift for this packet: 0.000000000 seconds" size="0" pos="0" show="0.000000000"/>
    <field name="frame.time_epoch" showname="Epoch Time: 1561630859.167484000 seconds" size="0" pos="0" show="1561630859.167484000"/>
    <field name="frame.time_delta" showname="Time delta from previous captured frame: 0.000864000 seconds" size="0" pos="0" show="0.000864000"/>
    <field name="frame.time_delta_displayed" showname="Time delta from previous displayed frame: 0.000864000 seconds" size="0" pos="0" show="0.000864000"/>
    <field name="frame.time_relative" showname="Time since reference or first frame: 0.004540000 seconds" size="0" pos="0" show="0.004540000"/>
    <field name="frame.number" showname="Frame Number: 4" size="0" pos="0" show="4"/>
    <field name="frame.len" showname="Frame Length: 391 bytes (3128 bits)" size="0" pos="0" show="391"/>
    <field name="frame.cap_len" showname="Capture Length: 391 bytes (3128 bits)" size="0" pos="0" show="391"/>
    <field name="frame.marked" showname="Frame is marked: False" size="0" pos="0" show="0"/>
    <field name="frame.ignored" showname="Frame is ignored: False" size="0" pos="0" show="0"/>
    <field name="frame.protocols" showname="Protocols in frame: eth:ip:tcp:data" size="0" pos="0" show="eth:ip:tcp:data"/>
  </proto>
  <proto name="eth" showname="Ethernet II, Src: 02:42:ac:11:00:02 (02:42:ac:11:00:02), Dst: 02:42:71:12:56:af (02:42:71:12:56:af)" size="14" pos="0">
    <field name="eth.dst" showname="Destination: 02:42:71:12:56:af (02:42:71:12:56:af)" size="6" pos="0" show="02:42:71:12:56:af" value="0242711256af">
      <field name="eth.addr" showname="Address: 02:42:71:12:56:af (02:42:71:12:56:af)" size="6" pos="0" show="02:42:71:12:56:af" value="0242711256af"/>
      <field name="eth.lg" showname=".... ..1. .... .... .... .... = LG bit: Locally administered address (this is NOT the factory default)" size="3" pos="0" show="1" value="1" unmaskedvalue="024271"/>
      <field name="eth.ig" showname=".... ...0 .... .... .... .... = IG bit: Individual address (unicast)" size="3" pos="0" show="0" value="0" unmaskedvalue="024271"/>
    </field>
    <field name="eth.src" showname="Source: 02:42:ac:11:00:02 (02:42:ac:11:00:02)" size="6" pos="6" show="02:42:ac:11:00:02" value="0242ac110002">
      <field name="eth.addr" showname="Address: 02:42:ac:11:00:02 (02:42:ac:11:00:02)" size="6" pos="6" show="02:42:ac:11:00:02" value="0242ac110002"/>
      <field name="eth.lg" showname=".... ..1. .... .... .... .... = LG bit: Locally administered address (this is NOT the factory default)" size="3" pos="6" show="1" value="1" unmaskedvalue="0242ac"/>
      <field name="eth.ig" showname=".... ...0 .... .... .... .... = IG bit: Individual address (unicast)" size="3" pos="6" show="0" value="0" unmaskedvalue="0242ac"/>
    </field>
    <field name="eth.type" showname="Type: IP (0x0800)" size="2" pos="12" show="2048" value="0800"/>
  </proto>
  <proto name="ip" showname="Internet Protocol Version 4, Src: 172.17.0.2 (172.17.0.2), Dst: 1.1.1.1 (1.1.1.1)" size="20" pos="14">
    <field name="ip.version" showname="Version: 4" size="1" pos="14" show="4" value="45"/>
    <field name="ip.hdr_len" showname="Header length: 20 bytes" size="1" pos="14" show="20" value="45"/>
    <field name="ip.dsfield" showname="Differentiated Services Field: 0x00 (DSCP 0x00: Default; ECN: 0x00: Not-ECT (Not ECN-Capable Transport))" size="1" pos="15" show="0" value="00">
      <field name="ip.dsfield.dscp" showname="0000 00.. = Differentiated Services Codepoint: Default (0x00)" size="1" pos="15" show="0" value="0" unmaskedvalue="00"/>
      <field name="ip.dsfield.ecn" showname=".... ..00 = Explicit Congestion Notification: Not-ECT (Not ECN-Capable Transport) (0x00)" size="1" pos="15" show="0" value="0" unmaskedvalue="00"/>
    </field>
    <field name="ip.len" showname="Total Length: 377" size="2" pos="16" show="377" value="0179"/>
    <field name="ip.id" showname="Identification: 0x4246 (16966)" size="2" pos="18" show="16966" value="4246"/>
    <field name="ip.flags" showname="Flags: 0x02 (Don&apos;t Fragment)" size="1" pos="20" show="2" value="40">
      <field name="ip.flags.rb" showname="0... .... = Reserved bit: Not set" size="1" pos="20" show="0" value="40"/>
      <field name="ip.flags.df" showname=".1.. .... = Don&apos;t fragment: Set" size="1" pos="20" show="1" value="40"/>
      <field name="ip.flags.mf" showname="..0. .... = More fragments: Not set" size="1" pos="20" show="0" value="40"/>
    </field>
    <field name="ip.frag_offset" showname="Fragment offset: 0" size="2" pos="20" show="0" value="4000"/>
    <field name="ip.ttl" showname="Time to live: 64" size="1" pos="22" show="64" value="40"/>
    <field name="ip.proto" showname="Protocol: TCP (6)" size="1" pos="23" show="6" value="06"/>
    <field name="ip.checksum" showname="Header checksum: 0x4924 [validation disabled]" size="2" pos="24" show="18724" value="4924">
      <field name="ip.checksum_good" showname="Good: False" size="2" pos="24" show="0" value="4924"/>
      <field name="ip.checksum_bad" showname="Bad: False" size="2" pos="24" show="0" value="4924"/>
    </field>
    <field name="ip.src" showname="Source: 172.17.0.2 (172.17.0.2)" size="4" pos="26" show="172.17.0.2" value="ac110002"/>
    <field name="ip.addr" showname="Source or Destination Address: 172.17.0.2 (172.17.0.2)" hide="yes" size="4" pos="26" show="172.17.0.2" value="ac110002"/>
    <field name="ip.src_host" showname="Source Host: 172.17.0.2" hide="yes" size="4" pos="26" show="172.17.0.2" value="ac110002"/>
    <field name="ip.host" showname="Source or Destination Host: 172.17.0.2" hide="yes" size="4" pos="26" show="172.17.0.2" value="ac110002"/>
    <field name="ip.dst" showname="Destination: 1.1.1.1 (1.1.1.1)" size="4" pos="30" show="1.1.1.1" value="01010101"/>
    <field name="ip.addr" showname="Source or Destination Address: 1.1.1.1 (1.1.1.1)" hide="yes" size="4" pos="30" show="1.1.1.1" value="01010101"/>
    <field name="ip.dst_host" showname="Destination Host: 1.1.1.1" hide="yes" size="4" pos="30" show="1.1.1.1" value="01010101"/>
    <field name="ip.host" showname="Source or Destination Host: 1.1.1.1" hide="yes" size="4" pos="30" show="1.1.1.1" value="01010101"/>
  </proto>
  <proto name="tcp" showname="Transmission Control Protocol, Src Port: 59694 (59694), Dst Port: 853 (853), Seq: 1, Ack: 1, Len: 337" size="20" pos="34">
    <field name="tcp.srcport" showname="Source port: 59694 (59694)" size="2" pos="34" show="59694" value="e92e"/>
    <field name="tcp.dstport" showname="Destination port: 853 (853)" size="2" pos="36" show="853" value="0355"/>
    <field name="tcp.port" showname="Source or Destination Port: 59694" hide="yes" size="2" pos="34" show="59694" value="e92e"/>
    <field name="tcp.port" showname="Source or Destination Port: 853" hide="yes" size="2" pos="36" show="853" value="0355"/>
    <field name="tcp.stream" showname="Stream index: 0" size="0" pos="34" show="0"/>
    <field name="tcp.len" showname="TCP Segment Len: 337" hide="yes" size="1" pos="46" show="337" value="50"/>
    <field name="tcp.seq" showname="Sequence number: 1    (relative sequence number)" size="4" pos="38" show="1" value="04a632f7"/>
    <field name="tcp.nxtseq" showname="Next sequence number: 338    (relative sequence number)" size="0" pos="34" show="338"/>
    <field name="tcp.ack" showname="Acknowledgment number: 1    (relative ack number)" size="4" pos="42" show="1" value="498053dc"/>
    <field name="tcp.hdr_len" showname="Header length: 20 bytes" size="1" pos="46" show="20" value="50"/>
    <field name="tcp.flags" showname="Flags: 0x018 (PSH, ACK)" size="2" pos="46" show="24" value="18" unmaskedvalue="5018">
      <field name="tcp.flags.res" showname="000. .... .... = Reserved: Not set" size="1" pos="46" show="0" value="0" unmaskedvalue="50"/>
      <field name="tcp.flags.ns" showname="...0 .... .... = Nonce: Not set" size="1" pos="46" show="0" value="0" unmaskedvalue="50"/>
      <field name="tcp.flags.cwr" showname=".... 0... .... = Congestion Window Reduced (CWR): Not set" size="1" pos="47" show="0" value="0" unmaskedvalue="18"/>
      <field name="tcp.flags.ecn" showname=".... .0.. .... = ECN-Echo: Not set" size="1" pos="47" show="0" value="0" unmaskedvalue="18"/>
      <field name="tcp.flags.urg" showname=".... ..0. .... = Urgent: Not set" size="1" pos="47" show="0" value="0" unmaskedvalue="18"/>
      <field name="tcp.flags.ack" showname=".... ...1 .... = Acknowledgment: Set" size="1" pos="47" show="1" value="1" unmaskedvalue="18"/>
      <field name="tcp.flags.push" showname=".... .... 1... = Push: Set" size="1" pos="47" show="1" value="1" unmaskedvalue="18"/>
      <field name="tcp.flags.reset" showname=".... .... .0.. = Reset: Not set" size="1" pos="47" show="0" value="0" unmaskedvalue="18"/>
      <field name="tcp.flags.syn" showname=".... .... ..0. = Syn: Not set" size="1" pos="47" show="0" value="0" unmaskedvalue="18"/>
      <field name="tcp.flags.fin" showname=".... .... ...0 = Fin: Not set" size="1" pos="47" show="0" value="0" unmaskedvalue="18"/>
    </field>
    <field name="tcp.window_size_value" showname="Window size value: 229" size="2" pos="48" show="229" value="00e5"/>
    <field name="tcp.window_size" showname="Calculated window size: 29312" size="2" pos="48" show="29312" value="00e5"/>
    <field name="tcp.window_size_scalefactor" showname="Window size scaling factor: 128" size="2" pos="48" show="128" value="00e5"/>
    <field name="tcp.checksum" showname="Checksum: 0xaf80 [validation disabled]" size="2" pos="50" show="44928" value="af80">
      <field name="tcp.checksum_good" showname="Good Checksum: False" size="2" pos="50" show="0" value="af80"/>
      <field name="tcp.checksum_bad" showname="Bad Checksum: False" size="2" pos="50" show="0" value="af80"/>
    </field>
    <field name="tcp.analysis" showname="SEQ/ACK analysis" size="0" pos="34" show="" value="">
      <field name="tcp.analysis.bytes_in_flight" showname="Bytes in flight: 337" size="0" pos="34" show="337"/>
    </field>
  </proto>
  <proto name="fake-field-wrapper">
    <field name="data" value="160301014c010001480303fea3ad4562e75db8e4ce4243cdd716b28d93f47a8a99a1c0e341550e4694d9e000003a1302130313011304c02ccca9c0adc00ac02bc0acc009c030cca8c014c02fc013009dc09d0035009cc09c002f009fccaac09f0039009ec09e0033010000e5000500050100000000000a00140012001700180019001d01000101010201030104000b00020100000d0020001e040108090804040308070501080a080505030601080b08060603020102030016000000170000002300000033006b0069001700410418b307aec94731fc3f0c77a06fd8f21afc6e01f5b78f2adaf5e1a54ffb34d1f54af71f9b5325202becb5188a02a875efba25c31cbd7e2b367260f371b9844a32001d00206e80eb391968ddb2413ff03bdbf416a2106be157154a652eb14dfd15b452292a002b0009080304030303020301ff01000100002d0003020100001c00024001">
      <field name="data.data" showname="Data: 160301014c010001480303fea3ad4562e75db8e4ce4243cd..." size="337" pos="54" show="16:03:01:01:4c:01:00:01:48:03:03:fe:a3:ad:45:62:e7:5d:b8:e4:ce:42:43:cd:d7:16:b2:8d:93:f4:7a:8a:99:a1:c0:e3:41:55:0e:46:94:d9:e0:00:00:3a:13:02:13:03:13:01:13:04:c0:2c:cc:a9:c0:ad:c0:0a:c0:2b:c0:ac:c0:09:c0:30:cc:a8:c0:14:c0:2f:c0:13:00:9d:c0:9d:00:35:00:9c:c0:9c:00:2f:00:9f:cc:aa:c0:9f:00:39:00:9e:c0:9e:00:33:01:00:00:e5:00:05:00:05:01:00:00:00:00:00:0a:00:14:00:12:00:17:00:18:00:19:00:1d:01:00:01:01:01:02:01:03:01:04:00:0b:00:02:01:00:00:0d:00:20:00:1e:04:01:08:09:08:04:04:03:08:07:05:01:08:0a:08:05:05:03:06:01:08:0b:08:06:06:03:02:01:02:03:00:16:00:00:00:17:00:00:00:23:00:00:00:33:00:6b:00:69:00:17:00:41:04:18:b3:07:ae:c9:47:31:fc:3f:0c:77:a0:6f:d8:f2:1a:fc:6e:01:f5:b7:8f:2a:da:f5:e1:a5:4f:fb:34:d1:f5:4a:f7:1f:9b:53:25:20:2b:ec:b5:18:8a:02:a8:75:ef:ba:25:c3:1c:bd:7e:2b:36:72:60:f3:71:b9:84:4a:32:00:1d:00:20:6e:80:eb:39:19:68:dd:b2:41:3f:f0:3b:db:f4:16:a2:10:6b:e1:57:15:4a:65:2e:b1:4d:fd:15:b4:52:29:2a:00:2b:00:09:08:03:04:03:03:03:02:03:01:ff:01:00:01:00:00:2d:00:03:02:01:00:00:1c:00:02:40:01" value="160301014c010001480303fea3ad4562e75db8e4ce4243cdd716b28d93f47a8a99a1c0e341550e4694d9e000003a1302130313011304c02ccca9c0adc00ac02bc0acc009c030cca8c014c02fc013009dc09d0035009cc09c002f009fccaac09f0039009ec09e0033010000e5000500050100000000000a00140012001700180019001d01000101010201030104000b00020100000d0020001e040108090804040308070501080a080505030601080b08060603020102030016000000170000002300000033006b0069001700410418b307aec94731fc3f0c77a06fd8f21afc6e01f5b78f2adaf5e1a54ffb34d1f54af71f9b5325202becb5188a02a875efba25c31cbd7e2b367260f371b9844a32001d00206e80eb391968ddb2413ff03bdbf416a2106be157154a652eb14dfd15b452292a002b0009080304030303020301ff01000100002d0003020100001c00024001"/>
      <field name="data.len" showname="Length: 337" size="0" pos="54" show="337"/>
  </field>
</proto>
</packet>


<packet>
  <proto name="geninfo" pos="0" showname="General information" size="54">
    <field name="num" pos="0" show="5" showname="Number" value="5" size="54"/>
    <field name="len" pos="0" show="54" showname="Frame Length" value="36" size="54"/>
    <field name="caplen" pos="0" show="54" showname="Captured Length" value="36" size="54"/>
    <field name="timestamp" pos="0" show="Jun 27, 2019 12:20:59.171067000 CEST" showname="Captured Time" value="1561630859.171067000" size="54"/>
  </proto>
  <proto name="frame" showname="Frame 5: 54 bytes on wire (432 bits), 54 bytes captured (432 bits) on interface 0" size="54" pos="0">
    <field name="frame.interface_id" showname="Interface id: 0" size="0" pos="0" show="0"/>
    <field name="frame.encap_type" showname="Encapsulation type: Ethernet (1)" size="0" pos="0" show="1"/>
    <field name="frame.time" showname="Arrival Time: Jun 27, 2019 12:20:59.171067000 CEST" size="0" pos="0" show="&quot;Jun 27, 2019 12:20:59.171067000 CEST&quot;"/>
    <field name="frame.offset_shift" showname="Time shift for this packet: 0.000000000 seconds" size="0" pos="0" show="0.000000000"/>
    <field name="frame.time_epoch" showname="Epoch Time: 1561630859.171067000 seconds" size="0" pos="0" show="1561630859.171067000"/>
    <field name="frame.time_delta" showname="Time delta from previous captured frame: 0.003583000 seconds" size="0" pos="0" show="0.003583000"/>
    <field name="frame.time_delta_displayed" showname="Time delta from previous displayed frame: 0.003583000 seconds" size="0" pos="0" show="0.003583000"/>
    <field name="frame.time_relative" showname="Time since reference or first frame: 0.008123000 seconds" size="0" pos="0" show="0.008123000"/>
    <field name="frame.number" showname="Frame Number: 5" size="0" pos="0" show="5"/>
    <field name="frame.len" showname="Frame Length: 54 bytes (432 bits)" size="0" pos="0" show="54"/>
    <field name="frame.cap_len" showname="Capture Length: 54 bytes (432 bits)" size="0" pos="0" show="54"/>
    <field name="frame.marked" showname="Frame is marked: False" size="0" pos="0" show="0"/>
    <field name="frame.ignored" showname="Frame is ignored: False" size="0" pos="0" show="0"/>
    <field name="frame.protocols" showname="Protocols in frame: eth:ip:tcp" size="0" pos="0" show="eth:ip:tcp"/>
  </proto>
  <proto name="eth" showname="Ethernet II, Src: 02:42:71:12:56:af (02:42:71:12:56:af), Dst: 02:42:ac:11:00:02 (02:42:ac:11:00:02)" size="14" pos="0">
    <field name="eth.dst" showname="Destination: 02:42:ac:11:00:02 (02:42:ac:11:00:02)" size="6" pos="0" show="02:42:ac:11:00:02" value="0242ac110002">
      <field name="eth.addr" showname="Address: 02:42:ac:11:00:02 (02:42:ac:11:00:02)" size="6" pos="0" show="02:42:ac:11:00:02" value="0242ac110002"/>
      <field name="eth.lg" showname=".... ..1. .... .... .... .... = LG bit: Locally administered address (this is NOT the factory default)" size="3" pos="0" show="1" value="1" unmaskedvalue="0242ac"/>
      <field name="eth.ig" showname=".... ...0 .... .... .... .... = IG bit: Individual address (unicast)" size="3" pos="0" show="0" value="0" unmaskedvalue="0242ac"/>
    </field>
    <field name="eth.src" showname="Source: 02:42:71:12:56:af (02:42:71:12:56:af)" size="6" pos="6" show="02:42:71:12:56:af" value="0242711256af">
      <field name="eth.addr" showname="Address: 02:42:71:12:56:af (02:42:71:12:56:af)" size="6" pos="6" show="02:42:71:12:56:af" value="0242711256af"/>
      <field name="eth.lg" showname=".... ..1. .... .... .... .... = LG bit: Locally administered address (this is NOT the factory default)" size="3" pos="6" show="1" value="1" unmaskedvalue="024271"/>
      <field name="eth.ig" showname=".... ...0 .... .... .... .... = IG bit: Individual address (unicast)" size="3" pos="6" show="0" value="0" unmaskedvalue="024271"/>
    </field>
    <field name="eth.type" showname="Type: IP (0x0800)" size="2" pos="12" show="2048" value="0800"/>
  </proto>
  <proto name="ip" showname="Internet Protocol Version 4, Src: 1.1.1.1 (1.1.1.1), Dst: 172.17.0.2 (172.17.0.2)" size="20" pos="14">
    <field name="ip.version" showname="Version: 4" size="1" pos="14" show="4" value="45"/>
    <field name="ip.hdr_len" showname="Header length: 20 bytes" size="1" pos="14" show="20" value="45"/>
    <field name="ip.dsfield" showname="Differentiated Services Field: 0x00 (DSCP 0x00: Default; ECN: 0x00: Not-ECT (Not ECN-Capable Transport))" size="1" pos="15" show="0" value="00">
      <field name="ip.dsfield.dscp" showname="0000 00.. = Differentiated Services Codepoint: Default (0x00)" size="1" pos="15" show="0" value="0" unmaskedvalue="00"/>
      <field name="ip.dsfield.ecn" showname=".... ..00 = Explicit Congestion Notification: Not-ECT (Not ECN-Capable Transport) (0x00)" size="1" pos="15" show="0" value="0" unmaskedvalue="00"/>
    </field>
    <field name="ip.len" showname="Total Length: 40" size="2" pos="16" show="40" value="0028"/>
    <field name="ip.id" showname="Identification: 0x85a8 (34216)" size="2" pos="18" show="34216" value="85a8"/>
    <field name="ip.flags" showname="Flags: 0x02 (Don&apos;t Fragment)" size="1" pos="20" show="2" value="40">
      <field name="ip.flags.rb" showname="0... .... = Reserved bit: Not set" size="1" pos="20" show="0" value="40"/>
      <field name="ip.flags.df" showname=".1.. .... = Don&apos;t fragment: Set" size="1" pos="20" show="1" value="40"/>
      <field name="ip.flags.mf" showname="..0. .... = More fragments: Not set" size="1" pos="20" show="0" value="40"/>
    </field>
    <field name="ip.frag_offset" showname="Fragment offset: 0" size="2" pos="20" show="0" value="4000"/>
    <field name="ip.ttl" showname="Time to live: 57" size="1" pos="22" show="57" value="39"/>
    <field name="ip.proto" showname="Protocol: TCP (6)" size="1" pos="23" show="6" value="06"/>
    <field name="ip.checksum" showname="Header checksum: 0x0e13 [validation disabled]" size="2" pos="24" show="3603" value="0e13">
      <field name="ip.checksum_good" showname="Good: False" size="2" pos="24" show="0" value="0e13"/>
      <field name="ip.checksum_bad" showname="Bad: False" size="2" pos="24" show="0" value="0e13"/>
    </field>
    <field name="ip.src" showname="Source: 1.1.1.1 (1.1.1.1)" size="4" pos="26" show="1.1.1.1" value="01010101"/>
    <field name="ip.addr" showname="Source or Destination Address: 1.1.1.1 (1.1.1.1)" hide="yes" size="4" pos="26" show="1.1.1.1" value="01010101"/>
    <field name="ip.src_host" showname="Source Host: 1.1.1.1" hide="yes" size="4" pos="26" show="1.1.1.1" value="01010101"/>
    <field name="ip.host" showname="Source or Destination Host: 1.1.1.1" hide="yes" size="4" pos="26" show="1.1.1.1" value="01010101"/>
    <field name="ip.dst" showname="Destination: 172.17.0.2 (172.17.0.2)" size="4" pos="30" show="172.17.0.2" value="ac110002"/>
    <field name="ip.addr" showname="Source or Destination Address: 172.17.0.2 (172.17.0.2)" hide="yes" size="4" pos="30" show="172.17.0.2" value="ac110002"/>
    <field name="ip.dst_host" showname="Destination Host: 172.17.0.2" hide="yes" size="4" pos="30" show="172.17.0.2" value="ac110002"/>
    <field name="ip.host" showname="Source or Destination Host: 172.17.0.2" hide="yes" size="4" pos="30" show="172.17.0.2" value="ac110002"/>
  </proto>
  <proto name="tcp" showname="Transmission Control Protocol, Src Port: 853 (853), Dst Port: 59694 (59694), Seq: 1, Ack: 338, Len: 0" size="20" pos="34">
    <field name="tcp.srcport" showname="Source port: 853 (853)" size="2" pos="34" show="853" value="0355"/>
    <field name="tcp.dstport" showname="Destination port: 59694 (59694)" size="2" pos="36" show="59694" value="e92e"/>
    <field name="tcp.port" showname="Source or Destination Port: 853" hide="yes" size="2" pos="34" show="853" value="0355"/>
    <field name="tcp.port" showname="Source or Destination Port: 59694" hide="yes" size="2" pos="36" show="59694" value="e92e"/>
    <field name="tcp.stream" showname="Stream index: 0" size="0" pos="34" show="0"/>
    <field name="tcp.len" showname="TCP Segment Len: 0" hide="yes" size="1" pos="46" show="0" value="50"/>
    <field name="tcp.seq" showname="Sequence number: 1    (relative sequence number)" size="4" pos="38" show="1" value="498053dc"/>
    <field name="tcp.ack" showname="Acknowledgment number: 338    (relative ack number)" size="4" pos="42" show="338" value="04a63448"/>
    <field name="tcp.hdr_len" showname="Header length: 20 bytes" size="1" pos="46" show="20" value="50"/>
    <field name="tcp.flags" showname="Flags: 0x010 (ACK)" size="2" pos="46" show="16" value="10" unmaskedvalue="5010">
      <field name="tcp.flags.res" showname="000. .... .... = Reserved: Not set" size="1" pos="46" show="0" value="0" unmaskedvalue="50"/>
      <field name="tcp.flags.ns" showname="...0 .... .... = Nonce: Not set" size="1" pos="46" show="0" value="0" unmaskedvalue="50"/>
      <field name="tcp.flags.cwr" showname=".... 0... .... = Congestion Window Reduced (CWR): Not set" size="1" pos="47" show="0" value="0" unmaskedvalue="10"/>
      <field name="tcp.flags.ecn" showname=".... .0.. .... = ECN-Echo: Not set" size="1" pos="47" show="0" value="0" unmaskedvalue="10"/>
      <field name="tcp.flags.urg" showname=".... ..0. .... = Urgent: Not set" size="1" pos="47" show="0" value="0" unmaskedvalue="10"/>
      <field name="tcp.flags.ack" showname=".... ...1 .... = Acknowledgment: Set" size="1" pos="47" show="1" value="1" unmaskedvalue="10"/>
      <field name="tcp.flags.push" showname=".... .... 0... = Push: Not set" size="1" pos="47" show="0" value="0" unmaskedvalue="10"/>
      <field name="tcp.flags.reset" showname=".... .... .0.. = Reset: Not set" size="1" pos="47" show="0" value="0" unmaskedvalue="10"/>
      <field name="tcp.flags.syn" showname=".... .... ..0. = Syn: Not set" size="1" pos="47" show="0" value="0" unmaskedvalue="10"/>
      <field name="tcp.flags.fin" showname=".... .... ...0 = Fin: Not set" size="1" pos="47" show="0" value="0" unmaskedvalue="10"/>
    </field>
    <field name="tcp.window_size_value" showname="Window size value: 30" size="2" pos="48" show="30" value="001e"/>
    <field name="tcp.window_size" showname="Calculated window size: 30720" size="2" pos="48" show="30720" value="001e"/>
    <field name="tcp.window_size_scalefactor" showname="Window size scaling factor: 1024" size="2" pos="48" show="1024" value="001e"/>
    <field name="tcp.checksum" showname="Checksum: 0x3ed3 [validation disabled]" size="2" pos="50" show="16083" value="3ed3">
      <field name="tcp.checksum_good" showname="Good Checksum: False" size="2" pos="50" show="0" value="3ed3"/>
      <field name="tcp.checksum_bad" showname="Bad Checksum: False" size="2" pos="50" show="0" value="3ed3"/>
    </field>
    <field name="tcp.analysis" showname="SEQ/ACK analysis" size="0" pos="34" show="" value="">
      <field name="tcp.analysis.acks_frame" showname="This is an ACK to the segment in frame: 4" size="0" pos="34" show="4"/>
      <field name="tcp.analysis.ack_rtt" showname="The RTT to ACK the segment was: 0.003583000 seconds" size="0" pos="34" show="0.003583000"/>
    </field>
  </proto>
</packet>


<packet>
  <proto name="geninfo" pos="0" showname="General information" size="188">
    <field name="num" pos="0" show="6" showname="Number" value="6" size="188"/>
    <field name="len" pos="0" show="188" showname="Frame Length" value="bc" size="188"/>
    <field name="caplen" pos="0" show="188" showname="Captured Length" value="bc" size="188"/>
    <field name="timestamp" pos="0" show="Jun 27, 2019 12:20:59.171960000 CEST" showname="Captured Time" value="1561630859.171960000" size="188"/>
  </proto>
  <proto name="frame" showname="Frame 6: 188 bytes on wire (1504 bits), 188 bytes captured (1504 bits) on interface 0" size="188" pos="0">
    <field name="frame.interface_id" showname="Interface id: 0" size="0" pos="0" show="0"/>
    <field name="frame.encap_type" showname="Encapsulation type: Ethernet (1)" size="0" pos="0" show="1"/>
    <field name="frame.time" showname="Arrival Time: Jun 27, 2019 12:20:59.171960000 CEST" size="0" pos="0" show="&quot;Jun 27, 2019 12:20:59.171960000 CEST&quot;"/>
    <field name="frame.offset_shift" showname="Time shift for this packet: 0.000000000 seconds" size="0" pos="0" show="0.000000000"/>
    <field name="frame.time_epoch" showname="Epoch Time: 1561630859.171960000 seconds" size="0" pos="0" show="1561630859.171960000"/>
    <field name="frame.time_delta" showname="Time delta from previous captured frame: 0.000893000 seconds" size="0" pos="0" show="0.000893000"/>
    <field name="frame.time_delta_displayed" showname="Time delta from previous displayed frame: 0.000893000 seconds" size="0" pos="0" show="0.000893000"/>
    <field name="frame.time_relative" showname="Time since reference or first frame: 0.009016000 seconds" size="0" pos="0" show="0.009016000"/>
    <field name="frame.number" showname="Frame Number: 6" size="0" pos="0" show="6"/>
    <field name="frame.len" showname="Frame Length: 188 bytes (1504 bits)" size="0" pos="0" show="188"/>
    <field name="frame.cap_len" showname="Capture Length: 188 bytes (1504 bits)" size="0" pos="0" show="188"/>
    <field name="frame.marked" showname="Frame is marked: False" size="0" pos="0" show="0"/>
    <field name="frame.ignored" showname="Frame is ignored: False" size="0" pos="0" show="0"/>
    <field name="frame.protocols" showname="Protocols in frame: eth:ip:tcp:data" size="0" pos="0" show="eth:ip:tcp:data"/>
  </proto>
  <proto name="eth" showname="Ethernet II, Src: 02:42:71:12:56:af (02:42:71:12:56:af), Dst: 02:42:ac:11:00:02 (02:42:ac:11:00:02)" size="14" pos="0">
    <field name="eth.dst" showname="Destination: 02:42:ac:11:00:02 (02:42:ac:11:00:02)" size="6" pos="0" show="02:42:ac:11:00:02" value="0242ac110002">
      <field name="eth.addr" showname="Address: 02:42:ac:11:00:02 (02:42:ac:11:00:02)" size="6" pos="0" show="02:42:ac:11:00:02" value="0242ac110002"/>
      <field name="eth.lg" showname=".... ..1. .... .... .... .... = LG bit: Locally administered address (this is NOT the factory default)" size="3" pos="0" show="1" value="1" unmaskedvalue="0242ac"/>
      <field name="eth.ig" showname=".... ...0 .... .... .... .... = IG bit: Individual address (unicast)" size="3" pos="0" show="0" value="0" unmaskedvalue="0242ac"/>
    </field>
    <field name="eth.src" showname="Source: 02:42:71:12:56:af (02:42:71:12:56:af)" size="6" pos="6" show="02:42:71:12:56:af" value="0242711256af">
      <field name="eth.addr" showname="Address: 02:42:71:12:56:af (02:42:71:12:56:af)" size="6" pos="6" show="02:42:71:12:56:af" value="0242711256af"/>
      <field name="eth.lg" showname=".... ..1. .... .... .... .... = LG bit: Locally administered address (this is NOT the factory default)" size="3" pos="6" show="1" value="1" unmaskedvalue="024271"/>
      <field name="eth.ig" showname=".... ...0 .... .... .... .... = IG bit: Individual address (unicast)" size="3" pos="6" show="0" value="0" unmaskedvalue="024271"/>
    </field>
    <field name="eth.type" showname="Type: IP (0x0800)" size="2" pos="12" show="2048" value="0800"/>
  </proto>
  <proto name="ip" showname="Internet Protocol Version 4, Src: 1.1.1.1 (1.1.1.1), Dst: 172.17.0.2 (172.17.0.2)" size="20" pos="14">
    <field name="ip.version" showname="Version: 4" size="1" pos="14" show="4" value="45"/>
    <field name="ip.hdr_len" showname="Header length: 20 bytes" size="1" pos="14" show="20" value="45"/>
    <field name="ip.dsfield" showname="Differentiated Services Field: 0x00 (DSCP 0x00: Default; ECN: 0x00: Not-ECT (Not ECN-Capable Transport))" size="1" pos="15" show="0" value="00">
      <field name="ip.dsfield.dscp" showname="0000 00.. = Differentiated Services Codepoint: Default (0x00)" size="1" pos="15" show="0" value="0" unmaskedvalue="00"/>
      <field name="ip.dsfield.ecn" showname=".... ..00 = Explicit Congestion Notification: Not-ECT (Not ECN-Capable Transport) (0x00)" size="1" pos="15" show="0" value="0" unmaskedvalue="00"/>
    </field>
    <field name="ip.len" showname="Total Length: 174" size="2" pos="16" show="174" value="00ae"/>
    <field name="ip.id" showname="Identification: 0x85a9 (34217)" size="2" pos="18" show="34217" value="85a9"/>
    <field name="ip.flags" showname="Flags: 0x02 (Don&apos;t Fragment)" size="1" pos="20" show="2" value="40">
      <field name="ip.flags.rb" showname="0... .... = Reserved bit: Not set" size="1" pos="20" show="0" value="40"/>
      <field name="ip.flags.df" showname=".1.. .... = Don&apos;t fragment: Set" size="1" pos="20" show="1" value="40"/>
      <field name="ip.flags.mf" showname="..0. .... = More fragments: Not set" size="1" pos="20" show="0" value="40"/>
    </field>
    <field name="ip.frag_offset" showname="Fragment offset: 0" size="2" pos="20" show="0" value="4000"/>
    <field name="ip.ttl" showname="Time to live: 57" size="1" pos="22" show="57" value="39"/>
    <field name="ip.proto" showname="Protocol: TCP (6)" size="1" pos="23" show="6" value="06"/>
    <field name="ip.checksum" showname="Header checksum: 0x0d8c [validation disabled]" size="2" pos="24" show="3468" value="0d8c">
      <field name="ip.checksum_good" showname="Good: False" size="2" pos="24" show="0" value="0d8c"/>
      <field name="ip.checksum_bad" showname="Bad: False" size="2" pos="24" show="0" value="0d8c"/>
    </field>
    <field name="ip.src" showname="Source: 1.1.1.1 (1.1.1.1)" size="4" pos="26" show="1.1.1.1" value="01010101"/>
    <field name="ip.addr" showname="Source or Destination Address: 1.1.1.1 (1.1.1.1)" hide="yes" size="4" pos="26" show="1.1.1.1" value="01010101"/>
    <field name="ip.src_host" showname="Source Host: 1.1.1.1" hide="yes" size="4" pos="26" show="1.1.1.1" value="01010101"/>
    <field name="ip.host" showname="Source or Destination Host: 1.1.1.1" hide="yes" size="4" pos="26" show="1.1.1.1" value="01010101"/>
    <field name="ip.dst" showname="Destination: 172.17.0.2 (172.17.0.2)" size="4" pos="30" show="172.17.0.2" value="ac110002"/>
    <field name="ip.addr" showname="Source or Destination Address: 172.17.0.2 (172.17.0.2)" hide="yes" size="4" pos="30" show="172.17.0.2" value="ac110002"/>
    <field name="ip.dst_host" showname="Destination Host: 172.17.0.2" hide="yes" size="4" pos="30" show="172.17.0.2" value="ac110002"/>
    <field name="ip.host" showname="Source or Destination Host: 172.17.0.2" hide="yes" size="4" pos="30" show="172.17.0.2" value="ac110002"/>
  </proto>
  <proto name="tcp" showname="Transmission Control Protocol, Src Port: 853 (853), Dst Port: 59694 (59694), Seq: 1, Ack: 338, Len: 134" size="20" pos="34">
    <field name="tcp.srcport" showname="Source port: 853 (853)" size="2" pos="34" show="853" value="0355"/>
    <field name="tcp.dstport" showname="Destination port: 59694 (59694)" size="2" pos="36" show="59694" value="e92e"/>
    <field name="tcp.port" showname="Source or Destination Port: 853" hide="yes" size="2" pos="34" show="853" value="0355"/>
    <field name="tcp.port" showname="Source or Destination Port: 59694" hide="yes" size="2" pos="36" show="59694" value="e92e"/>
    <field name="tcp.stream" showname="Stream index: 0" size="0" pos="34" show="0"/>
    <field name="tcp.len" showname="TCP Segment Len: 134" hide="yes" size="1" pos="46" show="134" value="50"/>
    <field name="tcp.seq" showname="Sequence number: 1    (relative sequence number)" size="4" pos="38" show="1" value="498053dc"/>
    <field name="tcp.nxtseq" showname="Next sequence number: 135    (relative sequence number)" size="0" pos="34" show="135"/>
    <field name="tcp.ack" showname="Acknowledgment number: 338    (relative ack number)" size="4" pos="42" show="338" value="04a63448"/>
    <field name="tcp.hdr_len" showname="Header length: 20 bytes" size="1" pos="46" show="20" value="50"/>
    <field name="tcp.flags" showname="Flags: 0x018 (PSH, ACK)" size="2" pos="46" show="24" value="18" unmaskedvalue="5018">
      <field name="tcp.flags.res" showname="000. .... .... = Reserved: Not set" size="1" pos="46" show="0" value="0" unmaskedvalue="50"/>
      <field name="tcp.flags.ns" showname="...0 .... .... = Nonce: Not set" size="1" pos="46" show="0" value="0" unmaskedvalue="50"/>
      <field name="tcp.flags.cwr" showname=".... 0... .... = Congestion Window Reduced (CWR): Not set" size="1" pos="47" show="0" value="0" unmaskedvalue="18"/>
      <field name="tcp.flags.ecn" showname=".... .0.. .... = ECN-Echo: Not set" size="1" pos="47" show="0" value="0" unmaskedvalue="18"/>
      <field name="tcp.flags.urg" showname=".... ..0. .... = Urgent: Not set" size="1" pos="47" show="0" value="0" unmaskedvalue="18"/>
      <field name="tcp.flags.ack" showname=".... ...1 .... = Acknowledgment: Set" size="1" pos="47" show="1" value="1" unmaskedvalue="18"/>
      <field name="tcp.flags.push" showname=".... .... 1... = Push: Set" size="1" pos="47" show="1" value="1" unmaskedvalue="18"/>
      <field name="tcp.flags.reset" showname=".... .... .0.. = Reset: Not set" size="1" pos="47" show="0" value="0" unmaskedvalue="18"/>
      <field name="tcp.flags.syn" showname=".... .... ..0. = Syn: Not set" size="1" pos="47" show="0" value="0" unmaskedvalue="18"/>
      <field name="tcp.flags.fin" showname=".... .... ...0 = Fin: Not set" size="1" pos="47" show="0" value="0" unmaskedvalue="18"/>
    </field>
    <field name="tcp.window_size_value" showname="Window size value: 30" size="2" pos="48" show="30" value="001e"/>
    <field name="tcp.window_size" showname="Calculated window size: 30720" size="2" pos="48" show="30720" value="001e"/>
    <field name="tcp.window_size_scalefactor" showname="Window size scaling factor: 1024" size="2" pos="48" show="1024" value="001e"/>
    <field name="tcp.checksum" showname="Checksum: 0x526e [validation disabled]" size="2" pos="50" show="21102" value="526e">
      <field name="tcp.checksum_good" showname="Good Checksum: False" size="2" pos="50" show="0" value="526e"/>
      <field name="tcp.checksum_bad" showname="Bad Checksum: False" size="2" pos="50" show="0" value="526e"/>
    </field>
    <field name="tcp.analysis" showname="SEQ/ACK analysis" size="0" pos="34" show="" value="">
      <field name="tcp.analysis.bytes_in_flight" showname="Bytes in flight: 134" size="0" pos="34" show="134"/>
    </field>
  </proto>
  <proto name="fake-field-wrapper">
    <field name="data" value="160303007b020000770303fc1db9b89eac274327009d9d22c79a1f9a3b696d6f8df09d444f574e4752440100130200004f003300450017004104ea0f0b5f297d91692970bcf04c83a0e942325251fb865ee25e94f79d90e905328ba808c46e85567678208a2a40b93c08bf6a482a4f3659274897a7730506a332002b00020304140303000101">
      <field name="data.data" showname="Data: 160303007b020000770303fc1db9b89eac274327009d9d22..." size="134" pos="54" show="16:03:03:00:7b:02:00:00:77:03:03:fc:1d:b9:b8:9e:ac:27:43:27:00:9d:9d:22:c7:9a:1f:9a:3b:69:6d:6f:8d:f0:9d:44:4f:57:4e:47:52:44:01:00:13:02:00:00:4f:00:33:00:45:00:17:00:41:04:ea:0f:0b:5f:29:7d:91:69:29:70:bc:f0:4c:83:a0:e9:42:32:52:51:fb:86:5e:e2:5e:94:f7:9d:90:e9:05:32:8b:a8:08:c4:6e:85:56:76:78:20:8a:2a:40:b9:3c:08:bf:6a:48:2a:4f:36:59:27:48:97:a7:73:05:06:a3:32:00:2b:00:02:03:04:14:03:03:00:01:01" value="160303007b020000770303fc1db9b89eac274327009d9d22c79a1f9a3b696d6f8df09d444f574e4752440100130200004f003300450017004104ea0f0b5f297d91692970bcf04c83a0e942325251fb865ee25e94f79d90e905328ba808c46e85567678208a2a40b93c08bf6a482a4f3659274897a7730506a332002b00020304140303000101"/>
      <field name="data.len" showname="Length: 134" size="0" pos="54" show="134"/>
  </field>
</proto>
</packet>


<packet>
  <proto name="geninfo" pos="0" showname="General information" size="54">
    <field name="num" pos="0" show="7" showname="Number" value="7" size="54"/>
    <field name="len" pos="0" show="54" showname="Frame Length" value="36" size="54"/>
    <field name="caplen" pos="0" show="54" showname="Captured Length" value="36" size="54"/>
    <field name="timestamp" pos="0" show="Jun 27, 2019 12:20:59.171984000 CEST" showname="Captured Time" value="1561630859.171984000" size="54"/>
  </proto>
  <proto name="frame" showname="Frame 7: 54 bytes on wire (432 bits), 54 bytes captured (432 bits) on interface 0" size="54" pos="0">
    <field name="frame.interface_id" showname="Interface id: 0" size="0" pos="0" show="0"/>
    <field name="frame.encap_type" showname="Encapsulation type: Ethernet (1)" size="0" pos="0" show="1"/>
    <field name="frame.time" showname="Arrival Time: Jun 27, 2019 12:20:59.171984000 CEST" size="0" pos="0" show="&quot;Jun 27, 2019 12:20:59.171984000 CEST&quot;"/>
    <field name="frame.offset_shift" showname="Time shift for this packet: 0.000000000 seconds" size="0" pos="0" show="0.000000000"/>
    <field name="frame.time_epoch" showname="Epoch Time: 1561630859.171984000 seconds" size="0" pos="0" show="1561630859.171984000"/>
    <field name="frame.time_delta" showname="Time delta from previous captured frame: 0.000024000 seconds" size="0" pos="0" show="0.000024000"/>
    <field name="frame.time_delta_displayed" showname="Time delta from previous displayed frame: 0.000024000 seconds" size="0" pos="0" show="0.000024000"/>
    <field name="frame.time_relative" showname="Time since reference or first frame: 0.009040000 seconds" size="0" pos="0" show="0.009040000"/>
    <field name="frame.number" showname="Frame Number: 7" size="0" pos="0" show="7"/>
    <field name="frame.len" showname="Frame Length: 54 bytes (432 bits)" size="0" pos="0" show="54"/>
    <field name="frame.cap_len" showname="Capture Length: 54 bytes (432 bits)" size="0" pos="0" show="54"/>
    <field name="frame.marked" showname="Frame is marked: False" size="0" pos="0" show="0"/>
    <field name="frame.ignored" showname="Frame is ignored: False" size="0" pos="0" show="0"/>
    <field name="frame.protocols" showname="Protocols in frame: eth:ip:tcp" size="0" pos="0" show="eth:ip:tcp"/>
  </proto>
  <proto name="eth" showname="Ethernet II, Src: 02:42:ac:11:00:02 (02:42:ac:11:00:02), Dst: 02:42:71:12:56:af (02:42:71:12:56:af)" size="14" pos="0">
    <field name="eth.dst" showname="Destination: 02:42:71:12:56:af (02:42:71:12:56:af)" size="6" pos="0" show="02:42:71:12:56:af" value="0242711256af">
      <field name="eth.addr" showname="Address: 02:42:71:12:56:af (02:42:71:12:56:af)" size="6" pos="0" show="02:42:71:12:56:af" value="0242711256af"/>
      <field name="eth.lg" showname=".... ..1. .... .... .... .... = LG bit: Locally administered address (this is NOT the factory default)" size="3" pos="0" show="1" value="1" unmaskedvalue="024271"/>
      <field name="eth.ig" showname=".... ...0 .... .... .... .... = IG bit: Individual address (unicast)" size="3" pos="0" show="0" value="0" unmaskedvalue="024271"/>
    </field>
    <field name="eth.src" showname="Source: 02:42:ac:11:00:02 (02:42:ac:11:00:02)" size="6" pos="6" show="02:42:ac:11:00:02" value="0242ac110002">
      <field name="eth.addr" showname="Address: 02:42:ac:11:00:02 (02:42:ac:11:00:02)" size="6" pos="6" show="02:42:ac:11:00:02" value="0242ac110002"/>
      <field name="eth.lg" showname=".... ..1. .... .... .... .... = LG bit: Locally administered address (this is NOT the factory default)" size="3" pos="6" show="1" value="1" unmaskedvalue="0242ac"/>
      <field name="eth.ig" showname=".... ...0 .... .... .... .... = IG bit: Individual address (unicast)" size="3" pos="6" show="0" value="0" unmaskedvalue="0242ac"/>
    </field>
    <field name="eth.type" showname="Type: IP (0x0800)" size="2" pos="12" show="2048" value="0800"/>
  </proto>
  <proto name="ip" showname="Internet Protocol Version 4, Src: 172.17.0.2 (172.17.0.2), Dst: 1.1.1.1 (1.1.1.1)" size="20" pos="14">
    <field name="ip.version" showname="Version: 4" size="1" pos="14" show="4" value="45"/>
    <field name="ip.hdr_len" showname="Header length: 20 bytes" size="1" pos="14" show="20" value="45"/>
    <field name="ip.dsfield" showname="Differentiated Services Field: 0x00 (DSCP 0x00: Default; ECN: 0x00: Not-ECT (Not ECN-Capable Transport))" size="1" pos="15" show="0" value="00">
      <field name="ip.dsfield.dscp" showname="0000 00.. = Differentiated Services Codepoint: Default (0x00)" size="1" pos="15" show="0" value="0" unmaskedvalue="00"/>
      <field name="ip.dsfield.ecn" showname=".... ..00 = Explicit Congestion Notification: Not-ECT (Not ECN-Capable Transport) (0x00)" size="1" pos="15" show="0" value="0" unmaskedvalue="00"/>
    </field>
    <field name="ip.len" showname="Total Length: 40" size="2" pos="16" show="40" value="0028"/>
    <field name="ip.id" showname="Identification: 0x4247 (16967)" size="2" pos="18" show="16967" value="4247"/>
    <field name="ip.flags" showname="Flags: 0x02 (Don&apos;t Fragment)" size="1" pos="20" show="2" value="40">
      <field name="ip.flags.rb" showname="0... .... = Reserved bit: Not set" size="1" pos="20" show="0" value="40"/>
      <field name="ip.flags.df" showname=".1.. .... = Don&apos;t fragment: Set" size="1" pos="20" show="1" value="40"/>
      <field name="ip.flags.mf" showname="..0. .... = More fragments: Not set" size="1" pos="20" show="0" value="40"/>
    </field>
    <field name="ip.frag_offset" showname="Fragment offset: 0" size="2" pos="20" show="0" value="4000"/>
    <field name="ip.ttl" showname="Time to live: 64" size="1" pos="22" show="64" value="40"/>
    <field name="ip.proto" showname="Protocol: TCP (6)" size="1" pos="23" show="6" value="06"/>
    <field name="ip.checksum" showname="Header checksum: 0x4a74 [validation disabled]" size="2" pos="24" show="19060" value="4a74">
      <field name="ip.checksum_good" showname="Good: False" size="2" pos="24" show="0" value="4a74"/>
      <field name="ip.checksum_bad" showname="Bad: False" size="2" pos="24" show="0" value="4a74"/>
    </field>
    <field name="ip.src" showname="Source: 172.17.0.2 (172.17.0.2)" size="4" pos="26" show="172.17.0.2" value="ac110002"/>
    <field name="ip.addr" showname="Source or Destination Address: 172.17.0.2 (172.17.0.2)" hide="yes" size="4" pos="26" show="172.17.0.2" value="ac110002"/>
    <field name="ip.src_host" showname="Source Host: 172.17.0.2" hide="yes" size="4" pos="26" show="172.17.0.2" value="ac110002"/>
    <field name="ip.host" showname="Source or Destination Host: 172.17.0.2" hide="yes" size="4" pos="26" show="172.17.0.2" value="ac110002"/>
    <field name="ip.dst" showname="Destination: 1.1.1.1 (1.1.1.1)" size="4" pos="30" show="1.1.1.1" value="01010101"/>
    <field name="ip.addr" showname="Source or Destination Address: 1.1.1.1 (1.1.1.1)" hide="yes" size="4" pos="30" show="1.1.1.1" value="01010101"/>
    <field name="ip.dst_host" showname="Destination Host: 1.1.1.1" hide="yes" size="4" pos="30" show="1.1.1.1" value="01010101"/>
    <field name="ip.host" showname="Source or Destination Host: 1.1.1.1" hide="yes" size="4" pos="30" show="1.1.1.1" value="01010101"/>
  </proto>
  <proto name="tcp" showname="Transmission Control Protocol, Src Port: 59694 (59694), Dst Port: 853 (853), Seq: 338, Ack: 135, Len: 0" size="20" pos="34">
    <field name="tcp.srcport" showname="Source port: 59694 (59694)" size="2" pos="34" show="59694" value="e92e"/>
    <field name="tcp.dstport" showname="Destination port: 853 (853)" size="2" pos="36" show="853" value="0355"/>
    <field name="tcp.port" showname="Source or Destination Port: 59694" hide="yes" size="2" pos="34" show="59694" value="e92e"/>
    <field name="tcp.port" showname="Source or Destination Port: 853" hide="yes" size="2" pos="36" show="853" value="0355"/>
    <field name="tcp.stream" showname="Stream index: 0" size="0" pos="34" show="0"/>
    <field name="tcp.len" showname="TCP Segment Len: 0" hide="yes" size="1" pos="46" show="0" value="50"/>
    <field name="tcp.seq" showname="Sequence number: 338    (relative sequence number)" size="4" pos="38" show="338" value="04a63448"/>
    <field name="tcp.ack" showname="Acknowledgment number: 135    (relative ack number)" size="4" pos="42" show="135" value="49805462"/>
    <field name="tcp.hdr_len" showname="Header length: 20 bytes" size="1" pos="46" show="20" value="50"/>
    <field name="tcp.flags" showname="Flags: 0x010 (ACK)" size="2" pos="46" show="16" value="10" unmaskedvalue="5010">
      <field name="tcp.flags.res" showname="000. .... .... = Reserved: Not set" size="1" pos="46" show="0" value="0" unmaskedvalue="50"/>
      <field name="tcp.flags.ns" showname="...0 .... .... = Nonce: Not set" size="1" pos="46" show="0" value="0" unmaskedvalue="50"/>
      <field name="tcp.flags.cwr" showname=".... 0... .... = Congestion Window Reduced (CWR): Not set" size="1" pos="47" show="0" value="0" unmaskedvalue="10"/>
      <field name="tcp.flags.ecn" showname=".... .0.. .... = ECN-Echo: Not set" size="1" pos="47" show="0" value="0" unmaskedvalue="10"/>
      <field name="tcp.flags.urg" showname=".... ..0. .... = Urgent: Not set" size="1" pos="47" show="0" value="0" unmaskedvalue="10"/>
      <field name="tcp.flags.ack" showname=".... ...1 .... = Acknowledgment: Set" size="1" pos="47" show="1" value="1" unmaskedvalue="10"/>
      <field name="tcp.flags.push" showname=".... .... 0... = Push: Not set" size="1" pos="47" show="0" value="0" unmaskedvalue="10"/>
      <field name="tcp.flags.reset" showname=".... .... .0.. = Reset: Not set" size="1" pos="47" show="0" value="0" unmaskedvalue="10"/>
      <field name="tcp.flags.syn" showname=".... .... ..0. = Syn: Not set" size="1" pos="47" show="0" value="0" unmaskedvalue="10"/>
      <field name="tcp.flags.fin" showname=".... .... ...0 = Fin: Not set" size="1" pos="47" show="0" value="0" unmaskedvalue="10"/>
    </field>
    <field name="tcp.window_size_value" showname="Window size value: 237" size="2" pos="48" show="237" value="00ed"/>
    <field name="tcp.window_size" showname="Calculated window size: 30336" size="2" pos="48" show="30336" value="00ed"/>
    <field name="tcp.window_size_scalefactor" showname="Window size scaling factor: 128" size="2" pos="48" show="128" value="00ed"/>
    <field name="tcp.checksum" showname="Checksum: 0xae2f [validation disabled]" size="2" pos="50" show="44591" value="ae2f">
      <field name="tcp.checksum_good" showname="Good Checksum: False" size="2" pos="50" show="0" value="ae2f"/>
      <field name="tcp.checksum_bad" showname="Bad Checksum: False" size="2" pos="50" show="0" value="ae2f"/>
    </field>
    <field name="tcp.analysis" showname="SEQ/ACK analysis" size="0" pos="34" show="" value="">
      <field name="tcp.analysis.acks_frame" showname="This is an ACK to the segment in frame: 6" size="0" pos="34" show="6"/>
      <field name="tcp.analysis.ack_rtt" showname="The RTT to ACK the segment was: 0.000024000 seconds" size="0" pos="34" show="0.000024000"/>
    </field>
  </proto>
</packet>


<packet>
  <proto name="geninfo" pos="0" showname="General information" size="1514">
    <field name="num" pos="0" show="8" showname="Number" value="8" size="1514"/>
    <field name="len" pos="0" show="1514" showname="Frame Length" value="5ea" size="1514"/>
    <field name="caplen" pos="0" show="1514" showname="Captured Length" value="5ea" size="1514"/>
    <field name="timestamp" pos="0" show="Jun 27, 2019 12:20:59.172677000 CEST" showname="Captured Time" value="1561630859.172677000" size="1514"/>
  </proto>
  <proto name="frame" showname="Frame 8: 1514 bytes on wire (12112 bits), 1514 bytes captured (12112 bits) on interface 0" size="1514" pos="0">
    <field name="frame.interface_id" showname="Interface id: 0" size="0" pos="0" show="0"/>
    <field name="frame.encap_type" showname="Encapsulation type: Ethernet (1)" size="0" pos="0" show="1"/>
    <field name="frame.time" showname="Arrival Time: Jun 27, 2019 12:20:59.172677000 CEST" size="0" pos="0" show="&quot;Jun 27, 2019 12:20:59.172677000 CEST&quot;"/>
    <field name="frame.offset_shift" showname="Time shift for this packet: 0.000000000 seconds" size="0" pos="0" show="0.000000000"/>
    <field name="frame.time_epoch" showname="Epoch Time: 1561630859.172677000 seconds" size="0" pos="0" show="1561630859.172677000"/>
    <field name="frame.time_delta" showname="Time delta from previous captured frame: 0.000693000 seconds" size="0" pos="0" show="0.000693000"/>
    <field name="frame.time_delta_displayed" showname="Time delta from previous displayed frame: 0.000693000 seconds" size="0" pos="0" show="0.000693000"/>
    <field name="frame.time_relative" showname="Time since reference or first frame: 0.009733000 seconds" size="0" pos="0" show="0.009733000"/>
    <field name="frame.number" showname="Frame Number: 8" size="0" pos="0" show="8"/>
    <field name="frame.len" showname="Frame Length: 1514 bytes (12112 bits)" size="0" pos="0" show="1514"/>
    <field name="frame.cap_len" showname="Capture Length: 1514 bytes (12112 bits)" size="0" pos="0" show="1514"/>
    <field name="frame.marked" showname="Frame is marked: False" size="0" pos="0" show="0"/>
    <field name="frame.ignored" showname="Frame is ignored: False" size="0" pos="0" show="0"/>
    <field name="frame.protocols" showname="Protocols in frame: eth:ip:tcp:data" size="0" pos="0" show="eth:ip:tcp:data"/>
  </proto>
  <proto name="eth" showname="Ethernet II, Src: 02:42:71:12:56:af (02:42:71:12:56:af), Dst: 02:42:ac:11:00:02 (02:42:ac:11:00:02)" size="14" pos="0">
    <field name="eth.dst" showname="Destination: 02:42:ac:11:00:02 (02:42:ac:11:00:02)" size="6" pos="0" show="02:42:ac:11:00:02" value="0242ac110002">
      <field name="eth.addr" showname="Address: 02:42:ac:11:00:02 (02:42:ac:11:00:02)" size="6" pos="0" show="02:42:ac:11:00:02" value="0242ac110002"/>
      <field name="eth.lg" showname=".... ..1. .... .... .... .... = LG bit: Locally administered address (this is NOT the factory default)" size="3" pos="0" show="1" value="1" unmaskedvalue="0242ac"/>
      <field name="eth.ig" showname=".... ...0 .... .... .... .... = IG bit: Individual address (unicast)" size="3" pos="0" show="0" value="0" unmaskedvalue="0242ac"/>
    </field>
    <field name="eth.src" showname="Source: 02:42:71:12:56:af (02:42:71:12:56:af)" size="6" pos="6" show="02:42:71:12:56:af" value="0242711256af">
      <field name="eth.addr" showname="Address: 02:42:71:12:56:af (02:42:71:12:56:af)" size="6" pos="6" show="02:42:71:12:56:af" value="0242711256af"/>
      <field name="eth.lg" showname=".... ..1. .... .... .... .... = LG bit: Locally administered address (this is NOT the factory default)" size="3" pos="6" show="1" value="1" unmaskedvalue="024271"/>
      <field name="eth.ig" showname=".... ...0 .... .... .... .... = IG bit: Individual address (unicast)" size="3" pos="6" show="0" value="0" unmaskedvalue="024271"/>
    </field>
    <field name="eth.type" showname="Type: IP (0x0800)" size="2" pos="12" show="2048" value="0800"/>
  </proto>
  <proto name="ip" showname="Internet Protocol Version 4, Src: 1.1.1.1 (1.1.1.1), Dst: 172.17.0.2 (172.17.0.2)" size="20" pos="14">
    <field name="ip.version" showname="Version: 4" size="1" pos="14" show="4" value="45"/>
    <field name="ip.hdr_len" showname="Header length: 20 bytes" size="1" pos="14" show="20" value="45"/>
    <field name="ip.dsfield" showname="Differentiated Services Field: 0x00 (DSCP 0x00: Default; ECN: 0x00: Not-ECT (Not ECN-Capable Transport))" size="1" pos="15" show="0" value="00">
      <field name="ip.dsfield.dscp" showname="0000 00.. = Differentiated Services Codepoint: Default (0x00)" size="1" pos="15" show="0" value="0" unmaskedvalue="00"/>
      <field name="ip.dsfield.ecn" showname=".... ..00 = Explicit Congestion Notification: Not-ECT (Not ECN-Capable Transport) (0x00)" size="1" pos="15" show="0" value="0" unmaskedvalue="00"/>
    </field>
    <field name="ip.len" showname="Total Length: 1500" size="2" pos="16" show="1500" value="05dc"/>
    <field name="ip.id" showname="Identification: 0x85aa (34218)" size="2" pos="18" show="34218" value="85aa"/>
    <field name="ip.flags" showname="Flags: 0x02 (Don&apos;t Fragment)" size="1" pos="20" show="2" value="40">
      <field name="ip.flags.rb" showname="0... .... = Reserved bit: Not set" size="1" pos="20" show="0" value="40"/>
      <field name="ip.flags.df" showname=".1.. .... = Don&apos;t fragment: Set" size="1" pos="20" show="1" value="40"/>
      <field name="ip.flags.mf" showname="..0. .... = More fragments: Not set" size="1" pos="20" show="0" value="40"/>
    </field>
    <field name="ip.frag_offset" showname="Fragment offset: 0" size="2" pos="20" show="0" value="4000"/>
    <field name="ip.ttl" showname="Time to live: 57" size="1" pos="22" show="57" value="39"/>
    <field name="ip.proto" showname="Protocol: TCP (6)" size="1" pos="23" show="6" value="06"/>
    <field name="ip.checksum" showname="Header checksum: 0x085d [validation disabled]" size="2" pos="24" show="2141" value="085d">
      <field name="ip.checksum_good" showname="Good: False" size="2" pos="24" show="0" value="085d"/>
      <field name="ip.checksum_bad" showname="Bad: False" size="2" pos="24" show="0" value="085d"/>
    </field>
    <field name="ip.src" showname="Source: 1.1.1.1 (1.1.1.1)" size="4" pos="26" show="1.1.1.1" value="01010101"/>
    <field name="ip.addr" showname="Source or Destination Address: 1.1.1.1 (1.1.1.1)" hide="yes" size="4" pos="26" show="1.1.1.1" value="01010101"/>
    <field name="ip.src_host" showname="Source Host: 1.1.1.1" hide="yes" size="4" pos="26" show="1.1.1.1" value="01010101"/>
    <field name="ip.host" showname="Source or Destination Host: 1.1.1.1" hide="yes" size="4" pos="26" show="1.1.1.1" value="01010101"/>
    <field name="ip.dst" showname="Destination: 172.17.0.2 (172.17.0.2)" size="4" pos="30" show="172.17.0.2" value="ac110002"/>
    <field name="ip.addr" showname="Source or Destination Address: 172.17.0.2 (172.17.0.2)" hide="yes" size="4" pos="30" show="172.17.0.2" value="ac110002"/>
    <field name="ip.dst_host" showname="Destination Host: 172.17.0.2" hide="yes" size="4" pos="30" show="172.17.0.2" value="ac110002"/>
    <field name="ip.host" showname="Source or Destination Host: 172.17.0.2" hide="yes" size="4" pos="30" show="172.17.0.2" value="ac110002"/>
  </proto>
  <proto name="tcp" showname="Transmission Control Protocol, Src Port: 853 (853), Dst Port: 59694 (59694), Seq: 135, Ack: 338, Len: 1460" size="20" pos="34">
    <field name="tcp.srcport" showname="Source port: 853 (853)" size="2" pos="34" show="853" value="0355"/>
    <field name="tcp.dstport" showname="Destination port: 59694 (59694)" size="2" pos="36" show="59694" value="e92e"/>
    <field name="tcp.port" showname="Source or Destination Port: 853" hide="yes" size="2" pos="34" show="853" value="0355"/>
    <field name="tcp.port" showname="Source or Destination Port: 59694" hide="yes" size="2" pos="36" show="59694" value="e92e"/>
    <field name="tcp.stream" showname="Stream index: 0" size="0" pos="34" show="0"/>
    <field name="tcp.len" showname="TCP Segment Len: 1460" hide="yes" size="1" pos="46" show="1460" value="50"/>
    <field name="tcp.seq" showname="Sequence number: 135    (relative sequence number)" size="4" pos="38" show="135" value="49805462"/>
    <field name="tcp.nxtseq" showname="Next sequence number: 1595    (relative sequence number)" size="0" pos="34" show="1595"/>
    <field name="tcp.ack" showname="Acknowledgment number: 338    (relative ack number)" size="4" pos="42" show="338" value="04a63448"/>
    <field name="tcp.hdr_len" showname="Header length: 20 bytes" size="1" pos="46" show="20" value="50"/>
    <field name="tcp.flags" showname="Flags: 0x010 (ACK)" size="2" pos="46" show="16" value="10" unmaskedvalue="5010">
      <field name="tcp.flags.res" showname="000. .... .... = Reserved: Not set" size="1" pos="46" show="0" value="0" unmaskedvalue="50"/>
      <field name="tcp.flags.ns" showname="...0 .... .... = Nonce: Not set" size="1" pos="46" show="0" value="0" unmaskedvalue="50"/>
      <field name="tcp.flags.cwr" showname=".... 0... .... = Congestion Window Reduced (CWR): Not set" size="1" pos="47" show="0" value="0" unmaskedvalue="10"/>
      <field name="tcp.flags.ecn" showname=".... .0.. .... = ECN-Echo: Not set" size="1" pos="47" show="0" value="0" unmaskedvalue="10"/>
      <field name="tcp.flags.urg" showname=".... ..0. .... = Urgent: Not set" size="1" pos="47" show="0" value="0" unmaskedvalue="10"/>
      <field name="tcp.flags.ack" showname=".... ...1 .... = Acknowledgment: Set" size="1" pos="47" show="1" value="1" unmaskedvalue="10"/>
      <field name="tcp.flags.push" showname=".... .... 0... = Push: Not set" size="1" pos="47" show="0" value="0" unmaskedvalue="10"/>
      <field name="tcp.flags.reset" showname=".... .... .0.. = Reset: Not set" size="1" pos="47" show="0" value="0" unmaskedvalue="10"/>
      <field name="tcp.flags.syn" showname=".... .... ..0. = Syn: Not set" size="1" pos="47" show="0" value="0" unmaskedvalue="10"/>
      <field name="tcp.flags.fin" showname=".... .... ...0 = Fin: Not set" size="1" pos="47" show="0" value="0" unmaskedvalue="10"/>
    </field>
    <field name="tcp.window_size_value" showname="Window size value: 30" size="2" pos="48" show="30" value="001e"/>
    <field name="tcp.window_size" showname="Calculated window size: 30720" size="2" pos="48" show="30720" value="001e"/>
    <field name="tcp.window_size_scalefactor" showname="Window size scaling factor: 1024" size="2" pos="48" show="1024" value="001e"/>
    <field name="tcp.checksum" showname="Checksum: 0x1f66 [validation disabled]" size="2" pos="50" show="8038" value="1f66">
      <field name="tcp.checksum_good" showname="Good Checksum: False" size="2" pos="50" show="0" value="1f66"/>
      <field name="tcp.checksum_bad" showname="Bad Checksum: False" size="2" pos="50" show="0" value="1f66"/>
    </field>
    <field name="tcp.analysis" showname="SEQ/ACK analysis" size="0" pos="34" show="" value="">
      <field name="tcp.analysis.bytes_in_flight" showname="Bytes in flight: 1460" size="0" pos="34" show="1460"/>
    </field>
  </proto>
  <proto name="fake-field-wrapper">
    <field name="data" value="170303001d0473f41beb36b1ce824cdf03584db133bdc7489e59f868b9535666364a170303099d19cdda074a70b6faebd10521d1bccedbdc70a39446dd974c797f7b2f4ccd89caccfd1f73c6abf023c85fb314dc6e66bbebebda2098d00dad8695cc8ef22eaf50b65720dcd2ecc26718fc9f3162fde73070f8dabc1d2db23227b76f2fb5cfec7731369a35ca3fdec4ef7084e726b2df4792efc7479e98b719de6ce88c2f464ca8204451320aa660dbec4d73678e65ecbe2689652107331df41e040ba050bbb0f6e76d091f63d38f933ea78331a44cd4bd55f025bb7014cb66683aeec198b7015b10c65e43373b29f3364ee7fb705163768a80c6cc9dc5c40363b5c46ca7071c34e6ee68df2730884401ffccde1733ee86ded9d553d0c241a747a373702df7dd8b8b4b523ca2ea6b50fef2af0f5d03254c62faf37fc5a3ba56b36341049bee32fa781f21c4aec49a4a6a021f57f100801300aed9678eb2570dc6b96ab1e2a5e9a3742db1fbc876ee5025fef78b7f2b813747c9fb99ac6458500e85da64f043128df1ee0325fda45df94296433f1a3ce0ebdfee06300c9cbe28feba6019bd81177f6c046d4531c162f52de6bd5947ac8b571c75f7255c9e630fd110074efa7f557eb7b9506a7296bf819a5d233edfcc9601d68eb860a59902ae34b798e554743db6884cc88dc486394123a4c3624186ccc1c078a48104984c31d448165bca74294af3dd12d737351ebae2da1adca47a1dbd7c40a9a0cea68e62b08016ae167b593ade048d5419059e5fbd2cecaf6466e85dbc5c1ac90f4de1bf5b115b4709e45a52af803debad2a2d0ab6c00621487c97957e69823f316c6ddb30da695e4b81ca215f7b8e12b8efe99e678e537f55da843cd47b170868431c739b08a07ffc8871cda172082ac2ad6797f1da24db46965c313e867199e7ce4a61ad01e9617d5df6a2d9cd730a19d34d436b4e1be5ef2ef7cbdb301c42230a60a5283e37899d3ecd2e00616bc2c91342c6b031461b18df95b00d2d25cc64e48b4f4358e5149b41ae47327269fd9bda8f6e30a8d064d7eec1b4d38fa7d89e9c9b39c7849078fd7d6889baa5492588269af8bb2a13fd20f78c5f873c0481c3a4efa7301542b3a331580363dc7e4eb7029615fd524e6d164d2b2abe5e593f67713c9860a88aced37df88a4b2e85d4adb4bd8b43cb4aa7f9610bab6ef1ecc0a81e6fb57e7cfe9fbad05b5cd66dededd6251abd238cc9bf1f226d4990f8e702013bb5fd340e06e800df9cb944d61169cb8fa4bbcdd298f715d97c41a7fcee484320919a52c1820c22df2c21520463c0587f974a5d39d2da0219b35a8c6c9e23c8e2d43fac8d28dbcb5e5187a0ddb1d0a84da5a43ecfc966f2fd795974d6a8fc2d971bfc6c8b77e5d60c68ae709cf2622abacf874c96779d547132ab1d74855f346c4d5e0a9f2dffe34ea1076bf814b1d5fcb6e7af572c74ad1b88faa822e9bfcacb9141885e619d989d7776fe3a633ec3910afd01cfe03e365df80e9fc4e08771738b45949cede686f03b19d2c8841e1c987fa02edf287bfde3720be1b6650aceac5eae75d5bd8d193992ea71fde3c10ddeac0892d89852d07d6ad754fa0bb5cf6c767cfa1ed6376b12d63accbef4e307509b5ecc2f8e169b3b8c4fb01741bf074df8c8ae42a0b6e01a6725d4a8bcc78bb2b1824234d45f38154ba695bbd62ff2c05f6a130ee1e65f31c8d5a5ee1fff22f61e56f325abee7860b3ffb57ef48093ada44aece20b4f2adc3bc1722fd8b0faf14de4cc389b04eeda55709c180ec7b636dc98dc751f8b07b67994c749b3c9f75f4389b988efb606964b8fac0308d0aa02ae4d008e975e1d4abda0ffdd4bdde31e96340c70a6af64096f177596f61783428cdbc6bb7afc138ff622e6a1605a4fb12e875ae1932b43239d1140398bf98ad81704d240205ea5567d8d3d4a7f62805c4e77dea23ee6aa0deb932bf069a96052bc508deafcfdd6914e0f8608a7cd898bb6c9f7fd2928165d17da2d73b0321289e5423442816c882ac36962cf903e040358177b8cab6c61">
      <field name="data.data" showname="Data: 170303001d0473f41beb36b1ce824cdf03584db133bdc748..." size="1460" pos="54" show="17:03:03:00:1d:04:73:f4:1b:eb:36:b1:ce:82:4c:df:03:58:4d:b1:33:bd:c7:48:9e:59:f8:68:b9:53:56:66:36:4a:17:03:03:09:9d:19:cd:da:07:4a:70:b6:fa:eb:d1:05:21:d1:bc:ce:db:dc:70:a3:94:46:dd:97:4c:79:7f:7b:2f:4c:cd:89:ca:cc:fd:1f:73:c6:ab:f0:23:c8:5f:b3:14:dc:6e:66:bb:eb:eb:da:20:98:d0:0d:ad:86:95:cc:8e:f2:2e:af:50:b6:57:20:dc:d2:ec:c2:67:18:fc:9f:31:62:fd:e7:30:70:f8:da:bc:1d:2d:b2:32:27:b7:6f:2f:b5:cf:ec:77:31:36:9a:35:ca:3f:de:c4:ef:70:84:e7:26:b2:df:47:92:ef:c7:47:9e:98:b7:19:de:6c:e8:8c:2f:46:4c:a8:20:44:51:32:0a:a6:60:db:ec:4d:73:67:8e:65:ec:be:26:89:65:21:07:33:1d:f4:1e:04:0b:a0:50:bb:b0:f6:e7:6d:09:1f:63:d3:8f:93:3e:a7:83:31:a4:4c:d4:bd:55:f0:25:bb:70:14:cb:66:68:3a:ee:c1:98:b7:01:5b:10:c6:5e:43:37:3b:29:f3:36:4e:e7:fb:70:51:63:76:8a:80:c6:cc:9d:c5:c4:03:63:b5:c4:6c:a7:07:1c:34:e6:ee:68:df:27:30:88:44:01:ff:cc:de:17:33:ee:86:de:d9:d5:53:d0:c2:41:a7:47:a3:73:70:2d:f7:dd:8b:8b:4b:52:3c:a2:ea:6b:50:fe:f2:af:0f:5d:03:25:4c:62:fa:f3:7f:c5:a3:ba:56:b3:63:41:04:9b:ee:32:fa:78:1f:21:c4:ae:c4:9a:4a:6a:02:1f:57:f1:00:80:13:00:ae:d9:67:8e:b2:57:0d:c6:b9:6a:b1:e2:a5:e9:a3:74:2d:b1:fb:c8:76:ee:50:25:fe:f7:8b:7f:2b:81:37:47:c9:fb:99:ac:64:58:50:0e:85:da:64:f0:43:12:8d:f1:ee:03:25:fd:a4:5d:f9:42:96:43:3f:1a:3c:e0:eb:df:ee:06:30:0c:9c:be:28:fe:ba:60:19:bd:81:17:7f:6c:04:6d:45:31:c1:62:f5:2d:e6:bd:59:47:ac:8b:57:1c:75:f7:25:5c:9e:63:0f:d1:10:07:4e:fa:7f:55:7e:b7:b9:50:6a:72:96:bf:81:9a:5d:23:3e:df:cc:96:01:d6:8e:b8:60:a5:99:02:ae:34:b7:98:e5:54:74:3d:b6:88:4c:c8:8d:c4:86:39:41:23:a4:c3:62:41:86:cc:c1:c0:78:a4:81:04:98:4c:31:d4:48:16:5b:ca:74:29:4a:f3:dd:12:d7:37:35:1e:ba:e2:da:1a:dc:a4:7a:1d:bd:7c:40:a9:a0:ce:a6:8e:62:b0:80:16:ae:16:7b:59:3a:de:04:8d:54:19:05:9e:5f:bd:2c:ec:af:64:66:e8:5d:bc:5c:1a:c9:0f:4d:e1:bf:5b:11:5b:47:09:e4:5a:52:af:80:3d:eb:ad:2a:2d:0a:b6:c0:06:21:48:7c:97:95:7e:69:82:3f:31:6c:6d:db:30:da:69:5e:4b:81:ca:21:5f:7b:8e:12:b8:ef:e9:9e:67:8e:53:7f:55:da:84:3c:d4:7b:17:08:68:43:1c:73:9b:08:a0:7f:fc:88:71:cd:a1:72:08:2a:c2:ad:67:97:f1:da:24:db:46:96:5c:31:3e:86:71:99:e7:ce:4a:61:ad:01:e9:61:7d:5d:f6:a2:d9:cd:73:0a:19:d3:4d:43:6b:4e:1b:e5:ef:2e:f7:cb:db:30:1c:42:23:0a:60:a5:28:3e:37:89:9d:3e:cd:2e:00:61:6b:c2:c9:13:42:c6:b0:31:46:1b:18:df:95:b0:0d:2d:25:cc:64:e4:8b:4f:43:58:e5:14:9b:41:ae:47:32:72:69:fd:9b:da:8f:6e:30:a8:d0:64:d7:ee:c1:b4:d3:8f:a7:d8:9e:9c:9b:39:c7:84:90:78:fd:7d:68:89:ba:a5:49:25:88:26:9a:f8:bb:2a:13:fd:20:f7:8c:5f:87:3c:04:81:c3:a4:ef:a7:30:15:42:b3:a3:31:58:03:63:dc:7e:4e:b7:02:96:15:fd:52:4e:6d:16:4d:2b:2a:be:5e:59:3f:67:71:3c:98:60:a8:8a:ce:d3:7d:f8:8a:4b:2e:85:d4:ad:b4:bd:8b:43:cb:4a:a7:f9:61:0b:ab:6e:f1:ec:c0:a8:1e:6f:b5:7e:7c:fe:9f:ba:d0:5b:5c:d6:6d:ed:ed:d6:25:1a:bd:23:8c:c9:bf:1f:22:6d:49:90:f8:e7:02:01:3b:b5:fd:34:0e:06:e8:00:df:9c:b9:44:d6:11:69:cb:8f:a4:bb:cd:d2:98:f7:15:d9:7c:41:a7:fc:ee:48:43:20:91:9a:52:c1:82:0c:22:df:2c:21:52:04:63:c0:58:7f:97:4a:5d:39:d2:da:02:19:b3:5a:8c:6c:9e:23:c8:e2:d4:3f:ac:8d:28:db:cb:5e:51:87:a0:dd:b1:d0:a8:4d:a5:a4:3e:cf:c9:66:f2:fd:79:59:74:d6:a8:fc:2d:97:1b:fc:6c:8b:77:e5:d6:0c:68:ae:70:9c:f2:62:2a:ba:cf:87:4c:96:77:9d:54:71:32:ab:1d:74:85:5f:34:6c:4d:5e:0a:9f:2d:ff:e3:4e:a1:07:6b:f8:14:b1:d5:fc:b6:e7:af:57:2c:74:ad:1b:88:fa:a8:22:e9:bf:ca:cb:91:41:88:5e:61:9d:98:9d:77:76:fe:3a:63:3e:c3:91:0a:fd:01:cf:e0:3e:36:5d:f8:0e:9f:c4:e0:87:71:73:8b:45:94:9c:ed:e6:86:f0:3b:19:d2:c8:84:1e:1c:98:7f:a0:2e:df:28:7b:fd:e3:72:0b:e1:b6:65:0a:ce:ac:5e:ae:75:d5:bd:8d:19:39:92:ea:71:fd:e3:c1:0d:de:ac:08:92:d8:98:52:d0:7d:6a:d7:54:fa:0b:b5:cf:6c:76:7c:fa:1e:d6:37:6b:12:d6:3a:cc:be:f4:e3:07:50:9b:5e:cc:2f:8e:16:9b:3b:8c:4f:b0:17:41:bf:07:4d:f8:c8:ae:42:a0:b6:e0:1a:67:25:d4:a8:bc:c7:8b:b2:b1:82:42:34:d4:5f:38:15:4b:a6:95:bb:d6:2f:f2:c0:5f:6a:13:0e:e1:e6:5f:31:c8:d5:a5:ee:1f:ff:22:f6:1e:56:f3:25:ab:ee:78:60:b3:ff:b5:7e:f4:80:93:ad:a4:4a:ec:e2:0b:4f:2a:dc:3b:c1:72:2f:d8:b0:fa:f1:4d:e4:cc:38:9b:04:ee:da:55:70:9c:18:0e:c7:b6:36:dc:98:dc:75:1f:8b:07:b6:79:94:c7:49:b3:c9:f7:5f:43:89:b9:88:ef:b6:06:96:4b:8f:ac:03:08:d0:aa:02:ae:4d:00:8e:97:5e:1d:4a:bd:a0:ff:dd:4b:dd:e3:1e:96:34:0c:70:a6:af:64:09:6f:17:75:96:f6:17:83:42:8c:db:c6:bb:7a:fc:13:8f:f6:22:e6:a1:60:5a:4f:b1:2e:87:5a:e1:93:2b:43:23:9d:11:40:39:8b:f9:8a:d8:17:04:d2:40:20:5e:a5:56:7d:8d:3d:4a:7f:62:80:5c:4e:77:de:a2:3e:e6:aa:0d:eb:93:2b:f0:69:a9:60:52:bc:50:8d:ea:fc:fd:d6:91:4e:0f:86:08:a7:cd:89:8b:b6:c9:f7:fd:29:28:16:5d:17:da:2d:73:b0:32:12:89:e5:42:34:42:81:6c:88:2a:c3:69:62:cf:90:3e:04:03:58:17:7b:8c:ab:6c:61" value="170303001d0473f41beb36b1ce824cdf03584db133bdc7489e59f868b9535666364a170303099d19cdda074a70b6faebd10521d1bccedbdc70a39446dd974c797f7b2f4ccd89caccfd1f73c6abf023c85fb314dc6e66bbebebda2098d00dad8695cc8ef22eaf50b65720dcd2ecc26718fc9f3162fde73070f8dabc1d2db23227b76f2fb5cfec7731369a35ca3fdec4ef7084e726b2df4792efc7479e98b719de6ce88c2f464ca8204451320aa660dbec4d73678e65ecbe2689652107331df41e040ba050bbb0f6e76d091f63d38f933ea78331a44cd4bd55f025bb7014cb66683aeec198b7015b10c65e43373b29f3364ee7fb705163768a80c6cc9dc5c40363b5c46ca7071c34e6ee68df2730884401ffccde1733ee86ded9d553d0c241a747a373702df7dd8b8b4b523ca2ea6b50fef2af0f5d03254c62faf37fc5a3ba56b36341049bee32fa781f21c4aec49a4a6a021f57f100801300aed9678eb2570dc6b96ab1e2a5e9a3742db1fbc876ee5025fef78b7f2b813747c9fb99ac6458500e85da64f043128df1ee0325fda45df94296433f1a3ce0ebdfee06300c9cbe28feba6019bd81177f6c046d4531c162f52de6bd5947ac8b571c75f7255c9e630fd110074efa7f557eb7b9506a7296bf819a5d233edfcc9601d68eb860a59902ae34b798e554743db6884cc88dc486394123a4c3624186ccc1c078a48104984c31d448165bca74294af3dd12d737351ebae2da1adca47a1dbd7c40a9a0cea68e62b08016ae167b593ade048d5419059e5fbd2cecaf6466e85dbc5c1ac90f4de1bf5b115b4709e45a52af803debad2a2d0ab6c00621487c97957e69823f316c6ddb30da695e4b81ca215f7b8e12b8efe99e678e537f55da843cd47b170868431c739b08a07ffc8871cda172082ac2ad6797f1da24db46965c313e867199e7ce4a61ad01e9617d5df6a2d9cd730a19d34d436b4e1be5ef2ef7cbdb301c42230a60a5283e37899d3ecd2e00616bc2c91342c6b031461b18df95b00d2d25cc64e48b4f4358e5149b41ae47327269fd9bda8f6e30a8d064d7eec1b4d38fa7d89e9c9b39c7849078fd7d6889baa5492588269af8bb2a13fd20f78c5f873c0481c3a4efa7301542b3a331580363dc7e4eb7029615fd524e6d164d2b2abe5e593f67713c9860a88aced37df88a4b2e85d4adb4bd8b43cb4aa7f9610bab6ef1ecc0a81e6fb57e7cfe9fbad05b5cd66dededd6251abd238cc9bf1f226d4990f8e702013bb5fd340e06e800df9cb944d61169cb8fa4bbcdd298f715d97c41a7fcee484320919a52c1820c22df2c21520463c0587f974a5d39d2da0219b35a8c6c9e23c8e2d43fac8d28dbcb5e5187a0ddb1d0a84da5a43ecfc966f2fd795974d6a8fc2d971bfc6c8b77e5d60c68ae709cf2622abacf874c96779d547132ab1d74855f346c4d5e0a9f2dffe34ea1076bf814b1d5fcb6e7af572c74ad1b88faa822e9bfcacb9141885e619d989d7776fe3a633ec3910afd01cfe03e365df80e9fc4e08771738b45949cede686f03b19d2c8841e1c987fa02edf287bfde3720be1b6650aceac5eae75d5bd8d193992ea71fde3c10ddeac0892d89852d07d6ad754fa0bb5cf6c767cfa1ed6376b12d63accbef4e307509b5ecc2f8e169b3b8c4fb01741bf074df8c8ae42a0b6e01a6725d4a8bcc78bb2b1824234d45f38154ba695bbd62ff2c05f6a130ee1e65f31c8d5a5ee1fff22f61e56f325abee7860b3ffb57ef48093ada44aece20b4f2adc3bc1722fd8b0faf14de4cc389b04eeda55709c180ec7b636dc98dc751f8b07b67994c749b3c9f75f4389b988efb606964b8fac0308d0aa02ae4d008e975e1d4abda0ffdd4bdde31e96340c70a6af64096f177596f61783428cdbc6bb7afc138ff622e6a1605a4fb12e875ae1932b43239d1140398bf98ad81704d240205ea5567d8d3d4a7f62805c4e77dea23ee6aa0deb932bf069a96052bc508deafcfdd6914e0f8608a7cd898bb6c9f7fd2928165d17da2d73b0321289e5423442816c882ac36962cf903e040358177b8cab6c61"/>
      <field name="data.len" showname="Length: 1460" size="0" pos="54" show="1460"/>
  </field>
</proto>
</packet>


<packet>
  <proto name="geninfo" pos="0" showname="General information" size="54">
    <field name="num" pos="0" show="9" showname="Number" value="9" size="54"/>
    <field name="len" pos="0" show="54" showname="Frame Length" value="36" size="54"/>
    <field name="caplen" pos="0" show="54" showname="Captured Length" value="36" size="54"/>
    <field name="timestamp" pos="0" show="Jun 27, 2019 12:20:59.172695000 CEST" showname="Captured Time" value="1561630859.172695000" size="54"/>
  </proto>
  <proto name="frame" showname="Frame 9: 54 bytes on wire (432 bits), 54 bytes captured (432 bits) on interface 0" size="54" pos="0">
    <field name="frame.interface_id" showname="Interface id: 0" size="0" pos="0" show="0"/>
    <field name="frame.encap_type" showname="Encapsulation type: Ethernet (1)" size="0" pos="0" show="1"/>
    <field name="frame.time" showname="Arrival Time: Jun 27, 2019 12:20:59.172695000 CEST" size="0" pos="0" show="&quot;Jun 27, 2019 12:20:59.172695000 CEST&quot;"/>
    <field name="frame.offset_shift" showname="Time shift for this packet: 0.000000000 seconds" size="0" pos="0" show="0.000000000"/>
    <field name="frame.time_epoch" showname="Epoch Time: 1561630859.172695000 seconds" size="0" pos="0" show="1561630859.172695000"/>
    <field name="frame.time_delta" showname="Time delta from previous captured frame: 0.000018000 seconds" size="0" pos="0" show="0.000018000"/>
    <field name="frame.time_delta_displayed" showname="Time delta from previous displayed frame: 0.000018000 seconds" size="0" pos="0" show="0.000018000"/>
    <field name="frame.time_relative" showname="Time since reference or first frame: 0.009751000 seconds" size="0" pos="0" show="0.009751000"/>
    <field name="frame.number" showname="Frame Number: 9" size="0" pos="0" show="9"/>
    <field name="frame.len" showname="Frame Length: 54 bytes (432 bits)" size="0" pos="0" show="54"/>
    <field name="frame.cap_len" showname="Capture Length: 54 bytes (432 bits)" size="0" pos="0" show="54"/>
    <field name="frame.marked" showname="Frame is marked: False" size="0" pos="0" show="0"/>
    <field name="frame.ignored" showname="Frame is ignored: False" size="0" pos="0" show="0"/>
    <field name="frame.protocols" showname="Protocols in frame: eth:ip:tcp" size="0" pos="0" show="eth:ip:tcp"/>
  </proto>
  <proto name="eth" showname="Ethernet II, Src: 02:42:ac:11:00:02 (02:42:ac:11:00:02), Dst: 02:42:71:12:56:af (02:42:71:12:56:af)" size="14" pos="0">
    <field name="eth.dst" showname="Destination: 02:42:71:12:56:af (02:42:71:12:56:af)" size="6" pos="0" show="02:42:71:12:56:af" value="0242711256af">
      <field name="eth.addr" showname="Address: 02:42:71:12:56:af (02:42:71:12:56:af)" size="6" pos="0" show="02:42:71:12:56:af" value="0242711256af"/>
      <field name="eth.lg" showname=".... ..1. .... .... .... .... = LG bit: Locally administered address (this is NOT the factory default)" size="3" pos="0" show="1" value="1" unmaskedvalue="024271"/>
      <field name="eth.ig" showname=".... ...0 .... .... .... .... = IG bit: Individual address (unicast)" size="3" pos="0" show="0" value="0" unmaskedvalue="024271"/>
    </field>
    <field name="eth.src" showname="Source: 02:42:ac:11:00:02 (02:42:ac:11:00:02)" size="6" pos="6" show="02:42:ac:11:00:02" value="0242ac110002">
      <field name="eth.addr" showname="Address: 02:42:ac:11:00:02 (02:42:ac:11:00:02)" size="6" pos="6" show="02:42:ac:11:00:02" value="0242ac110002"/>
      <field name="eth.lg" showname=".... ..1. .... .... .... .... = LG bit: Locally administered address (this is NOT the factory default)" size="3" pos="6" show="1" value="1" unmaskedvalue="0242ac"/>
      <field name="eth.ig" showname=".... ...0 .... .... .... .... = IG bit: Individual address (unicast)" size="3" pos="6" show="0" value="0" unmaskedvalue="0242ac"/>
    </field>
    <field name="eth.type" showname="Type: IP (0x0800)" size="2" pos="12" show="2048" value="0800"/>
  </proto>
  <proto name="ip" showname="Internet Protocol Version 4, Src: 172.17.0.2 (172.17.0.2), Dst: 1.1.1.1 (1.1.1.1)" size="20" pos="14">
    <field name="ip.version" showname="Version: 4" size="1" pos="14" show="4" value="45"/>
    <field name="ip.hdr_len" showname="Header length: 20 bytes" size="1" pos="14" show="20" value="45"/>
    <field name="ip.dsfield" showname="Differentiated Services Field: 0x00 (DSCP 0x00: Default; ECN: 0x00: Not-ECT (Not ECN-Capable Transport))" size="1" pos="15" show="0" value="00">
      <field name="ip.dsfield.dscp" showname="0000 00.. = Differentiated Services Codepoint: Default (0x00)" size="1" pos="15" show="0" value="0" unmaskedvalue="00"/>
      <field name="ip.dsfield.ecn" showname=".... ..00 = Explicit Congestion Notification: Not-ECT (Not ECN-Capable Transport) (0x00)" size="1" pos="15" show="0" value="0" unmaskedvalue="00"/>
    </field>
    <field name="ip.len" showname="Total Length: 40" size="2" pos="16" show="40" value="0028"/>
    <field name="ip.id" showname="Identification: 0x4248 (16968)" size="2" pos="18" show="16968" value="4248"/>
    <field name="ip.flags" showname="Flags: 0x02 (Don&apos;t Fragment)" size="1" pos="20" show="2" value="40">
      <field name="ip.flags.rb" showname="0... .... = Reserved bit: Not set" size="1" pos="20" show="0" value="40"/>
      <field name="ip.flags.df" showname=".1.. .... = Don&apos;t fragment: Set" size="1" pos="20" show="1" value="40"/>
      <field name="ip.flags.mf" showname="..0. .... = More fragments: Not set" size="1" pos="20" show="0" value="40"/>
    </field>
    <field name="ip.frag_offset" showname="Fragment offset: 0" size="2" pos="20" show="0" value="4000"/>
    <field name="ip.ttl" showname="Time to live: 64" size="1" pos="22" show="64" value="40"/>
    <field name="ip.proto" showname="Protocol: TCP (6)" size="1" pos="23" show="6" value="06"/>
    <field name="ip.checksum" showname="Header checksum: 0x4a73 [validation disabled]" size="2" pos="24" show="19059" value="4a73">
      <field name="ip.checksum_good" showname="Good: False" size="2" pos="24" show="0" value="4a73"/>
      <field name="ip.checksum_bad" showname="Bad: False" size="2" pos="24" show="0" value="4a73"/>
    </field>
    <field name="ip.src" showname="Source: 172.17.0.2 (172.17.0.2)" size="4" pos="26" show="172.17.0.2" value="ac110002"/>
    <field name="ip.addr" showname="Source or Destination Address: 172.17.0.2 (172.17.0.2)" hide="yes" size="4" pos="26" show="172.17.0.2" value="ac110002"/>
    <field name="ip.src_host" showname="Source Host: 172.17.0.2" hide="yes" size="4" pos="26" show="172.17.0.2" value="ac110002"/>
    <field name="ip.host" showname="Source or Destination Host: 172.17.0.2" hide="yes" size="4" pos="26" show="172.17.0.2" value="ac110002"/>
    <field name="ip.dst" showname="Destination: 1.1.1.1 (1.1.1.1)" size="4" pos="30" show="1.1.1.1" value="01010101"/>
    <field name="ip.addr" showname="Source or Destination Address: 1.1.1.1 (1.1.1.1)" hide="yes" size="4" pos="30" show="1.1.1.1" value="01010101"/>
    <field name="ip.dst_host" showname="Destination Host: 1.1.1.1" hide="yes" size="4" pos="30" show="1.1.1.1" value="01010101"/>
    <field name="ip.host" showname="Source or Destination Host: 1.1.1.1" hide="yes" size="4" pos="30" show="1.1.1.1" value="01010101"/>
  </proto>
  <proto name="tcp" showname="Transmission Control Protocol, Src Port: 59694 (59694), Dst Port: 853 (853), Seq: 338, Ack: 1595, Len: 0" size="20" pos="34">
    <field name="tcp.srcport" showname="Source port: 59694 (59694)" size="2" pos="34" show="59694" value="e92e"/>
    <field name="tcp.dstport" showname="Destination port: 853 (853)" size="2" pos="36" show="853" value="0355"/>
    <field name="tcp.port" showname="Source or Destination Port: 59694" hide="yes" size="2" pos="34" show="59694" value="e92e"/>
    <field name="tcp.port" showname="Source or Destination Port: 853" hide="yes" size="2" pos="36" show="853" value="0355"/>
    <field name="tcp.stream" showname="Stream index: 0" size="0" pos="34" show="0"/>
    <field name="tcp.len" showname="TCP Segment Len: 0" hide="yes" size="1" pos="46" show="0" value="50"/>
    <field name="tcp.seq" showname="Sequence number: 338    (relative sequence number)" size="4" pos="38" show="338" value="04a63448"/>
    <field name="tcp.ack" showname="Acknowledgment number: 1595    (relative ack number)" size="4" pos="42" show="1595" value="49805a16"/>
    <field name="tcp.hdr_len" showname="Header length: 20 bytes" size="1" pos="46" show="20" value="50"/>
    <field name="tcp.flags" showname="Flags: 0x010 (ACK)" size="2" pos="46" show="16" value="10" unmaskedvalue="5010">
      <field name="tcp.flags.res" showname="000. .... .... = Reserved: Not set" size="1" pos="46" show="0" value="0" unmaskedvalue="50"/>
      <field name="tcp.flags.ns" showname="...0 .... .... = Nonce: Not set" size="1" pos="46" show="0" value="0" unmaskedvalue="50"/>
      <field name="tcp.flags.cwr" showname=".... 0... .... = Congestion Window Reduced (CWR): Not set" size="1" pos="47" show="0" value="0" unmaskedvalue="10"/>
      <field name="tcp.flags.ecn" showname=".... .0.. .... = ECN-Echo: Not set" size="1" pos="47" show="0" value="0" unmaskedvalue="10"/>
      <field name="tcp.flags.urg" showname=".... ..0. .... = Urgent: Not set" size="1" pos="47" show="0" value="0" unmaskedvalue="10"/>
      <field name="tcp.flags.ack" showname=".... ...1 .... = Acknowledgment: Set" size="1" pos="47" show="1" value="1" unmaskedvalue="10"/>
      <field name="tcp.flags.push" showname=".... .... 0... = Push: Not set" size="1" pos="47" show="0" value="0" unmaskedvalue="10"/>
      <field name="tcp.flags.reset" showname=".... .... .0.. = Reset: Not set" size="1" pos="47" show="0" value="0" unmaskedvalue="10"/>
      <field name="tcp.flags.syn" showname=".... .... ..0. = Syn: Not set" size="1" pos="47" show="0" value="0" unmaskedvalue="10"/>
      <field name="tcp.flags.fin" showname=".... .... ...0 = Fin: Not set" size="1" pos="47" show="0" value="0" unmaskedvalue="10"/>
    </field>
    <field name="tcp.window_size_value" showname="Window size value: 260" size="2" pos="48" show="260" value="0104"/>
    <field name="tcp.window_size" showname="Calculated window size: 33280" size="2" pos="48" show="33280" value="0104"/>
    <field name="tcp.window_size_scalefactor" showname="Window size scaling factor: 128" size="2" pos="48" show="128" value="0104"/>
    <field name="tcp.checksum" showname="Checksum: 0xae2f [validation disabled]" size="2" pos="50" show="44591" value="ae2f">
      <field name="tcp.checksum_good" showname="Good Checksum: False" size="2" pos="50" show="0" value="ae2f"/>
      <field name="tcp.checksum_bad" showname="Bad Checksum: False" size="2" pos="50" show="0" value="ae2f"/>
    </field>
    <field name="tcp.analysis" showname="SEQ/ACK analysis" size="0" pos="34" show="" value="">
      <field name="tcp.analysis.acks_frame" showname="This is an ACK to the segment in frame: 8" size="0" pos="34" show="8"/>
      <field name="tcp.analysis.ack_rtt" showname="The RTT to ACK the segment was: 0.000018000 seconds" size="0" pos="34" show="0.000018000"/>
    </field>
  </proto>
</packet>


<packet>
  <proto name="geninfo" pos="0" showname="General information" size="1268">
    <field name="num" pos="0" show="10" showname="Number" value="a" size="1268"/>
    <field name="len" pos="0" show="1268" showname="Frame Length" value="4f4" size="1268"/>
    <field name="caplen" pos="0" show="1268" showname="Captured Length" value="4f4" size="1268"/>
    <field name="timestamp" pos="0" show="Jun 27, 2019 12:20:59.172728000 CEST" showname="Captured Time" value="1561630859.172728000" size="1268"/>
  </proto>
  <proto name="frame" showname="Frame 10: 1268 bytes on wire (10144 bits), 1268 bytes captured (10144 bits) on interface 0" size="1268" pos="0">
    <field name="frame.interface_id" showname="Interface id: 0" size="0" pos="0" show="0"/>
    <field name="frame.encap_type" showname="Encapsulation type: Ethernet (1)" size="0" pos="0" show="1"/>
    <field name="frame.time" showname="Arrival Time: Jun 27, 2019 12:20:59.172728000 CEST" size="0" pos="0" show="&quot;Jun 27, 2019 12:20:59.172728000 CEST&quot;"/>
    <field name="frame.offset_shift" showname="Time shift for this packet: 0.000000000 seconds" size="0" pos="0" show="0.000000000"/>
    <field name="frame.time_epoch" showname="Epoch Time: 1561630859.172728000 seconds" size="0" pos="0" show="1561630859.172728000"/>
    <field name="frame.time_delta" showname="Time delta from previous captured frame: 0.000033000 seconds" size="0" pos="0" show="0.000033000"/>
    <field name="frame.time_delta_displayed" showname="Time delta from previous displayed frame: 0.000033000 seconds" size="0" pos="0" show="0.000033000"/>
    <field name="frame.time_relative" showname="Time since reference or first frame: 0.009784000 seconds" size="0" pos="0" show="0.009784000"/>
    <field name="frame.number" showname="Frame Number: 10" size="0" pos="0" show="10"/>
    <field name="frame.len" showname="Frame Length: 1268 bytes (10144 bits)" size="0" pos="0" show="1268"/>
    <field name="frame.cap_len" showname="Capture Length: 1268 bytes (10144 bits)" size="0" pos="0" show="1268"/>
    <field name="frame.marked" showname="Frame is marked: False" size="0" pos="0" show="0"/>
    <field name="frame.ignored" showname="Frame is ignored: False" size="0" pos="0" show="0"/>
    <field name="frame.protocols" showname="Protocols in frame: eth:ip:tcp:data" size="0" pos="0" show="eth:ip:tcp:data"/>
  </proto>
  <proto name="eth" showname="Ethernet II, Src: 02:42:71:12:56:af (02:42:71:12:56:af), Dst: 02:42:ac:11:00:02 (02:42:ac:11:00:02)" size="14" pos="0">
    <field name="eth.dst" showname="Destination: 02:42:ac:11:00:02 (02:42:ac:11:00:02)" size="6" pos="0" show="02:42:ac:11:00:02" value="0242ac110002">
      <field name="eth.addr" showname="Address: 02:42:ac:11:00:02 (02:42:ac:11:00:02)" size="6" pos="0" show="02:42:ac:11:00:02" value="0242ac110002"/>
      <field name="eth.lg" showname=".... ..1. .... .... .... .... = LG bit: Locally administered address (this is NOT the factory default)" size="3" pos="0" show="1" value="1" unmaskedvalue="0242ac"/>
      <field name="eth.ig" showname=".... ...0 .... .... .... .... = IG bit: Individual address (unicast)" size="3" pos="0" show="0" value="0" unmaskedvalue="0242ac"/>
    </field>
    <field name="eth.src" showname="Source: 02:42:71:12:56:af (02:42:71:12:56:af)" size="6" pos="6" show="02:42:71:12:56:af" value="0242711256af">
      <field name="eth.addr" showname="Address: 02:42:71:12:56:af (02:42:71:12:56:af)" size="6" pos="6" show="02:42:71:12:56:af" value="0242711256af"/>
      <field name="eth.lg" showname=".... ..1. .... .... .... .... = LG bit: Locally administered address (this is NOT the factory default)" size="3" pos="6" show="1" value="1" unmaskedvalue="024271"/>
      <field name="eth.ig" showname=".... ...0 .... .... .... .... = IG bit: Individual address (unicast)" size="3" pos="6" show="0" value="0" unmaskedvalue="024271"/>
    </field>
    <field name="eth.type" showname="Type: IP (0x0800)" size="2" pos="12" show="2048" value="0800"/>
  </proto>
  <proto name="ip" showname="Internet Protocol Version 4, Src: 1.1.1.1 (1.1.1.1), Dst: 172.17.0.2 (172.17.0.2)" size="20" pos="14">
    <field name="ip.version" showname="Version: 4" size="1" pos="14" show="4" value="45"/>
    <field name="ip.hdr_len" showname="Header length: 20 bytes" size="1" pos="14" show="20" value="45"/>
    <field name="ip.dsfield" showname="Differentiated Services Field: 0x00 (DSCP 0x00: Default; ECN: 0x00: Not-ECT (Not ECN-Capable Transport))" size="1" pos="15" show="0" value="00">
      <field name="ip.dsfield.dscp" showname="0000 00.. = Differentiated Services Codepoint: Default (0x00)" size="1" pos="15" show="0" value="0" unmaskedvalue="00"/>
      <field name="ip.dsfield.ecn" showname=".... ..00 = Explicit Congestion Notification: Not-ECT (Not ECN-Capable Transport) (0x00)" size="1" pos="15" show="0" value="0" unmaskedvalue="00"/>
    </field>
    <field name="ip.len" showname="Total Length: 1254" size="2" pos="16" show="1254" value="04e6"/>
    <field name="ip.id" showname="Identification: 0x05ab (1451)" size="2" pos="18" show="1451" value="05ab"/>
    <field name="ip.flags" showname="Flags: 0x02 (Don&apos;t Fragment)" size="1" pos="20" show="2" value="40">
      <field name="ip.flags.rb" showname="0... .... = Reserved bit: Not set" size="1" pos="20" show="0" value="40"/>
      <field name="ip.flags.df" showname=".1.. .... = Don&apos;t fragment: Set" size="1" pos="20" show="1" value="40"/>
      <field name="ip.flags.mf" showname="..0. .... = More fragments: Not set" size="1" pos="20" show="0" value="40"/>
    </field>
    <field name="ip.frag_offset" showname="Fragment offset: 0" size="2" pos="20" show="0" value="4000"/>
    <field name="ip.ttl" showname="Time to live: 57" size="1" pos="22" show="57" value="39"/>
    <field name="ip.proto" showname="Protocol: TCP (6)" size="1" pos="23" show="6" value="06"/>
    <field name="ip.checksum" showname="Header checksum: 0x8952 [validation disabled]" size="2" pos="24" show="35154" value="8952">
      <field name="ip.checksum_good" showname="Good: False" size="2" pos="24" show="0" value="8952"/>
      <field name="ip.checksum_bad" showname="Bad: False" size="2" pos="24" show="0" value="8952"/>
    </field>
    <field name="ip.src" showname="Source: 1.1.1.1 (1.1.1.1)" size="4" pos="26" show="1.1.1.1" value="01010101"/>
    <field name="ip.addr" showname="Source or Destination Address: 1.1.1.1 (1.1.1.1)" hide="yes" size="4" pos="26" show="1.1.1.1" value="01010101"/>
    <field name="ip.src_host" showname="Source Host: 1.1.1.1" hide="yes" size="4" pos="26" show="1.1.1.1" value="01010101"/>
    <field name="ip.host" showname="Source or Destination Host: 1.1.1.1" hide="yes" size="4" pos="26" show="1.1.1.1" value="01010101"/>
    <field name="ip.dst" showname="Destination: 172.17.0.2 (172.17.0.2)" size="4" pos="30" show="172.17.0.2" value="ac110002"/>
    <field name="ip.addr" showname="Source or Destination Address: 172.17.0.2 (172.17.0.2)" hide="yes" size="4" pos="30" show="172.17.0.2" value="ac110002"/>
    <field name="ip.dst_host" showname="Destination Host: 172.17.0.2" hide="yes" size="4" pos="30" show="172.17.0.2" value="ac110002"/>
    <field name="ip.host" showname="Source or Destination Host: 172.17.0.2" hide="yes" size="4" pos="30" show="172.17.0.2" value="ac110002"/>
  </proto>
  <proto name="tcp" showname="Transmission Control Protocol, Src Port: 853 (853), Dst Port: 59694 (59694), Seq: 1595, Ack: 338, Len: 1214" size="20" pos="34">
    <field name="tcp.srcport" showname="Source port: 853 (853)" size="2" pos="34" show="853" value="0355"/>
    <field name="tcp.dstport" showname="Destination port: 59694 (59694)" size="2" pos="36" show="59694" value="e92e"/>
    <field name="tcp.port" showname="Source or Destination Port: 853" hide="yes" size="2" pos="34" show="853" value="0355"/>
    <field name="tcp.port" showname="Source or Destination Port: 59694" hide="yes" size="2" pos="36" show="59694" value="e92e"/>
    <field name="tcp.stream" showname="Stream index: 0" size="0" pos="34" show="0"/>
    <field name="tcp.len" showname="TCP Segment Len: 1214" hide="yes" size="1" pos="46" show="1214" value="50"/>
    <field name="tcp.seq" showname="Sequence number: 1595    (relative sequence number)" size="4" pos="38" show="1595" value="49805a16"/>
    <field name="tcp.nxtseq" showname="Next sequence number: 2809    (relative sequence number)" size="0" pos="34" show="2809"/>
    <field name="tcp.ack" showname="Acknowledgment number: 338    (relative ack number)" size="4" pos="42" show="338" value="04a63448"/>
    <field name="tcp.hdr_len" showname="Header length: 20 bytes" size="1" pos="46" show="20" value="50"/>
    <field name="tcp.flags" showname="Flags: 0x018 (PSH, ACK)" size="2" pos="46" show="24" value="18" unmaskedvalue="5018">
      <field name="tcp.flags.res" showname="000. .... .... = Reserved: Not set" size="1" pos="46" show="0" value="0" unmaskedvalue="50"/>
      <field name="tcp.flags.ns" showname="...0 .... .... = Nonce: Not set" size="1" pos="46" show="0" value="0" unmaskedvalue="50"/>
      <field name="tcp.flags.cwr" showname=".... 0... .... = Congestion Window Reduced (CWR): Not set" size="1" pos="47" show="0" value="0" unmaskedvalue="18"/>
      <field name="tcp.flags.ecn" showname=".... .0.. .... = ECN-Echo: Not set" size="1" pos="47" show="0" value="0" unmaskedvalue="18"/>
      <field name="tcp.flags.urg" showname=".... ..0. .... = Urgent: Not set" size="1" pos="47" show="0" value="0" unmaskedvalue="18"/>
      <field name="tcp.flags.ack" showname=".... ...1 .... = Acknowledgment: Set" size="1" pos="47" show="1" value="1" unmaskedvalue="18"/>
      <field name="tcp.flags.push" showname=".... .... 1... = Push: Set" size="1" pos="47" show="1" value="1" unmaskedvalue="18"/>
      <field name="tcp.flags.reset" showname=".... .... .0.. = Reset: Not set" size="1" pos="47" show="0" value="0" unmaskedvalue="18"/>
      <field name="tcp.flags.syn" showname=".... .... ..0. = Syn: Not set" size="1" pos="47" show="0" value="0" unmaskedvalue="18"/>
      <field name="tcp.flags.fin" showname=".... .... ...0 = Fin: Not set" size="1" pos="47" show="0" value="0" unmaskedvalue="18"/>
    </field>
    <field name="tcp.window_size_value" showname="Window size value: 30" size="2" pos="48" show="30" value="001e"/>
    <field name="tcp.window_size" showname="Calculated window size: 30720" size="2" pos="48" show="30720" value="001e"/>
    <field name="tcp.window_size_scalefactor" showname="Window size scaling factor: 1024" size="2" pos="48" show="1024" value="001e"/>
    <field name="tcp.checksum" showname="Checksum: 0x89f5 [validation disabled]" size="2" pos="50" show="35317" value="89f5">
      <field name="tcp.checksum_good" showname="Good Checksum: False" size="2" pos="50" show="0" value="89f5"/>
      <field name="tcp.checksum_bad" showname="Bad Checksum: False" size="2" pos="50" show="0" value="89f5"/>
    </field>
    <field name="tcp.analysis" showname="SEQ/ACK analysis" size="0" pos="34" show="" value="">
      <field name="tcp.analysis.bytes_in_flight" showname="Bytes in flight: 1214" size="0" pos="34" show="1214"/>
    </field>
  </proto>
  <proto name="fake-field-wrapper">
    <field name="data" value="da0ced858704f25b74084ece9c2be78029ffe854733c70825e8ac578154de051482675530261bd9542a41c52051d827346f041cf9c0384c6aa3cb67ca97d3175d97d45fd57e24d42f3c15a8dfc03d122bdcf6e5c7c1e1b86631ebf224070cc19f2cc849c2d0cf2654866e583fb5bfa47b85030154f5d476cfa696855164e0a5ce13b12f70e1cd55492b5a93dd4c9023f0b54ddf97543b8e04e54ca8f254feb66d1bb67378569fd68b142146db17592a9b376c021635ab1845c421967b0d8a94e842e90e8190be8c1bf27f8493a1e6248129afe0808870db913be6493329db23f4c0bffc2834799144d33595b6d539304bb25311b653b85c0e099ed727519d8d5f91968e5d73d1c91e5505196645d2aeb848ab1df09f856cb854d33ba77061381557688d18e26031a9df55ac731e4ab7dd1b82496b3f5e4678ffd59c93859042875890203d690024603dd39b5c3b93d95ad7743de85723917b91a32965b51b38a43b7b0fb9a961d62281e5b68bf3d14889ebca221157b53f300669d87e0e391b9cc5cebeecd47a19e1b165aefd40b61cfd91962b8e44513f084caf06f72684f4e2783418d6d9a136cbbbc859bcb5e4ce3ed0dea5384de094d04a62f654e042fb8de3d7d8ca0266a178ae9e80054ed882a273ae1c34c608578001dc4f70c0dad588857361494a27d1a33ecef5eec822a4558fbc6e9c0b10f3479e3f35fd85186148233db8f05b0090b8bfc1abfff5b1cdf09bbb0afe3cdf220ff48b39fb902e7667b836000406f4dc52082c63bc747f125c1b820af11a81f43b18004f14c6a45be43836b00f783cec29ffbaa2929109f65ee34f14617e4179a9f420dd2acac0365e5bcbae717cf7a5a0f5a479f2eaef39208cb83a5b58a3cadacd01412cbd0d71c0eb305453d2f3e5db6b58d72bbc913b970f88cba20090d3a40b029b9041a51b12f2e90079c48e8860c0a2261816d099c3061334399adb94afd6d5eb403212133c3eb625d52702d509a96cb46923bb8dea0d01ffc6143b53d3b416b2da8ba017aec3c6aec284366678aecc855713db29438692517670e88f0af6ac7a5da24c15d4e21c66c16c5766052aa7379ce3978f317ae6f6974202766357952fcec6fd445dc702af4ac2619f3526add61d6a740ca928bb570d196c7c306981743f11b4f70c8704916da9598dc57277a76c86b8f904a1f14f3b0d2c3d68204140612b04c79a7cc4356ee5b8d9ecd25befdc30c2ad9b90cdae1a27f9c211c2b78298873302bbc48fec475ab2d2e1fcc57505223ea4f90b4a7d37a7e6b17059911c132a354d4fb7ed0d4db1c0961b754e554b5cf5418e8806ebbf943224726f104fa91d298eae93213f0ad4f320807315ba28a65bef11ac742ac02ffa62c7daf7980a9bdccdabed63386e94feba11a69df5ffd2a3b85a660fb93cbcd7654f1a6d789d30b8f5456c7f1b9437d59a2fb94385fdd9b2da9170303005f0e5abcae4e6e96ee8488c92af79b90ff98a44cc14bf55d480d627fe251254b7b7e2a3d4a0842f36055a431eaa21d3ac5745f3690d13a78a24018dfe2928f83ce0243ef6fe0a463e254b37d1622ae0e645d72cfb5771e006f90f74dbfabdbd4170303004582c42265fed2e3749be5f1eafe7389e4896db9d357985882b115a20b27c60385a518792eda7374d19955351ba858c84e0f6267d4b21ccc79af650a2e62ddf97f288b443763">
      <field name="data.data" showname="Data: da0ced858704f25b74084ece9c2be78029ffe854733c7082..." size="1214" pos="54" show="da:0c:ed:85:87:04:f2:5b:74:08:4e:ce:9c:2b:e7:80:29:ff:e8:54:73:3c:70:82:5e:8a:c5:78:15:4d:e0:51:48:26:75:53:02:61:bd:95:42:a4:1c:52:05:1d:82:73:46:f0:41:cf:9c:03:84:c6:aa:3c:b6:7c:a9:7d:31:75:d9:7d:45:fd:57:e2:4d:42:f3:c1:5a:8d:fc:03:d1:22:bd:cf:6e:5c:7c:1e:1b:86:63:1e:bf:22:40:70:cc:19:f2:cc:84:9c:2d:0c:f2:65:48:66:e5:83:fb:5b:fa:47:b8:50:30:15:4f:5d:47:6c:fa:69:68:55:16:4e:0a:5c:e1:3b:12:f7:0e:1c:d5:54:92:b5:a9:3d:d4:c9:02:3f:0b:54:dd:f9:75:43:b8:e0:4e:54:ca:8f:25:4f:eb:66:d1:bb:67:37:85:69:fd:68:b1:42:14:6d:b1:75:92:a9:b3:76:c0:21:63:5a:b1:84:5c:42:19:67:b0:d8:a9:4e:84:2e:90:e8:19:0b:e8:c1:bf:27:f8:49:3a:1e:62:48:12:9a:fe:08:08:87:0d:b9:13:be:64:93:32:9d:b2:3f:4c:0b:ff:c2:83:47:99:14:4d:33:59:5b:6d:53:93:04:bb:25:31:1b:65:3b:85:c0:e0:99:ed:72:75:19:d8:d5:f9:19:68:e5:d7:3d:1c:91:e5:50:51:96:64:5d:2a:eb:84:8a:b1:df:09:f8:56:cb:85:4d:33:ba:77:06:13:81:55:76:88:d1:8e:26:03:1a:9d:f5:5a:c7:31:e4:ab:7d:d1:b8:24:96:b3:f5:e4:67:8f:fd:59:c9:38:59:04:28:75:89:02:03:d6:90:02:46:03:dd:39:b5:c3:b9:3d:95:ad:77:43:de:85:72:39:17:b9:1a:32:96:5b:51:b3:8a:43:b7:b0:fb:9a:96:1d:62:28:1e:5b:68:bf:3d:14:88:9e:bc:a2:21:15:7b:53:f3:00:66:9d:87:e0:e3:91:b9:cc:5c:eb:ee:cd:47:a1:9e:1b:16:5a:ef:d4:0b:61:cf:d9:19:62:b8:e4:45:13:f0:84:ca:f0:6f:72:68:4f:4e:27:83:41:8d:6d:9a:13:6c:bb:bc:85:9b:cb:5e:4c:e3:ed:0d:ea:53:84:de:09:4d:04:a6:2f:65:4e:04:2f:b8:de:3d:7d:8c:a0:26:6a:17:8a:e9:e8:00:54:ed:88:2a:27:3a:e1:c3:4c:60:85:78:00:1d:c4:f7:0c:0d:ad:58:88:57:36:14:94:a2:7d:1a:33:ec:ef:5e:ec:82:2a:45:58:fb:c6:e9:c0:b1:0f:34:79:e3:f3:5f:d8:51:86:14:82:33:db:8f:05:b0:09:0b:8b:fc:1a:bf:ff:5b:1c:df:09:bb:b0:af:e3:cd:f2:20:ff:48:b3:9f:b9:02:e7:66:7b:83:60:00:40:6f:4d:c5:20:82:c6:3b:c7:47:f1:25:c1:b8:20:af:11:a8:1f:43:b1:80:04:f1:4c:6a:45:be:43:83:6b:00:f7:83:ce:c2:9f:fb:aa:29:29:10:9f:65:ee:34:f1:46:17:e4:17:9a:9f:42:0d:d2:ac:ac:03:65:e5:bc:ba:e7:17:cf:7a:5a:0f:5a:47:9f:2e:ae:f3:92:08:cb:83:a5:b5:8a:3c:ad:ac:d0:14:12:cb:d0:d7:1c:0e:b3:05:45:3d:2f:3e:5d:b6:b5:8d:72:bb:c9:13:b9:70:f8:8c:ba:20:09:0d:3a:40:b0:29:b9:04:1a:51:b1:2f:2e:90:07:9c:48:e8:86:0c:0a:22:61:81:6d:09:9c:30:61:33:43:99:ad:b9:4a:fd:6d:5e:b4:03:21:21:33:c3:eb:62:5d:52:70:2d:50:9a:96:cb:46:92:3b:b8:de:a0:d0:1f:fc:61:43:b5:3d:3b:41:6b:2d:a8:ba:01:7a:ec:3c:6a:ec:28:43:66:67:8a:ec:c8:55:71:3d:b2:94:38:69:25:17:67:0e:88:f0:af:6a:c7:a5:da:24:c1:5d:4e:21:c6:6c:16:c5:76:60:52:aa:73:79:ce:39:78:f3:17:ae:6f:69:74:20:27:66:35:79:52:fc:ec:6f:d4:45:dc:70:2a:f4:ac:26:19:f3:52:6a:dd:61:d6:a7:40:ca:92:8b:b5:70:d1:96:c7:c3:06:98:17:43:f1:1b:4f:70:c8:70:49:16:da:95:98:dc:57:27:7a:76:c8:6b:8f:90:4a:1f:14:f3:b0:d2:c3:d6:82:04:14:06:12:b0:4c:79:a7:cc:43:56:ee:5b:8d:9e:cd:25:be:fd:c3:0c:2a:d9:b9:0c:da:e1:a2:7f:9c:21:1c:2b:78:29:88:73:30:2b:bc:48:fe:c4:75:ab:2d:2e:1f:cc:57:50:52:23:ea:4f:90:b4:a7:d3:7a:7e:6b:17:05:99:11:c1:32:a3:54:d4:fb:7e:d0:d4:db:1c:09:61:b7:54:e5:54:b5:cf:54:18:e8:80:6e:bb:f9:43:22:47:26:f1:04:fa:91:d2:98:ea:e9:32:13:f0:ad:4f:32:08:07:31:5b:a2:8a:65:be:f1:1a:c7:42:ac:02:ff:a6:2c:7d:af:79:80:a9:bd:cc:da:be:d6:33:86:e9:4f:eb:a1:1a:69:df:5f:fd:2a:3b:85:a6:60:fb:93:cb:cd:76:54:f1:a6:d7:89:d3:0b:8f:54:56:c7:f1:b9:43:7d:59:a2:fb:94:38:5f:dd:9b:2d:a9:17:03:03:00:5f:0e:5a:bc:ae:4e:6e:96:ee:84:88:c9:2a:f7:9b:90:ff:98:a4:4c:c1:4b:f5:5d:48:0d:62:7f:e2:51:25:4b:7b:7e:2a:3d:4a:08:42:f3:60:55:a4:31:ea:a2:1d:3a:c5:74:5f:36:90:d1:3a:78:a2:40:18:df:e2:92:8f:83:ce:02:43:ef:6f:e0:a4:63:e2:54:b3:7d:16:22:ae:0e:64:5d:72:cf:b5:77:1e:00:6f:90:f7:4d:bf:ab:db:d4:17:03:03:00:45:82:c4:22:65:fe:d2:e3:74:9b:e5:f1:ea:fe:73:89:e4:89:6d:b9:d3:57:98:58:82:b1:15:a2:0b:27:c6:03:85:a5:18:79:2e:da:73:74:d1:99:55:35:1b:a8:58:c8:4e:0f:62:67:d4:b2:1c:cc:79:af:65:0a:2e:62:dd:f9:7f:28:8b:44:37:63" value="da0ced858704f25b74084ece9c2be78029ffe854733c70825e8ac578154de051482675530261bd9542a41c52051d827346f041cf9c0384c6aa3cb67ca97d3175d97d45fd57e24d42f3c15a8dfc03d122bdcf6e5c7c1e1b86631ebf224070cc19f2cc849c2d0cf2654866e583fb5bfa47b85030154f5d476cfa696855164e0a5ce13b12f70e1cd55492b5a93dd4c9023f0b54ddf97543b8e04e54ca8f254feb66d1bb67378569fd68b142146db17592a9b376c021635ab1845c421967b0d8a94e842e90e8190be8c1bf27f8493a1e6248129afe0808870db913be6493329db23f4c0bffc2834799144d33595b6d539304bb25311b653b85c0e099ed727519d8d5f91968e5d73d1c91e5505196645d2aeb848ab1df09f856cb854d33ba77061381557688d18e26031a9df55ac731e4ab7dd1b82496b3f5e4678ffd59c93859042875890203d690024603dd39b5c3b93d95ad7743de85723917b91a32965b51b38a43b7b0fb9a961d62281e5b68bf3d14889ebca221157b53f300669d87e0e391b9cc5cebeecd47a19e1b165aefd40b61cfd91962b8e44513f084caf06f72684f4e2783418d6d9a136cbbbc859bcb5e4ce3ed0dea5384de094d04a62f654e042fb8de3d7d8ca0266a178ae9e80054ed882a273ae1c34c608578001dc4f70c0dad588857361494a27d1a33ecef5eec822a4558fbc6e9c0b10f3479e3f35fd85186148233db8f05b0090b8bfc1abfff5b1cdf09bbb0afe3cdf220ff48b39fb902e7667b836000406f4dc52082c63bc747f125c1b820af11a81f43b18004f14c6a45be43836b00f783cec29ffbaa2929109f65ee34f14617e4179a9f420dd2acac0365e5bcbae717cf7a5a0f5a479f2eaef39208cb83a5b58a3cadacd01412cbd0d71c0eb305453d2f3e5db6b58d72bbc913b970f88cba20090d3a40b029b9041a51b12f2e90079c48e8860c0a2261816d099c3061334399adb94afd6d5eb403212133c3eb625d52702d509a96cb46923bb8dea0d01ffc6143b53d3b416b2da8ba017aec3c6aec284366678aecc855713db29438692517670e88f0af6ac7a5da24c15d4e21c66c16c5766052aa7379ce3978f317ae6f6974202766357952fcec6fd445dc702af4ac2619f3526add61d6a740ca928bb570d196c7c306981743f11b4f70c8704916da9598dc57277a76c86b8f904a1f14f3b0d2c3d68204140612b04c79a7cc4356ee5b8d9ecd25befdc30c2ad9b90cdae1a27f9c211c2b78298873302bbc48fec475ab2d2e1fcc57505223ea4f90b4a7d37a7e6b17059911c132a354d4fb7ed0d4db1c0961b754e554b5cf5418e8806ebbf943224726f104fa91d298eae93213f0ad4f320807315ba28a65bef11ac742ac02ffa62c7daf7980a9bdccdabed63386e94feba11a69df5ffd2a3b85a660fb93cbcd7654f1a6d789d30b8f5456c7f1b9437d59a2fb94385fdd9b2da9170303005f0e5abcae4e6e96ee8488c92af79b90ff98a44cc14bf55d480d627fe251254b7b7e2a3d4a0842f36055a431eaa21d3ac5745f3690d13a78a24018dfe2928f83ce0243ef6fe0a463e254b37d1622ae0e645d72cfb5771e006f90f74dbfabdbd4170303004582c42265fed2e3749be5f1eafe7389e4896db9d357985882b115a20b27c60385a518792eda7374d19955351ba858c84e0f6267d4b21ccc79af650a2e62ddf97f288b443763"/>
      <field name="data.len" showname="Length: 1214" size="0" pos="54" show="1214"/>
  </field>
</proto>
</packet>


<packet>
  <proto name="geninfo" pos="0" showname="General information" size="54">
    <field name="num" pos="0" show="11" showname="Number" value="b" size="54"/>
    <field name="len" pos="0" show="54" showname="Frame Length" value="36" size="54"/>
    <field name="caplen" pos="0" show="54" showname="Captured Length" value="36" size="54"/>
    <field name="timestamp" pos="0" show="Jun 27, 2019 12:20:59.172741000 CEST" showname="Captured Time" value="1561630859.172741000" size="54"/>
  </proto>
  <proto name="frame" showname="Frame 11: 54 bytes on wire (432 bits), 54 bytes captured (432 bits) on interface 0" size="54" pos="0">
    <field name="frame.interface_id" showname="Interface id: 0" size="0" pos="0" show="0"/>
    <field name="frame.encap_type" showname="Encapsulation type: Ethernet (1)" size="0" pos="0" show="1"/>
    <field name="frame.time" showname="Arrival Time: Jun 27, 2019 12:20:59.172741000 CEST" size="0" pos="0" show="&quot;Jun 27, 2019 12:20:59.172741000 CEST&quot;"/>
    <field name="frame.offset_shift" showname="Time shift for this packet: 0.000000000 seconds" size="0" pos="0" show="0.000000000"/>
    <field name="frame.time_epoch" showname="Epoch Time: 1561630859.172741000 seconds" size="0" pos="0" show="1561630859.172741000"/>
    <field name="frame.time_delta" showname="Time delta from previous captured frame: 0.000013000 seconds" size="0" pos="0" show="0.000013000"/>
    <field name="frame.time_delta_displayed" showname="Time delta from previous displayed frame: 0.000013000 seconds" size="0" pos="0" show="0.000013000"/>
    <field name="frame.time_relative" showname="Time since reference or first frame: 0.009797000 seconds" size="0" pos="0" show="0.009797000"/>
    <field name="frame.number" showname="Frame Number: 11" size="0" pos="0" show="11"/>
    <field name="frame.len" showname="Frame Length: 54 bytes (432 bits)" size="0" pos="0" show="54"/>
    <field name="frame.cap_len" showname="Capture Length: 54 bytes (432 bits)" size="0" pos="0" show="54"/>
    <field name="frame.marked" showname="Frame is marked: False" size="0" pos="0" show="0"/>
    <field name="frame.ignored" showname="Frame is ignored: False" size="0" pos="0" show="0"/>
    <field name="frame.protocols" showname="Protocols in frame: eth:ip:tcp" size="0" pos="0" show="eth:ip:tcp"/>
  </proto>
  <proto name="eth" showname="Ethernet II, Src: 02:42:ac:11:00:02 (02:42:ac:11:00:02), Dst: 02:42:71:12:56:af (02:42:71:12:56:af)" size="14" pos="0">
    <field name="eth.dst" showname="Destination: 02:42:71:12:56:af (02:42:71:12:56:af)" size="6" pos="0" show="02:42:71:12:56:af" value="0242711256af">
      <field name="eth.addr" showname="Address: 02:42:71:12:56:af (02:42:71:12:56:af)" size="6" pos="0" show="02:42:71:12:56:af" value="0242711256af"/>
      <field name="eth.lg" showname=".... ..1. .... .... .... .... = LG bit: Locally administered address (this is NOT the factory default)" size="3" pos="0" show="1" value="1" unmaskedvalue="024271"/>
      <field name="eth.ig" showname=".... ...0 .... .... .... .... = IG bit: Individual address (unicast)" size="3" pos="0" show="0" value="0" unmaskedvalue="024271"/>
    </field>
    <field name="eth.src" showname="Source: 02:42:ac:11:00:02 (02:42:ac:11:00:02)" size="6" pos="6" show="02:42:ac:11:00:02" value="0242ac110002">
      <field name="eth.addr" showname="Address: 02:42:ac:11:00:02 (02:42:ac:11:00:02)" size="6" pos="6" show="02:42:ac:11:00:02" value="0242ac110002"/>
      <field name="eth.lg" showname=".... ..1. .... .... .... .... = LG bit: Locally administered address (this is NOT the factory default)" size="3" pos="6" show="1" value="1" unmaskedvalue="0242ac"/>
      <field name="eth.ig" showname=".... ...0 .... .... .... .... = IG bit: Individual address (unicast)" size="3" pos="6" show="0" value="0" unmaskedvalue="0242ac"/>
    </field>
    <field name="eth.type" showname="Type: IP (0x0800)" size="2" pos="12" show="2048" value="0800"/>
  </proto>
  <proto name="ip" showname="Internet Protocol Version 4, Src: 172.17.0.2 (172.17.0.2), Dst: 1.1.1.1 (1.1.1.1)" size="20" pos="14">
    <field name="ip.version" showname="Version: 4" size="1" pos="14" show="4" value="45"/>
    <field name="ip.hdr_len" showname="Header length: 20 bytes" size="1" pos="14" show="20" value="45"/>
    <field name="ip.dsfield" showname="Differentiated Services Field: 0x00 (DSCP 0x00: Default; ECN: 0x00: Not-ECT (Not ECN-Capable Transport))" size="1" pos="15" show="0" value="00">
      <field name="ip.dsfield.dscp" showname="0000 00.. = Differentiated Services Codepoint: Default (0x00)" size="1" pos="15" show="0" value="0" unmaskedvalue="00"/>
      <field name="ip.dsfield.ecn" showname=".... ..00 = Explicit Congestion Notification: Not-ECT (Not ECN-Capable Transport) (0x00)" size="1" pos="15" show="0" value="0" unmaskedvalue="00"/>
    </field>
    <field name="ip.len" showname="Total Length: 40" size="2" pos="16" show="40" value="0028"/>
    <field name="ip.id" showname="Identification: 0x4249 (16969)" size="2" pos="18" show="16969" value="4249"/>
    <field name="ip.flags" showname="Flags: 0x02 (Don&apos;t Fragment)" size="1" pos="20" show="2" value="40">
      <field name="ip.flags.rb" showname="0... .... = Reserved bit: Not set" size="1" pos="20" show="0" value="40"/>
      <field name="ip.flags.df" showname=".1.. .... = Don&apos;t fragment: Set" size="1" pos="20" show="1" value="40"/>
      <field name="ip.flags.mf" showname="..0. .... = More fragments: Not set" size="1" pos="20" show="0" value="40"/>
    </field>
    <field name="ip.frag_offset" showname="Fragment offset: 0" size="2" pos="20" show="0" value="4000"/>
    <field name="ip.ttl" showname="Time to live: 64" size="1" pos="22" show="64" value="40"/>
    <field name="ip.proto" showname="Protocol: TCP (6)" size="1" pos="23" show="6" value="06"/>
    <field name="ip.checksum" showname="Header checksum: 0x4a72 [validation disabled]" size="2" pos="24" show="19058" value="4a72">
      <field name="ip.checksum_good" showname="Good: False" size="2" pos="24" show="0" value="4a72"/>
      <field name="ip.checksum_bad" showname="Bad: False" size="2" pos="24" show="0" value="4a72"/>
    </field>
    <field name="ip.src" showname="Source: 172.17.0.2 (172.17.0.2)" size="4" pos="26" show="172.17.0.2" value="ac110002"/>
    <field name="ip.addr" showname="Source or Destination Address: 172.17.0.2 (172.17.0.2)" hide="yes" size="4" pos="26" show="172.17.0.2" value="ac110002"/>
    <field name="ip.src_host" showname="Source Host: 172.17.0.2" hide="yes" size="4" pos="26" show="172.17.0.2" value="ac110002"/>
    <field name="ip.host" showname="Source or Destination Host: 172.17.0.2" hide="yes" size="4" pos="26" show="172.17.0.2" value="ac110002"/>
    <field name="ip.dst" showname="Destination: 1.1.1.1 (1.1.1.1)" size="4" pos="30" show="1.1.1.1" value="01010101"/>
    <field name="ip.addr" showname="Source or Destination Address: 1.1.1.1 (1.1.1.1)" hide="yes" size="4" pos="30" show="1.1.1.1" value="01010101"/>
    <field name="ip.dst_host" showname="Destination Host: 1.1.1.1" hide="yes" size="4" pos="30" show="1.1.1.1" value="01010101"/>
    <field name="ip.host" showname="Source or Destination Host: 1.1.1.1" hide="yes" size="4" pos="30" show="1.1.1.1" value="01010101"/>
  </proto>
  <proto name="tcp" showname="Transmission Control Protocol, Src Port: 59694 (59694), Dst Port: 853 (853), Seq: 338, Ack: 2809, Len: 0" size="20" pos="34">
    <field name="tcp.srcport" showname="Source port: 59694 (59694)" size="2" pos="34" show="59694" value="e92e"/>
    <field name="tcp.dstport" showname="Destination port: 853 (853)" size="2" pos="36" show="853" value="0355"/>
    <field name="tcp.port" showname="Source or Destination Port: 59694" hide="yes" size="2" pos="34" show="59694" value="e92e"/>
    <field name="tcp.port" showname="Source or Destination Port: 853" hide="yes" size="2" pos="36" show="853" value="0355"/>
    <field name="tcp.stream" showname="Stream index: 0" size="0" pos="34" show="0"/>
    <field name="tcp.len" showname="TCP Segment Len: 0" hide="yes" size="1" pos="46" show="0" value="50"/>
    <field name="tcp.seq" showname="Sequence number: 338    (relative sequence number)" size="4" pos="38" show="338" value="04a63448"/>
    <field name="tcp.ack" showname="Acknowledgment number: 2809    (relative ack number)" size="4" pos="42" show="2809" value="49805ed4"/>
    <field name="tcp.hdr_len" showname="Header length: 20 bytes" size="1" pos="46" show="20" value="50"/>
    <field name="tcp.flags" showname="Flags: 0x010 (ACK)" size="2" pos="46" show="16" value="10" unmaskedvalue="5010">
      <field name="tcp.flags.res" showname="000. .... .... = Reserved: Not set" size="1" pos="46" show="0" value="0" unmaskedvalue="50"/>
      <field name="tcp.flags.ns" showname="...0 .... .... = Nonce: Not set" size="1" pos="46" show="0" value="0" unmaskedvalue="50"/>
      <field name="tcp.flags.cwr" showname=".... 0... .... = Congestion Window Reduced (CWR): Not set" size="1" pos="47" show="0" value="0" unmaskedvalue="10"/>
      <field name="tcp.flags.ecn" showname=".... .0.. .... = ECN-Echo: Not set" size="1" pos="47" show="0" value="0" unmaskedvalue="10"/>
      <field name="tcp.flags.urg" showname=".... ..0. .... = Urgent: Not set" size="1" pos="47" show="0" value="0" unmaskedvalue="10"/>
      <field name="tcp.flags.ack" showname=".... ...1 .... = Acknowledgment: Set" size="1" pos="47" show="1" value="1" unmaskedvalue="10"/>
      <field name="tcp.flags.push" showname=".... .... 0... = Push: Not set" size="1" pos="47" show="0" value="0" unmaskedvalue="10"/>
      <field name="tcp.flags.reset" showname=".... .... .0.. = Reset: Not set" size="1" pos="47" show="0" value="0" unmaskedvalue="10"/>
      <field name="tcp.flags.syn" showname=".... .... ..0. = Syn: Not set" size="1" pos="47" show="0" value="0" unmaskedvalue="10"/>
      <field name="tcp.flags.fin" showname=".... .... ...0 = Fin: Not set" size="1" pos="47" show="0" value="0" unmaskedvalue="10"/>
    </field>
    <field name="tcp.window_size_value" showname="Window size value: 283" size="2" pos="48" show="283" value="011b"/>
    <field name="tcp.window_size" showname="Calculated window size: 36224" size="2" pos="48" show="36224" value="011b"/>
    <field name="tcp.window_size_scalefactor" showname="Window size scaling factor: 128" size="2" pos="48" show="128" value="011b"/>
    <field name="tcp.checksum" showname="Checksum: 0xae2f [validation disabled]" size="2" pos="50" show="44591" value="ae2f">
      <field name="tcp.checksum_good" showname="Good Checksum: False" size="2" pos="50" show="0" value="ae2f"/>
      <field name="tcp.checksum_bad" showname="Bad Checksum: False" size="2" pos="50" show="0" value="ae2f"/>
    </field>
    <field name="tcp.analysis" showname="SEQ/ACK analysis" size="0" pos="34" show="" value="">
      <field name="tcp.analysis.acks_frame" showname="This is an ACK to the segment in frame: 10" size="0" pos="34" show="10"/>
      <field name="tcp.analysis.ack_rtt" showname="The RTT to ACK the segment was: 0.000013000 seconds" size="0" pos="34" show="0.000013000"/>
    </field>
  </proto>
</packet>


<packet>
  <proto name="geninfo" pos="0" showname="General information" size="295">
    <field name="num" pos="0" show="12" showname="Number" value="c" size="295"/>
    <field name="len" pos="0" show="295" showname="Frame Length" value="127" size="295"/>
    <field name="caplen" pos="0" show="295" showname="Captured Length" value="127" size="295"/>
    <field name="timestamp" pos="0" show="Jun 27, 2019 12:20:59.172853000 CEST" showname="Captured Time" value="1561630859.172853000" size="295"/>
  </proto>
  <proto name="frame" showname="Frame 12: 295 bytes on wire (2360 bits), 295 bytes captured (2360 bits) on interface 0" size="295" pos="0">
    <field name="frame.interface_id" showname="Interface id: 0" size="0" pos="0" show="0"/>
    <field name="frame.encap_type" showname="Encapsulation type: Ethernet (1)" size="0" pos="0" show="1"/>
    <field name="frame.time" showname="Arrival Time: Jun 27, 2019 12:20:59.172853000 CEST" size="0" pos="0" show="&quot;Jun 27, 2019 12:20:59.172853000 CEST&quot;"/>
    <field name="frame.offset_shift" showname="Time shift for this packet: 0.000000000 seconds" size="0" pos="0" show="0.000000000"/>
    <field name="frame.time_epoch" showname="Epoch Time: 1561630859.172853000 seconds" size="0" pos="0" show="1561630859.172853000"/>
    <field name="frame.time_delta" showname="Time delta from previous captured frame: 0.000112000 seconds" size="0" pos="0" show="0.000112000"/>
    <field name="frame.time_delta_displayed" showname="Time delta from previous displayed frame: 0.000112000 seconds" size="0" pos="0" show="0.000112000"/>
    <field name="frame.time_relative" showname="Time since reference or first frame: 0.009909000 seconds" size="0" pos="0" show="0.009909000"/>
    <field name="frame.number" showname="Frame Number: 12" size="0" pos="0" show="12"/>
    <field name="frame.len" showname="Frame Length: 295 bytes (2360 bits)" size="0" pos="0" show="295"/>
    <field name="frame.cap_len" showname="Capture Length: 295 bytes (2360 bits)" size="0" pos="0" show="295"/>
    <field name="frame.marked" showname="Frame is marked: False" size="0" pos="0" show="0"/>
    <field name="frame.ignored" showname="Frame is ignored: False" size="0" pos="0" show="0"/>
    <field name="frame.protocols" showname="Protocols in frame: eth:ip:tcp:data" size="0" pos="0" show="eth:ip:tcp:data"/>
  </proto>
  <proto name="eth" showname="Ethernet II, Src: 02:42:71:12:56:af (02:42:71:12:56:af), Dst: 02:42:ac:11:00:02 (02:42:ac:11:00:02)" size="14" pos="0">
    <field name="eth.dst" showname="Destination: 02:42:ac:11:00:02 (02:42:ac:11:00:02)" size="6" pos="0" show="02:42:ac:11:00:02" value="0242ac110002">
      <field name="eth.addr" showname="Address: 02:42:ac:11:00:02 (02:42:ac:11:00:02)" size="6" pos="0" show="02:42:ac:11:00:02" value="0242ac110002"/>
      <field name="eth.lg" showname=".... ..1. .... .... .... .... = LG bit: Locally administered address (this is NOT the factory default)" size="3" pos="0" show="1" value="1" unmaskedvalue="0242ac"/>
      <field name="eth.ig" showname=".... ...0 .... .... .... .... = IG bit: Individual address (unicast)" size="3" pos="0" show="0" value="0" unmaskedvalue="0242ac"/>
    </field>
    <field name="eth.src" showname="Source: 02:42:71:12:56:af (02:42:71:12:56:af)" size="6" pos="6" show="02:42:71:12:56:af" value="0242711256af">
      <field name="eth.addr" showname="Address: 02:42:71:12:56:af (02:42:71:12:56:af)" size="6" pos="6" show="02:42:71:12:56:af" value="0242711256af"/>
      <field name="eth.lg" showname=".... ..1. .... .... .... .... = LG bit: Locally administered address (this is NOT the factory default)" size="3" pos="6" show="1" value="1" unmaskedvalue="024271"/>
      <field name="eth.ig" showname=".... ...0 .... .... .... .... = IG bit: Individual address (unicast)" size="3" pos="6" show="0" value="0" unmaskedvalue="024271"/>
    </field>
    <field name="eth.type" showname="Type: IP (0x0800)" size="2" pos="12" show="2048" value="0800"/>
  </proto>
  <proto name="ip" showname="Internet Protocol Version 4, Src: 1.1.1.1 (1.1.1.1), Dst: 172.17.0.2 (172.17.0.2)" size="20" pos="14">
    <field name="ip.version" showname="Version: 4" size="1" pos="14" show="4" value="45"/>
    <field name="ip.hdr_len" showname="Header length: 20 bytes" size="1" pos="14" show="20" value="45"/>
    <field name="ip.dsfield" showname="Differentiated Services Field: 0x00 (DSCP 0x00: Default; ECN: 0x00: Not-ECT (Not ECN-Capable Transport))" size="1" pos="15" show="0" value="00">
      <field name="ip.dsfield.dscp" showname="0000 00.. = Differentiated Services Codepoint: Default (0x00)" size="1" pos="15" show="0" value="0" unmaskedvalue="00"/>
      <field name="ip.dsfield.ecn" showname=".... ..00 = Explicit Congestion Notification: Not-ECT (Not ECN-Capable Transport) (0x00)" size="1" pos="15" show="0" value="0" unmaskedvalue="00"/>
    </field>
    <field name="ip.len" showname="Total Length: 281" size="2" pos="16" show="281" value="0119"/>
    <field name="ip.id" showname="Identification: 0x85ac (34220)" size="2" pos="18" show="34220" value="85ac"/>
    <field name="ip.flags" showname="Flags: 0x02 (Don&apos;t Fragment)" size="1" pos="20" show="2" value="40">
      <field name="ip.flags.rb" showname="0... .... = Reserved bit: Not set" size="1" pos="20" show="0" value="40"/>
      <field name="ip.flags.df" showname=".1.. .... = Don&apos;t fragment: Set" size="1" pos="20" show="1" value="40"/>
      <field name="ip.flags.mf" showname="..0. .... = More fragments: Not set" size="1" pos="20" show="0" value="40"/>
    </field>
    <field name="ip.frag_offset" showname="Fragment offset: 0" size="2" pos="20" show="0" value="4000"/>
    <field name="ip.ttl" showname="Time to live: 57" size="1" pos="22" show="57" value="39"/>
    <field name="ip.proto" showname="Protocol: TCP (6)" size="1" pos="23" show="6" value="06"/>
    <field name="ip.checksum" showname="Header checksum: 0x0d1e [validation disabled]" size="2" pos="24" show="3358" value="0d1e">
      <field name="ip.checksum_good" showname="Good: False" size="2" pos="24" show="0" value="0d1e"/>
      <field name="ip.checksum_bad" showname="Bad: False" size="2" pos="24" show="0" value="0d1e"/>
    </field>
    <field name="ip.src" showname="Source: 1.1.1.1 (1.1.1.1)" size="4" pos="26" show="1.1.1.1" value="01010101"/>
    <field name="ip.addr" showname="Source or Destination Address: 1.1.1.1 (1.1.1.1)" hide="yes" size="4" pos="26" show="1.1.1.1" value="01010101"/>
    <field name="ip.src_host" showname="Source Host: 1.1.1.1" hide="yes" size="4" pos="26" show="1.1.1.1" value="01010101"/>
    <field name="ip.host" showname="Source or Destination Host: 1.1.1.1" hide="yes" size="4" pos="26" show="1.1.1.1" value="01010101"/>
    <field name="ip.dst" showname="Destination: 172.17.0.2 (172.17.0.2)" size="4" pos="30" show="172.17.0.2" value="ac110002"/>
    <field name="ip.addr" showname="Source or Destination Address: 172.17.0.2 (172.17.0.2)" hide="yes" size="4" pos="30" show="172.17.0.2" value="ac110002"/>
    <field name="ip.dst_host" showname="Destination Host: 172.17.0.2" hide="yes" size="4" pos="30" show="172.17.0.2" value="ac110002"/>
    <field name="ip.host" showname="Source or Destination Host: 172.17.0.2" hide="yes" size="4" pos="30" show="172.17.0.2" value="ac110002"/>
  </proto>
  <proto name="tcp" showname="Transmission Control Protocol, Src Port: 853 (853), Dst Port: 59694 (59694), Seq: 2809, Ack: 338, Len: 241" size="20" pos="34">
    <field name="tcp.srcport" showname="Source port: 853 (853)" size="2" pos="34" show="853" value="0355"/>
    <field name="tcp.dstport" showname="Destination port: 59694 (59694)" size="2" pos="36" show="59694" value="e92e"/>
    <field name="tcp.port" showname="Source or Destination Port: 853" hide="yes" size="2" pos="34" show="853" value="0355"/>
    <field name="tcp.port" showname="Source or Destination Port: 59694" hide="yes" size="2" pos="36" show="59694" value="e92e"/>
    <field name="tcp.stream" showname="Stream index: 0" size="0" pos="34" show="0"/>
    <field name="tcp.len" showname="TCP Segment Len: 241" hide="yes" size="1" pos="46" show="241" value="50"/>
    <field name="tcp.seq" showname="Sequence number: 2809    (relative sequence number)" size="4" pos="38" show="2809" value="49805ed4"/>
    <field name="tcp.nxtseq" showname="Next sequence number: 3050    (relative sequence number)" size="0" pos="34" show="3050"/>
    <field name="tcp.ack" showname="Acknowledgment number: 338    (relative ack number)" size="4" pos="42" show="338" value="04a63448"/>
    <field name="tcp.hdr_len" showname="Header length: 20 bytes" size="1" pos="46" show="20" value="50"/>
    <field name="tcp.flags" showname="Flags: 0x018 (PSH, ACK)" size="2" pos="46" show="24" value="18" unmaskedvalue="5018">
      <field name="tcp.flags.res" showname="000. .... .... = Reserved: Not set" size="1" pos="46" show="0" value="0" unmaskedvalue="50"/>
      <field name="tcp.flags.ns" showname="...0 .... .... = Nonce: Not set" size="1" pos="46" show="0" value="0" unmaskedvalue="50"/>
      <field name="tcp.flags.cwr" showname=".... 0... .... = Congestion Window Reduced (CWR): Not set" size="1" pos="47" show="0" value="0" unmaskedvalue="18"/>
      <field name="tcp.flags.ecn" showname=".... .0.. .... = ECN-Echo: Not set" size="1" pos="47" show="0" value="0" unmaskedvalue="18"/>
      <field name="tcp.flags.urg" showname=".... ..0. .... = Urgent: Not set" size="1" pos="47" show="0" value="0" unmaskedvalue="18"/>
      <field name="tcp.flags.ack" showname=".... ...1 .... = Acknowledgment: Set" size="1" pos="47" show="1" value="1" unmaskedvalue="18"/>
      <field name="tcp.flags.push" showname=".... .... 1... = Push: Set" size="1" pos="47" show="1" value="1" unmaskedvalue="18"/>
      <field name="tcp.flags.reset" showname=".... .... .0.. = Reset: Not set" size="1" pos="47" show="0" value="0" unmaskedvalue="18"/>
      <field name="tcp.flags.syn" showname=".... .... ..0. = Syn: Not set" size="1" pos="47" show="0" value="0" unmaskedvalue="18"/>
      <field name="tcp.flags.fin" showname=".... .... ...0 = Fin: Not set" size="1" pos="47" show="0" value="0" unmaskedvalue="18"/>
    </field>
    <field name="tcp.window_size_value" showname="Window size value: 30" size="2" pos="48" show="30" value="001e"/>
    <field name="tcp.window_size" showname="Calculated window size: 30720" size="2" pos="48" show="30720" value="001e"/>
    <field name="tcp.window_size_scalefactor" showname="Window size scaling factor: 1024" size="2" pos="48" show="1024" value="001e"/>
    <field name="tcp.checksum" showname="Checksum: 0x3c0f [validation disabled]" size="2" pos="50" show="15375" value="3c0f">
      <field name="tcp.checksum_good" showname="Good Checksum: False" size="2" pos="50" show="0" value="3c0f"/>
      <field name="tcp.checksum_bad" showname="Bad Checksum: False" size="2" pos="50" show="0" value="3c0f"/>
    </field>
    <field name="tcp.analysis" showname="SEQ/ACK analysis" size="0" pos="34" show="" value="">
      <field name="tcp.analysis.bytes_in_flight" showname="Bytes in flight: 241" size="0" pos="34" show="241"/>
    </field>
  </proto>
  <proto name="fake-field-wrapper">
    <field name="data" value="17030300ec2c1af60a0b546297b4a091bb3c8f0a5c97b2580867018fba3e8f2a97a191f7fe8f133706f69f31b977f49f1ff28ac66a183d8282d74353e7b6c096ab738b9b435b0239dee762de4c4da698bcd81b5ad74a861bff9b0396ffe75b54b404e21076118d00a7cb59d9b2b627d6b875ecf2a56839cfd6786785a35f2eaecdd8184e654f77ea845991971cf31d4690474e826fa57efba0f02a76aa6ac22a4e7f59c92155223f34e6909ab33637ef780131175b1acffbeef9ebd722b3c42107fa57c9cd5ef7823b6dbb9d7c815d7daab6745ee4f8e4e1478c3d3e2ae6aede760b3c17ecca51b4580ab57eaa275dcd64">
      <field name="data.data" showname="Data: 17030300ec2c1af60a0b546297b4a091bb3c8f0a5c97b258..." size="241" pos="54" show="17:03:03:00:ec:2c:1a:f6:0a:0b:54:62:97:b4:a0:91:bb:3c:8f:0a:5c:97:b2:58:08:67:01:8f:ba:3e:8f:2a:97:a1:91:f7:fe:8f:13:37:06:f6:9f:31:b9:77:f4:9f:1f:f2:8a:c6:6a:18:3d:82:82:d7:43:53:e7:b6:c0:96:ab:73:8b:9b:43:5b:02:39:de:e7:62:de:4c:4d:a6:98:bc:d8:1b:5a:d7:4a:86:1b:ff:9b:03:96:ff:e7:5b:54:b4:04:e2:10:76:11:8d:00:a7:cb:59:d9:b2:b6:27:d6:b8:75:ec:f2:a5:68:39:cf:d6:78:67:85:a3:5f:2e:ae:cd:d8:18:4e:65:4f:77:ea:84:59:91:97:1c:f3:1d:46:90:47:4e:82:6f:a5:7e:fb:a0:f0:2a:76:aa:6a:c2:2a:4e:7f:59:c9:21:55:22:3f:34:e6:90:9a:b3:36:37:ef:78:01:31:17:5b:1a:cf:fb:ee:f9:eb:d7:22:b3:c4:21:07:fa:57:c9:cd:5e:f7:82:3b:6d:bb:9d:7c:81:5d:7d:aa:b6:74:5e:e4:f8:e4:e1:47:8c:3d:3e:2a:e6:ae:de:76:0b:3c:17:ec:ca:51:b4:58:0a:b5:7e:aa:27:5d:cd:64" value="17030300ec2c1af60a0b546297b4a091bb3c8f0a5c97b2580867018fba3e8f2a97a191f7fe8f133706f69f31b977f49f1ff28ac66a183d8282d74353e7b6c096ab738b9b435b0239dee762de4c4da698bcd81b5ad74a861bff9b0396ffe75b54b404e21076118d00a7cb59d9b2b627d6b875ecf2a56839cfd6786785a35f2eaecdd8184e654f77ea845991971cf31d4690474e826fa57efba0f02a76aa6ac22a4e7f59c92155223f34e6909ab33637ef780131175b1acffbeef9ebd722b3c42107fa57c9cd5ef7823b6dbb9d7c815d7daab6745ee4f8e4e1478c3d3e2ae6aede760b3c17ecca51b4580ab57eaa275dcd64"/>
      <field name="data.len" showname="Length: 241" size="0" pos="54" show="241"/>
  </field>
</proto>
</packet>


<packet>
  <proto name="geninfo" pos="0" showname="General information" size="54">
    <field name="num" pos="0" show="13" showname="Number" value="d" size="54"/>
    <field name="len" pos="0" show="54" showname="Frame Length" value="36" size="54"/>
    <field name="caplen" pos="0" show="54" showname="Captured Length" value="36" size="54"/>
    <field name="timestamp" pos="0" show="Jun 27, 2019 12:20:59.172867000 CEST" showname="Captured Time" value="1561630859.172867000" size="54"/>
  </proto>
  <proto name="frame" showname="Frame 13: 54 bytes on wire (432 bits), 54 bytes captured (432 bits) on interface 0" size="54" pos="0">
    <field name="frame.interface_id" showname="Interface id: 0" size="0" pos="0" show="0"/>
    <field name="frame.encap_type" showname="Encapsulation type: Ethernet (1)" size="0" pos="0" show="1"/>
    <field name="frame.time" showname="Arrival Time: Jun 27, 2019 12:20:59.172867000 CEST" size="0" pos="0" show="&quot;Jun 27, 2019 12:20:59.172867000 CEST&quot;"/>
    <field name="frame.offset_shift" showname="Time shift for this packet: 0.000000000 seconds" size="0" pos="0" show="0.000000000"/>
    <field name="frame.time_epoch" showname="Epoch Time: 1561630859.172867000 seconds" size="0" pos="0" show="1561630859.172867000"/>
    <field name="frame.time_delta" showname="Time delta from previous captured frame: 0.000014000 seconds" size="0" pos="0" show="0.000014000"/>
    <field name="frame.time_delta_displayed" showname="Time delta from previous displayed frame: 0.000014000 seconds" size="0" pos="0" show="0.000014000"/>
    <field name="frame.time_relative" showname="Time since reference or first frame: 0.009923000 seconds" size="0" pos="0" show="0.009923000"/>
    <field name="frame.number" showname="Frame Number: 13" size="0" pos="0" show="13"/>
    <field name="frame.len" showname="Frame Length: 54 bytes (432 bits)" size="0" pos="0" show="54"/>
    <field name="frame.cap_len" showname="Capture Length: 54 bytes (432 bits)" size="0" pos="0" show="54"/>
    <field name="frame.marked" showname="Frame is marked: False" size="0" pos="0" show="0"/>
    <field name="frame.ignored" showname="Frame is ignored: False" size="0" pos="0" show="0"/>
    <field name="frame.protocols" showname="Protocols in frame: eth:ip:tcp" size="0" pos="0" show="eth:ip:tcp"/>
  </proto>
  <proto name="eth" showname="Ethernet II, Src: 02:42:ac:11:00:02 (02:42:ac:11:00:02), Dst: 02:42:71:12:56:af (02:42:71:12:56:af)" size="14" pos="0">
    <field name="eth.dst" showname="Destination: 02:42:71:12:56:af (02:42:71:12:56:af)" size="6" pos="0" show="02:42:71:12:56:af" value="0242711256af">
      <field name="eth.addr" showname="Address: 02:42:71:12:56:af (02:42:71:12:56:af)" size="6" pos="0" show="02:42:71:12:56:af" value="0242711256af"/>
      <field name="eth.lg" showname=".... ..1. .... .... .... .... = LG bit: Locally administered address (this is NOT the factory default)" size="3" pos="0" show="1" value="1" unmaskedvalue="024271"/>
      <field name="eth.ig" showname=".... ...0 .... .... .... .... = IG bit: Individual address (unicast)" size="3" pos="0" show="0" value="0" unmaskedvalue="024271"/>
    </field>
    <field name="eth.src" showname="Source: 02:42:ac:11:00:02 (02:42:ac:11:00:02)" size="6" pos="6" show="02:42:ac:11:00:02" value="0242ac110002">
      <field name="eth.addr" showname="Address: 02:42:ac:11:00:02 (02:42:ac:11:00:02)" size="6" pos="6" show="02:42:ac:11:00:02" value="0242ac110002"/>
      <field name="eth.lg" showname=".... ..1. .... .... .... .... = LG bit: Locally administered address (this is NOT the factory default)" size="3" pos="6" show="1" value="1" unmaskedvalue="0242ac"/>
      <field name="eth.ig" showname=".... ...0 .... .... .... .... = IG bit: Individual address (unicast)" size="3" pos="6" show="0" value="0" unmaskedvalue="0242ac"/>
    </field>
    <field name="eth.type" showname="Type: IP (0x0800)" size="2" pos="12" show="2048" value="0800"/>
  </proto>
  <proto name="ip" showname="Internet Protocol Version 4, Src: 172.17.0.2 (172.17.0.2), Dst: 1.1.1.1 (1.1.1.1)" size="20" pos="14">
    <field name="ip.version" showname="Version: 4" size="1" pos="14" show="4" value="45"/>
    <field name="ip.hdr_len" showname="Header length: 20 bytes" size="1" pos="14" show="20" value="45"/>
    <field name="ip.dsfield" showname="Differentiated Services Field: 0x00 (DSCP 0x00: Default; ECN: 0x00: Not-ECT (Not ECN-Capable Transport))" size="1" pos="15" show="0" value="00">
      <field name="ip.dsfield.dscp" showname="0000 00.. = Differentiated Services Codepoint: Default (0x00)" size="1" pos="15" show="0" value="0" unmaskedvalue="00"/>
      <field name="ip.dsfield.ecn" showname=".... ..00 = Explicit Congestion Notification: Not-ECT (Not ECN-Capable Transport) (0x00)" size="1" pos="15" show="0" value="0" unmaskedvalue="00"/>
    </field>
    <field name="ip.len" showname="Total Length: 40" size="2" pos="16" show="40" value="0028"/>
    <field name="ip.id" showname="Identification: 0x424a (16970)" size="2" pos="18" show="16970" value="424a"/>
    <field name="ip.flags" showname="Flags: 0x02 (Don&apos;t Fragment)" size="1" pos="20" show="2" value="40">
      <field name="ip.flags.rb" showname="0... .... = Reserved bit: Not set" size="1" pos="20" show="0" value="40"/>
      <field name="ip.flags.df" showname=".1.. .... = Don&apos;t fragment: Set" size="1" pos="20" show="1" value="40"/>
      <field name="ip.flags.mf" showname="..0. .... = More fragments: Not set" size="1" pos="20" show="0" value="40"/>
    </field>
    <field name="ip.frag_offset" showname="Fragment offset: 0" size="2" pos="20" show="0" value="4000"/>
    <field name="ip.ttl" showname="Time to live: 64" size="1" pos="22" show="64" value="40"/>
    <field name="ip.proto" showname="Protocol: TCP (6)" size="1" pos="23" show="6" value="06"/>
    <field name="ip.checksum" showname="Header checksum: 0x4a71 [validation disabled]" size="2" pos="24" show="19057" value="4a71">
      <field name="ip.checksum_good" showname="Good: False" size="2" pos="24" show="0" value="4a71"/>
      <field name="ip.checksum_bad" showname="Bad: False" size="2" pos="24" show="0" value="4a71"/>
    </field>
    <field name="ip.src" showname="Source: 172.17.0.2 (172.17.0.2)" size="4" pos="26" show="172.17.0.2" value="ac110002"/>
    <field name="ip.addr" showname="Source or Destination Address: 172.17.0.2 (172.17.0.2)" hide="yes" size="4" pos="26" show="172.17.0.2" value="ac110002"/>
    <field name="ip.src_host" showname="Source Host: 172.17.0.2" hide="yes" size="4" pos="26" show="172.17.0.2" value="ac110002"/>
    <field name="ip.host" showname="Source or Destination Host: 172.17.0.2" hide="yes" size="4" pos="26" show="172.17.0.2" value="ac110002"/>
    <field name="ip.dst" showname="Destination: 1.1.1.1 (1.1.1.1)" size="4" pos="30" show="1.1.1.1" value="01010101"/>
    <field name="ip.addr" showname="Source or Destination Address: 1.1.1.1 (1.1.1.1)" hide="yes" size="4" pos="30" show="1.1.1.1" value="01010101"/>
    <field name="ip.dst_host" showname="Destination Host: 1.1.1.1" hide="yes" size="4" pos="30" show="1.1.1.1" value="01010101"/>
    <field name="ip.host" showname="Source or Destination Host: 1.1.1.1" hide="yes" size="4" pos="30" show="1.1.1.1" value="01010101"/>
  </proto>
  <proto name="tcp" showname="Transmission Control Protocol, Src Port: 59694 (59694), Dst Port: 853 (853), Seq: 338, Ack: 3050, Len: 0" size="20" pos="34">
    <field name="tcp.srcport" showname="Source port: 59694 (59694)" size="2" pos="34" show="59694" value="e92e"/>
    <field name="tcp.dstport" showname="Destination port: 853 (853)" size="2" pos="36" show="853" value="0355"/>
    <field name="tcp.port" showname="Source or Destination Port: 59694" hide="yes" size="2" pos="34" show="59694" value="e92e"/>
    <field name="tcp.port" showname="Source or Destination Port: 853" hide="yes" size="2" pos="36" show="853" value="0355"/>
    <field name="tcp.stream" showname="Stream index: 0" size="0" pos="34" show="0"/>
    <field name="tcp.len" showname="TCP Segment Len: 0" hide="yes" size="1" pos="46" show="0" value="50"/>
    <field name="tcp.seq" showname="Sequence number: 338    (relative sequence number)" size="4" pos="38" show="338" value="04a63448"/>
    <field name="tcp.ack" showname="Acknowledgment number: 3050    (relative ack number)" size="4" pos="42" show="3050" value="49805fc5"/>
    <field name="tcp.hdr_len" showname="Header length: 20 bytes" size="1" pos="46" show="20" value="50"/>
    <field name="tcp.flags" showname="Flags: 0x010 (ACK)" size="2" pos="46" show="16" value="10" unmaskedvalue="5010">
      <field name="tcp.flags.res" showname="000. .... .... = Reserved: Not set" size="1" pos="46" show="0" value="0" unmaskedvalue="50"/>
      <field name="tcp.flags.ns" showname="...0 .... .... = Nonce: Not set" size="1" pos="46" show="0" value="0" unmaskedvalue="50"/>
      <field name="tcp.flags.cwr" showname=".... 0... .... = Congestion Window Reduced (CWR): Not set" size="1" pos="47" show="0" value="0" unmaskedvalue="10"/>
      <field name="tcp.flags.ecn" showname=".... .0.. .... = ECN-Echo: Not set" size="1" pos="47" show="0" value="0" unmaskedvalue="10"/>
      <field name="tcp.flags.urg" showname=".... ..0. .... = Urgent: Not set" size="1" pos="47" show="0" value="0" unmaskedvalue="10"/>
      <field name="tcp.flags.ack" showname=".... ...1 .... = Acknowledgment: Set" size="1" pos="47" show="1" value="1" unmaskedvalue="10"/>
      <field name="tcp.flags.push" showname=".... .... 0... = Push: Not set" size="1" pos="47" show="0" value="0" unmaskedvalue="10"/>
      <field name="tcp.flags.reset" showname=".... .... .0.. = Reset: Not set" size="1" pos="47" show="0" value="0" unmaskedvalue="10"/>
      <field name="tcp.flags.syn" showname=".... .... ..0. = Syn: Not set" size="1" pos="47" show="0" value="0" unmaskedvalue="10"/>
      <field name="tcp.flags.fin" showname=".... .... ...0 = Fin: Not set" size="1" pos="47" show="0" value="0" unmaskedvalue="10"/>
    </field>
    <field name="tcp.window_size_value" showname="Window size value: 305" size="2" pos="48" show="305" value="0131"/>
    <field name="tcp.window_size" showname="Calculated window size: 39040" size="2" pos="48" show="39040" value="0131"/>
    <field name="tcp.window_size_scalefactor" showname="Window size scaling factor: 128" size="2" pos="48" show="128" value="0131"/>
    <field name="tcp.checksum" showname="Checksum: 0xae2f [validation disabled]" size="2" pos="50" show="44591" value="ae2f">
      <field name="tcp.checksum_good" showname="Good Checksum: False" size="2" pos="50" show="0" value="ae2f"/>
      <field name="tcp.checksum_bad" showname="Bad Checksum: False" size="2" pos="50" show="0" value="ae2f"/>
    </field>
    <field name="tcp.analysis" showname="SEQ/ACK analysis" size="0" pos="34" show="" value="">
      <field name="tcp.analysis.acks_frame" showname="This is an ACK to the segment in frame: 12" size="0" pos="34" show="12"/>
      <field name="tcp.analysis.ack_rtt" showname="The RTT to ACK the segment was: 0.000014000 seconds" size="0" pos="34" show="0.000014000"/>
    </field>
  </proto>
</packet>


<packet>
  <proto name="geninfo" pos="0" showname="General information" size="60">
    <field name="num" pos="0" show="14" showname="Number" value="e" size="60"/>
    <field name="len" pos="0" show="60" showname="Frame Length" value="3c" size="60"/>
    <field name="caplen" pos="0" show="60" showname="Captured Length" value="3c" size="60"/>
    <field name="timestamp" pos="0" show="Jun 27, 2019 12:20:59.172932000 CEST" showname="Captured Time" value="1561630859.172932000" size="60"/>
  </proto>
  <proto name="frame" showname="Frame 14: 60 bytes on wire (480 bits), 60 bytes captured (480 bits) on interface 0" size="60" pos="0">
    <field name="frame.interface_id" showname="Interface id: 0" size="0" pos="0" show="0"/>
    <field name="frame.encap_type" showname="Encapsulation type: Ethernet (1)" size="0" pos="0" show="1"/>
    <field name="frame.time" showname="Arrival Time: Jun 27, 2019 12:20:59.172932000 CEST" size="0" pos="0" show="&quot;Jun 27, 2019 12:20:59.172932000 CEST&quot;"/>
    <field name="frame.offset_shift" showname="Time shift for this packet: 0.000000000 seconds" size="0" pos="0" show="0.000000000"/>
    <field name="frame.time_epoch" showname="Epoch Time: 1561630859.172932000 seconds" size="0" pos="0" show="1561630859.172932000"/>
    <field name="frame.time_delta" showname="Time delta from previous captured frame: 0.000065000 seconds" size="0" pos="0" show="0.000065000"/>
    <field name="frame.time_delta_displayed" showname="Time delta from previous displayed frame: 0.000065000 seconds" size="0" pos="0" show="0.000065000"/>
    <field name="frame.time_relative" showname="Time since reference or first frame: 0.009988000 seconds" size="0" pos="0" show="0.009988000"/>
    <field name="frame.number" showname="Frame Number: 14" size="0" pos="0" show="14"/>
    <field name="frame.len" showname="Frame Length: 60 bytes (480 bits)" size="0" pos="0" show="60"/>
    <field name="frame.cap_len" showname="Capture Length: 60 bytes (480 bits)" size="0" pos="0" show="60"/>
    <field name="frame.marked" showname="Frame is marked: False" size="0" pos="0" show="0"/>
    <field name="frame.ignored" showname="Frame is ignored: False" size="0" pos="0" show="0"/>
    <field name="frame.protocols" showname="Protocols in frame: eth:ip:tcp:data" size="0" pos="0" show="eth:ip:tcp:data"/>
  </proto>
  <proto name="eth" showname="Ethernet II, Src: 02:42:ac:11:00:02 (02:42:ac:11:00:02), Dst: 02:42:71:12:56:af (02:42:71:12:56:af)" size="14" pos="0">
    <field name="eth.dst" showname="Destination: 02:42:71:12:56:af (02:42:71:12:56:af)" size="6" pos="0" show="02:42:71:12:56:af" value="0242711256af">
      <field name="eth.addr" showname="Address: 02:42:71:12:56:af (02:42:71:12:56:af)" size="6" pos="0" show="02:42:71:12:56:af" value="0242711256af"/>
      <field name="eth.lg" showname=".... ..1. .... .... .... .... = LG bit: Locally administered address (this is NOT the factory default)" size="3" pos="0" show="1" value="1" unmaskedvalue="024271"/>
      <field name="eth.ig" showname=".... ...0 .... .... .... .... = IG bit: Individual address (unicast)" size="3" pos="0" show="0" value="0" unmaskedvalue="024271"/>
    </field>
    <field name="eth.src" showname="Source: 02:42:ac:11:00:02 (02:42:ac:11:00:02)" size="6" pos="6" show="02:42:ac:11:00:02" value="0242ac110002">
      <field name="eth.addr" showname="Address: 02:42:ac:11:00:02 (02:42:ac:11:00:02)" size="6" pos="6" show="02:42:ac:11:00:02" value="0242ac110002"/>
      <field name="eth.lg" showname=".... ..1. .... .... .... .... = LG bit: Locally administered address (this is NOT the factory default)" size="3" pos="6" show="1" value="1" unmaskedvalue="0242ac"/>
      <field name="eth.ig" showname=".... ...0 .... .... .... .... = IG bit: Individual address (unicast)" size="3" pos="6" show="0" value="0" unmaskedvalue="0242ac"/>
    </field>
    <field name="eth.type" showname="Type: IP (0x0800)" size="2" pos="12" show="2048" value="0800"/>
  </proto>
  <proto name="ip" showname="Internet Protocol Version 4, Src: 172.17.0.2 (172.17.0.2), Dst: 1.1.1.1 (1.1.1.1)" size="20" pos="14">
    <field name="ip.version" showname="Version: 4" size="1" pos="14" show="4" value="45"/>
    <field name="ip.hdr_len" showname="Header length: 20 bytes" size="1" pos="14" show="20" value="45"/>
    <field name="ip.dsfield" showname="Differentiated Services Field: 0x00 (DSCP 0x00: Default; ECN: 0x00: Not-ECT (Not ECN-Capable Transport))" size="1" pos="15" show="0" value="00">
      <field name="ip.dsfield.dscp" showname="0000 00.. = Differentiated Services Codepoint: Default (0x00)" size="1" pos="15" show="0" value="0" unmaskedvalue="00"/>
      <field name="ip.dsfield.ecn" showname=".... ..00 = Explicit Congestion Notification: Not-ECT (Not ECN-Capable Transport) (0x00)" size="1" pos="15" show="0" value="0" unmaskedvalue="00"/>
    </field>
    <field name="ip.len" showname="Total Length: 46" size="2" pos="16" show="46" value="002e"/>
    <field name="ip.id" showname="Identification: 0x424b (16971)" size="2" pos="18" show="16971" value="424b"/>
    <field name="ip.flags" showname="Flags: 0x02 (Don&apos;t Fragment)" size="1" pos="20" show="2" value="40">
      <field name="ip.flags.rb" showname="0... .... = Reserved bit: Not set" size="1" pos="20" show="0" value="40"/>
      <field name="ip.flags.df" showname=".1.. .... = Don&apos;t fragment: Set" size="1" pos="20" show="1" value="40"/>
      <field name="ip.flags.mf" showname="..0. .... = More fragments: Not set" size="1" pos="20" show="0" value="40"/>
    </field>
    <field name="ip.frag_offset" showname="Fragment offset: 0" size="2" pos="20" show="0" value="4000"/>
    <field name="ip.ttl" showname="Time to live: 64" size="1" pos="22" show="64" value="40"/>
    <field name="ip.proto" showname="Protocol: TCP (6)" size="1" pos="23" show="6" value="06"/>
    <field name="ip.checksum" showname="Header checksum: 0x4a6a [validation disabled]" size="2" pos="24" show="19050" value="4a6a">
      <field name="ip.checksum_good" showname="Good: False" size="2" pos="24" show="0" value="4a6a"/>
      <field name="ip.checksum_bad" showname="Bad: False" size="2" pos="24" show="0" value="4a6a"/>
    </field>
    <field name="ip.src" showname="Source: 172.17.0.2 (172.17.0.2)" size="4" pos="26" show="172.17.0.2" value="ac110002"/>
    <field name="ip.addr" showname="Source or Destination Address: 172.17.0.2 (172.17.0.2)" hide="yes" size="4" pos="26" show="172.17.0.2" value="ac110002"/>
    <field name="ip.src_host" showname="Source Host: 172.17.0.2" hide="yes" size="4" pos="26" show="172.17.0.2" value="ac110002"/>
    <field name="ip.host" showname="Source or Destination Host: 172.17.0.2" hide="yes" size="4" pos="26" show="172.17.0.2" value="ac110002"/>
    <field name="ip.dst" showname="Destination: 1.1.1.1 (1.1.1.1)" size="4" pos="30" show="1.1.1.1" value="01010101"/>
    <field name="ip.addr" showname="Source or Destination Address: 1.1.1.1 (1.1.1.1)" hide="yes" size="4" pos="30" show="1.1.1.1" value="01010101"/>
    <field name="ip.dst_host" showname="Destination Host: 1.1.1.1" hide="yes" size="4" pos="30" show="1.1.1.1" value="01010101"/>
    <field name="ip.host" showname="Source or Destination Host: 1.1.1.1" hide="yes" size="4" pos="30" show="1.1.1.1" value="01010101"/>
  </proto>
  <proto name="tcp" showname="Transmission Control Protocol, Src Port: 59694 (59694), Dst Port: 853 (853), Seq: 338, Ack: 3050, Len: 6" size="20" pos="34">
    <field name="tcp.srcport" showname="Source port: 59694 (59694)" size="2" pos="34" show="59694" value="e92e"/>
    <field name="tcp.dstport" showname="Destination port: 853 (853)" size="2" pos="36" show="853" value="0355"/>
    <field name="tcp.port" showname="Source or Destination Port: 59694" hide="yes" size="2" pos="34" show="59694" value="e92e"/>
    <field name="tcp.port" showname="Source or Destination Port: 853" hide="yes" size="2" pos="36" show="853" value="0355"/>
    <field name="tcp.stream" showname="Stream index: 0" size="0" pos="34" show="0"/>
    <field name="tcp.len" showname="TCP Segment Len: 6" hide="yes" size="1" pos="46" show="6" value="50"/>
    <field name="tcp.seq" showname="Sequence number: 338    (relative sequence number)" size="4" pos="38" show="338" value="04a63448"/>
    <field name="tcp.nxtseq" showname="Next sequence number: 344    (relative sequence number)" size="0" pos="34" show="344"/>
    <field name="tcp.ack" showname="Acknowledgment number: 3050    (relative ack number)" size="4" pos="42" show="3050" value="49805fc5"/>
    <field name="tcp.hdr_len" showname="Header length: 20 bytes" size="1" pos="46" show="20" value="50"/>
    <field name="tcp.flags" showname="Flags: 0x018 (PSH, ACK)" size="2" pos="46" show="24" value="18" unmaskedvalue="5018">
      <field name="tcp.flags.res" showname="000. .... .... = Reserved: Not set" size="1" pos="46" show="0" value="0" unmaskedvalue="50"/>
      <field name="tcp.flags.ns" showname="...0 .... .... = Nonce: Not set" size="1" pos="46" show="0" value="0" unmaskedvalue="50"/>
      <field name="tcp.flags.cwr" showname=".... 0... .... = Congestion Window Reduced (CWR): Not set" size="1" pos="47" show="0" value="0" unmaskedvalue="18"/>
      <field name="tcp.flags.ecn" showname=".... .0.. .... = ECN-Echo: Not set" size="1" pos="47" show="0" value="0" unmaskedvalue="18"/>
      <field name="tcp.flags.urg" showname=".... ..0. .... = Urgent: Not set" size="1" pos="47" show="0" value="0" unmaskedvalue="18"/>
      <field name="tcp.flags.ack" showname=".... ...1 .... = Acknowledgment: Set" size="1" pos="47" show="1" value="1" unmaskedvalue="18"/>
      <field name="tcp.flags.push" showname=".... .... 1... = Push: Set" size="1" pos="47" show="1" value="1" unmaskedvalue="18"/>
      <field name="tcp.flags.reset" showname=".... .... .0.. = Reset: Not set" size="1" pos="47" show="0" value="0" unmaskedvalue="18"/>
      <field name="tcp.flags.syn" showname=".... .... ..0. = Syn: Not set" size="1" pos="47" show="0" value="0" unmaskedvalue="18"/>
      <field name="tcp.flags.fin" showname=".... .... ...0 = Fin: Not set" size="1" pos="47" show="0" value="0" unmaskedvalue="18"/>
    </field>
    <field name="tcp.window_size_value" showname="Window size value: 305" size="2" pos="48" show="305" value="0131"/>
    <field name="tcp.window_size" showname="Calculated window size: 39040" size="2" pos="48" show="39040" value="0131"/>
    <field name="tcp.window_size_scalefactor" showname="Window size scaling factor: 128" size="2" pos="48" show="128" value="0131"/>
    <field name="tcp.checksum" showname="Checksum: 0xae35 [validation disabled]" size="2" pos="50" show="44597" value="ae35">
      <field name="tcp.checksum_good" showname="Good Checksum: False" size="2" pos="50" show="0" value="ae35"/>
      <field name="tcp.checksum_bad" showname="Bad Checksum: False" size="2" pos="50" show="0" value="ae35"/>
    </field>
    <field name="tcp.analysis" showname="SEQ/ACK analysis" size="0" pos="34" show="" value="">
      <field name="tcp.analysis.bytes_in_flight" showname="Bytes in flight: 6" size="0" pos="34" show="6"/>
    </field>
  </proto>
  <proto name="fake-field-wrapper">
    <field name="data" value="140303000101">
      <field name="data.data" showname="Data: 140303000101" size="6" pos="54" show="14:03:03:00:01:01" value="140303000101"/>
      <field name="data.len" showname="Length: 6" size="0" pos="54" show="6"/>
  </field>
</proto>
</packet>


<packet>
  <proto name="geninfo" pos="0" showname="General information" size="54">
    <field name="num" pos="0" show="15" showname="Number" value="f" size="54"/>
    <field name="len" pos="0" show="54" showname="Frame Length" value="36" size="54"/>
    <field name="caplen" pos="0" show="54" showname="Captured Length" value="36" size="54"/>
    <field name="timestamp" pos="0" show="Jun 27, 2019 12:20:59.216994000 CEST" showname="Captured Time" value="1561630859.216994000" size="54"/>
  </proto>
  <proto name="frame" showname="Frame 15: 54 bytes on wire (432 bits), 54 bytes captured (432 bits) on interface 0" size="54" pos="0">
    <field name="frame.interface_id" showname="Interface id: 0" size="0" pos="0" show="0"/>
    <field name="frame.encap_type" showname="Encapsulation type: Ethernet (1)" size="0" pos="0" show="1"/>
    <field name="frame.time" showname="Arrival Time: Jun 27, 2019 12:20:59.216994000 CEST" size="0" pos="0" show="&quot;Jun 27, 2019 12:20:59.216994000 CEST&quot;"/>
    <field name="frame.offset_shift" showname="Time shift for this packet: 0.000000000 seconds" size="0" pos="0" show="0.000000000"/>
    <field name="frame.time_epoch" showname="Epoch Time: 1561630859.216994000 seconds" size="0" pos="0" show="1561630859.216994000"/>
    <field name="frame.time_delta" showname="Time delta from previous captured frame: 0.044062000 seconds" size="0" pos="0" show="0.044062000"/>
    <field name="frame.time_delta_displayed" showname="Time delta from previous displayed frame: 0.044062000 seconds" size="0" pos="0" show="0.044062000"/>
    <field name="frame.time_relative" showname="Time since reference or first frame: 0.054050000 seconds" size="0" pos="0" show="0.054050000"/>
    <field name="frame.number" showname="Frame Number: 15" size="0" pos="0" show="15"/>
    <field name="frame.len" showname="Frame Length: 54 bytes (432 bits)" size="0" pos="0" show="54"/>
    <field name="frame.cap_len" showname="Capture Length: 54 bytes (432 bits)" size="0" pos="0" show="54"/>
    <field name="frame.marked" showname="Frame is marked: False" size="0" pos="0" show="0"/>
    <field name="frame.ignored" showname="Frame is ignored: False" size="0" pos="0" show="0"/>
    <field name="frame.protocols" showname="Protocols in frame: eth:ip:tcp" size="0" pos="0" show="eth:ip:tcp"/>
  </proto>
  <proto name="eth" showname="Ethernet II, Src: 02:42:71:12:56:af (02:42:71:12:56:af), Dst: 02:42:ac:11:00:02 (02:42:ac:11:00:02)" size="14" pos="0">
    <field name="eth.dst" showname="Destination: 02:42:ac:11:00:02 (02:42:ac:11:00:02)" size="6" pos="0" show="02:42:ac:11:00:02" value="0242ac110002">
      <field name="eth.addr" showname="Address: 02:42:ac:11:00:02 (02:42:ac:11:00:02)" size="6" pos="0" show="02:42:ac:11:00:02" value="0242ac110002"/>
      <field name="eth.lg" showname=".... ..1. .... .... .... .... = LG bit: Locally administered address (this is NOT the factory default)" size="3" pos="0" show="1" value="1" unmaskedvalue="0242ac"/>
      <field name="eth.ig" showname=".... ...0 .... .... .... .... = IG bit: Individual address (unicast)" size="3" pos="0" show="0" value="0" unmaskedvalue="0242ac"/>
    </field>
    <field name="eth.src" showname="Source: 02:42:71:12:56:af (02:42:71:12:56:af)" size="6" pos="6" show="02:42:71:12:56:af" value="0242711256af">
      <field name="eth.addr" showname="Address: 02:42:71:12:56:af (02:42:71:12:56:af)" size="6" pos="6" show="02:42:71:12:56:af" value="0242711256af"/>
      <field name="eth.lg" showname=".... ..1. .... .... .... .... = LG bit: Locally administered address (this is NOT the factory default)" size="3" pos="6" show="1" value="1" unmaskedvalue="024271"/>
      <field name="eth.ig" showname=".... ...0 .... .... .... .... = IG bit: Individual address (unicast)" size="3" pos="6" show="0" value="0" unmaskedvalue="024271"/>
    </field>
    <field name="eth.type" showname="Type: IP (0x0800)" size="2" pos="12" show="2048" value="0800"/>
  </proto>
  <proto name="ip" showname="Internet Protocol Version 4, Src: 1.1.1.1 (1.1.1.1), Dst: 172.17.0.2 (172.17.0.2)" size="20" pos="14">
    <field name="ip.version" showname="Version: 4" size="1" pos="14" show="4" value="45"/>
    <field name="ip.hdr_len" showname="Header length: 20 bytes" size="1" pos="14" show="20" value="45"/>
    <field name="ip.dsfield" showname="Differentiated Services Field: 0x00 (DSCP 0x00: Default; ECN: 0x00: Not-ECT (Not ECN-Capable Transport))" size="1" pos="15" show="0" value="00">
      <field name="ip.dsfield.dscp" showname="0000 00.. = Differentiated Services Codepoint: Default (0x00)" size="1" pos="15" show="0" value="0" unmaskedvalue="00"/>
      <field name="ip.dsfield.ecn" showname=".... ..00 = Explicit Congestion Notification: Not-ECT (Not ECN-Capable Transport) (0x00)" size="1" pos="15" show="0" value="0" unmaskedvalue="00"/>
    </field>
    <field name="ip.len" showname="Total Length: 40" size="2" pos="16" show="40" value="0028"/>
    <field name="ip.id" showname="Identification: 0x85ad (34221)" size="2" pos="18" show="34221" value="85ad"/>
    <field name="ip.flags" showname="Flags: 0x02 (Don&apos;t Fragment)" size="1" pos="20" show="2" value="40">
      <field name="ip.flags.rb" showname="0... .... = Reserved bit: Not set" size="1" pos="20" show="0" value="40"/>
      <field name="ip.flags.df" showname=".1.. .... = Don&apos;t fragment: Set" size="1" pos="20" show="1" value="40"/>
      <field name="ip.flags.mf" showname="..0. .... = More fragments: Not set" size="1" pos="20" show="0" value="40"/>
    </field>
    <field name="ip.frag_offset" showname="Fragment offset: 0" size="2" pos="20" show="0" value="4000"/>
    <field name="ip.ttl" showname="Time to live: 57" size="1" pos="22" show="57" value="39"/>
    <field name="ip.proto" showname="Protocol: TCP (6)" size="1" pos="23" show="6" value="06"/>
    <field name="ip.checksum" showname="Header checksum: 0x0e0e [validation disabled]" size="2" pos="24" show="3598" value="0e0e">
      <field name="ip.checksum_good" showname="Good: False" size="2" pos="24" show="0" value="0e0e"/>
      <field name="ip.checksum_bad" showname="Bad: False" size="2" pos="24" show="0" value="0e0e"/>
    </field>
    <field name="ip.src" showname="Source: 1.1.1.1 (1.1.1.1)" size="4" pos="26" show="1.1.1.1" value="01010101"/>
    <field name="ip.addr" showname="Source or Destination Address: 1.1.1.1 (1.1.1.1)" hide="yes" size="4" pos="26" show="1.1.1.1" value="01010101"/>
    <field name="ip.src_host" showname="Source Host: 1.1.1.1" hide="yes" size="4" pos="26" show="1.1.1.1" value="01010101"/>
    <field name="ip.host" showname="Source or Destination Host: 1.1.1.1" hide="yes" size="4" pos="26" show="1.1.1.1" value="01010101"/>
    <field name="ip.dst" showname="Destination: 172.17.0.2 (172.17.0.2)" size="4" pos="30" show="172.17.0.2" value="ac110002"/>
    <field name="ip.addr" showname="Source or Destination Address: 172.17.0.2 (172.17.0.2)" hide="yes" size="4" pos="30" show="172.17.0.2" value="ac110002"/>
    <field name="ip.dst_host" showname="Destination Host: 172.17.0.2" hide="yes" size="4" pos="30" show="172.17.0.2" value="ac110002"/>
    <field name="ip.host" showname="Source or Destination Host: 172.17.0.2" hide="yes" size="4" pos="30" show="172.17.0.2" value="ac110002"/>
  </proto>
  <proto name="tcp" showname="Transmission Control Protocol, Src Port: 853 (853), Dst Port: 59694 (59694), Seq: 3050, Ack: 344, Len: 0" size="20" pos="34">
    <field name="tcp.srcport" showname="Source port: 853 (853)" size="2" pos="34" show="853" value="0355"/>
    <field name="tcp.dstport" showname="Destination port: 59694 (59694)" size="2" pos="36" show="59694" value="e92e"/>
    <field name="tcp.port" showname="Source or Destination Port: 853" hide="yes" size="2" pos="34" show="853" value="0355"/>
    <field name="tcp.port" showname="Source or Destination Port: 59694" hide="yes" size="2" pos="36" show="59694" value="e92e"/>
    <field name="tcp.stream" showname="Stream index: 0" size="0" pos="34" show="0"/>
    <field name="tcp.len" showname="TCP Segment Len: 0" hide="yes" size="1" pos="46" show="0" value="50"/>
    <field name="tcp.seq" showname="Sequence number: 3050    (relative sequence number)" size="4" pos="38" show="3050" value="49805fc5"/>
    <field name="tcp.ack" showname="Acknowledgment number: 344    (relative ack number)" size="4" pos="42" show="344" value="04a6344e"/>
    <field name="tcp.hdr_len" showname="Header length: 20 bytes" size="1" pos="46" show="20" value="50"/>
    <field name="tcp.flags" showname="Flags: 0x010 (ACK)" size="2" pos="46" show="16" value="10" unmaskedvalue="5010">
      <field name="tcp.flags.res" showname="000. .... .... = Reserved: Not set" size="1" pos="46" show="0" value="0" unmaskedvalue="50"/>
      <field name="tcp.flags.ns" showname="...0 .... .... = Nonce: Not set" size="1" pos="46" show="0" value="0" unmaskedvalue="50"/>
      <field name="tcp.flags.cwr" showname=".... 0... .... = Congestion Window Reduced (CWR): Not set" size="1" pos="47" show="0" value="0" unmaskedvalue="10"/>
      <field name="tcp.flags.ecn" showname=".... .0.. .... = ECN-Echo: Not set" size="1" pos="47" show="0" value="0" unmaskedvalue="10"/>
      <field name="tcp.flags.urg" showname=".... ..0. .... = Urgent: Not set" size="1" pos="47" show="0" value="0" unmaskedvalue="10"/>
      <field name="tcp.flags.ack" showname=".... ...1 .... = Acknowledgment: Set" size="1" pos="47" show="1" value="1" unmaskedvalue="10"/>
      <field name="tcp.flags.push" showname=".... .... 0... = Push: Not set" size="1" pos="47" show="0" value="0" unmaskedvalue="10"/>
      <field name="tcp.flags.reset" showname=".... .... .0.. = Reset: Not set" size="1" pos="47" show="0" value="0" unmaskedvalue="10"/>
      <field name="tcp.flags.syn" showname=".... .... ..0. = Syn: Not set" size="1" pos="47" show="0" value="0" unmaskedvalue="10"/>
      <field name="tcp.flags.fin" showname=".... .... ...0 = Fin: Not set" size="1" pos="47" show="0" value="0" unmaskedvalue="10"/>
    </field>
    <field name="tcp.window_size_value" showname="Window size value: 30" size="2" pos="48" show="30" value="001e"/>
    <field name="tcp.window_size" showname="Calculated window size: 30720" size="2" pos="48" show="30720" value="001e"/>
    <field name="tcp.window_size_scalefactor" showname="Window size scaling factor: 1024" size="2" pos="48" show="1024" value="001e"/>
    <field name="tcp.checksum" showname="Checksum: 0x32e4 [validation disabled]" size="2" pos="50" show="13028" value="32e4">
      <field name="tcp.checksum_good" showname="Good Checksum: False" size="2" pos="50" show="0" value="32e4"/>
      <field name="tcp.checksum_bad" showname="Bad Checksum: False" size="2" pos="50" show="0" value="32e4"/>
    </field>
    <field name="tcp.analysis" showname="SEQ/ACK analysis" size="0" pos="34" show="" value="">
      <field name="tcp.analysis.acks_frame" showname="This is an ACK to the segment in frame: 14" size="0" pos="34" show="14"/>
      <field name="tcp.analysis.ack_rtt" showname="The RTT to ACK the segment was: 0.044062000 seconds" size="0" pos="34" show="0.044062000"/>
    </field>
  </proto>
</packet>


<packet>
  <proto name="geninfo" pos="0" showname="General information" size="280">
    <field name="num" pos="0" show="16" showname="Number" value="10" size="280"/>
    <field name="len" pos="0" show="280" showname="Frame Length" value="118" size="280"/>
    <field name="caplen" pos="0" show="280" showname="Captured Length" value="118" size="280"/>
    <field name="timestamp" pos="0" show="Jun 27, 2019 12:20:59.217020000 CEST" showname="Captured Time" value="1561630859.217020000" size="280"/>
  </proto>
  <proto name="frame" showname="Frame 16: 280 bytes on wire (2240 bits), 280 bytes captured (2240 bits) on interface 0" size="280" pos="0">
    <field name="frame.interface_id" showname="Interface id: 0" size="0" pos="0" show="0"/>
    <field name="frame.encap_type" showname="Encapsulation type: Ethernet (1)" size="0" pos="0" show="1"/>
    <field name="frame.time" showname="Arrival Time: Jun 27, 2019 12:20:59.217020000 CEST" size="0" pos="0" show="&quot;Jun 27, 2019 12:20:59.217020000 CEST&quot;"/>
    <field name="frame.offset_shift" showname="Time shift for this packet: 0.000000000 seconds" size="0" pos="0" show="0.000000000"/>
    <field name="frame.time_epoch" showname="Epoch Time: 1561630859.217020000 seconds" size="0" pos="0" show="1561630859.217020000"/>
    <field name="frame.time_delta" showname="Time delta from previous captured frame: 0.000026000 seconds" size="0" pos="0" show="0.000026000"/>
    <field name="frame.time_delta_displayed" showname="Time delta from previous displayed frame: 0.000026000 seconds" size="0" pos="0" show="0.000026000"/>
    <field name="frame.time_relative" showname="Time since reference or first frame: 0.054076000 seconds" size="0" pos="0" show="0.054076000"/>
    <field name="frame.number" showname="Frame Number: 16" size="0" pos="0" show="16"/>
    <field name="frame.len" showname="Frame Length: 280 bytes (2240 bits)" size="0" pos="0" show="280"/>
    <field name="frame.cap_len" showname="Capture Length: 280 bytes (2240 bits)" size="0" pos="0" show="280"/>
    <field name="frame.marked" showname="Frame is marked: False" size="0" pos="0" show="0"/>
    <field name="frame.ignored" showname="Frame is ignored: False" size="0" pos="0" show="0"/>
    <field name="frame.protocols" showname="Protocols in frame: eth:ip:tcp:data" size="0" pos="0" show="eth:ip:tcp:data"/>
  </proto>
  <proto name="eth" showname="Ethernet II, Src: 02:42:ac:11:00:02 (02:42:ac:11:00:02), Dst: 02:42:71:12:56:af (02:42:71:12:56:af)" size="14" pos="0">
    <field name="eth.dst" showname="Destination: 02:42:71:12:56:af (02:42:71:12:56:af)" size="6" pos="0" show="02:42:71:12:56:af" value="0242711256af">
      <field name="eth.addr" showname="Address: 02:42:71:12:56:af (02:42:71:12:56:af)" size="6" pos="0" show="02:42:71:12:56:af" value="0242711256af"/>
      <field name="eth.lg" showname=".... ..1. .... .... .... .... = LG bit: Locally administered address (this is NOT the factory default)" size="3" pos="0" show="1" value="1" unmaskedvalue="024271"/>
      <field name="eth.ig" showname=".... ...0 .... .... .... .... = IG bit: Individual address (unicast)" size="3" pos="0" show="0" value="0" unmaskedvalue="024271"/>
    </field>
    <field name="eth.src" showname="Source: 02:42:ac:11:00:02 (02:42:ac:11:00:02)" size="6" pos="6" show="02:42:ac:11:00:02" value="0242ac110002">
      <field name="eth.addr" showname="Address: 02:42:ac:11:00:02 (02:42:ac:11:00:02)" size="6" pos="6" show="02:42:ac:11:00:02" value="0242ac110002"/>
      <field name="eth.lg" showname=".... ..1. .... .... .... .... = LG bit: Locally administered address (this is NOT the factory default)" size="3" pos="6" show="1" value="1" unmaskedvalue="0242ac"/>
      <field name="eth.ig" showname=".... ...0 .... .... .... .... = IG bit: Individual address (unicast)" size="3" pos="6" show="0" value="0" unmaskedvalue="0242ac"/>
    </field>
    <field name="eth.type" showname="Type: IP (0x0800)" size="2" pos="12" show="2048" value="0800"/>
  </proto>
  <proto name="ip" showname="Internet Protocol Version 4, Src: 172.17.0.2 (172.17.0.2), Dst: 1.1.1.1 (1.1.1.1)" size="20" pos="14">
    <field name="ip.version" showname="Version: 4" size="1" pos="14" show="4" value="45"/>
    <field name="ip.hdr_len" showname="Header length: 20 bytes" size="1" pos="14" show="20" value="45"/>
    <field name="ip.dsfield" showname="Differentiated Services Field: 0x00 (DSCP 0x00: Default; ECN: 0x00: Not-ECT (Not ECN-Capable Transport))" size="1" pos="15" show="0" value="00">
      <field name="ip.dsfield.dscp" showname="0000 00.. = Differentiated Services Codepoint: Default (0x00)" size="1" pos="15" show="0" value="0" unmaskedvalue="00"/>
      <field name="ip.dsfield.ecn" showname=".... ..00 = Explicit Congestion Notification: Not-ECT (Not ECN-Capable Transport) (0x00)" size="1" pos="15" show="0" value="0" unmaskedvalue="00"/>
    </field>
    <field name="ip.len" showname="Total Length: 266" size="2" pos="16" show="266" value="010a"/>
    <field name="ip.id" showname="Identification: 0x424c (16972)" size="2" pos="18" show="16972" value="424c"/>
    <field name="ip.flags" showname="Flags: 0x02 (Don&apos;t Fragment)" size="1" pos="20" show="2" value="40">
      <field name="ip.flags.rb" showname="0... .... = Reserved bit: Not set" size="1" pos="20" show="0" value="40"/>
      <field name="ip.flags.df" showname=".1.. .... = Don&apos;t fragment: Set" size="1" pos="20" show="1" value="40"/>
      <field name="ip.flags.mf" showname="..0. .... = More fragments: Not set" size="1" pos="20" show="0" value="40"/>
    </field>
    <field name="ip.frag_offset" showname="Fragment offset: 0" size="2" pos="20" show="0" value="4000"/>
    <field name="ip.ttl" showname="Time to live: 64" size="1" pos="22" show="64" value="40"/>
    <field name="ip.proto" showname="Protocol: TCP (6)" size="1" pos="23" show="6" value="06"/>
    <field name="ip.checksum" showname="Header checksum: 0x498d [validation disabled]" size="2" pos="24" show="18829" value="498d">
      <field name="ip.checksum_good" showname="Good: False" size="2" pos="24" show="0" value="498d"/>
      <field name="ip.checksum_bad" showname="Bad: False" size="2" pos="24" show="0" value="498d"/>
    </field>
    <field name="ip.src" showname="Source: 172.17.0.2 (172.17.0.2)" size="4" pos="26" show="172.17.0.2" value="ac110002"/>
    <field name="ip.addr" showname="Source or Destination Address: 172.17.0.2 (172.17.0.2)" hide="yes" size="4" pos="26" show="172.17.0.2" value="ac110002"/>
    <field name="ip.src_host" showname="Source Host: 172.17.0.2" hide="yes" size="4" pos="26" show="172.17.0.2" value="ac110002"/>
    <field name="ip.host" showname="Source or Destination Host: 172.17.0.2" hide="yes" size="4" pos="26" show="172.17.0.2" value="ac110002"/>
    <field name="ip.dst" showname="Destination: 1.1.1.1 (1.1.1.1)" size="4" pos="30" show="1.1.1.1" value="01010101"/>
    <field name="ip.addr" showname="Source or Destination Address: 1.1.1.1 (1.1.1.1)" hide="yes" size="4" pos="30" show="1.1.1.1" value="01010101"/>
    <field name="ip.dst_host" showname="Destination Host: 1.1.1.1" hide="yes" size="4" pos="30" show="1.1.1.1" value="01010101"/>
    <field name="ip.host" showname="Source or Destination Host: 1.1.1.1" hide="yes" size="4" pos="30" show="1.1.1.1" value="01010101"/>
  </proto>
  <proto name="tcp" showname="Transmission Control Protocol, Src Port: 59694 (59694), Dst Port: 853 (853), Seq: 344, Ack: 3050, Len: 226" size="20" pos="34">
    <field name="tcp.srcport" showname="Source port: 59694 (59694)" size="2" pos="34" show="59694" value="e92e"/>
    <field name="tcp.dstport" showname="Destination port: 853 (853)" size="2" pos="36" show="853" value="0355"/>
    <field name="tcp.port" showname="Source or Destination Port: 59694" hide="yes" size="2" pos="34" show="59694" value="e92e"/>
    <field name="tcp.port" showname="Source or Destination Port: 853" hide="yes" size="2" pos="36" show="853" value="0355"/>
    <field name="tcp.stream" showname="Stream index: 0" size="0" pos="34" show="0"/>
    <field name="tcp.len" showname="TCP Segment Len: 226" hide="yes" size="1" pos="46" show="226" value="50"/>
    <field name="tcp.seq" showname="Sequence number: 344    (relative sequence number)" size="4" pos="38" show="344" value="04a6344e"/>
    <field name="tcp.nxtseq" showname="Next sequence number: 570    (relative sequence number)" size="0" pos="34" show="570"/>
    <field name="tcp.ack" showname="Acknowledgment number: 3050    (relative ack number)" size="4" pos="42" show="3050" value="49805fc5"/>
    <field name="tcp.hdr_len" showname="Header length: 20 bytes" size="1" pos="46" show="20" value="50"/>
    <field name="tcp.flags" showname="Flags: 0x018 (PSH, ACK)" size="2" pos="46" show="24" value="18" unmaskedvalue="5018">
      <field name="tcp.flags.res" showname="000. .... .... = Reserved: Not set" size="1" pos="46" show="0" value="0" unmaskedvalue="50"/>
      <field name="tcp.flags.ns" showname="...0 .... .... = Nonce: Not set" size="1" pos="46" show="0" value="0" unmaskedvalue="50"/>
      <field name="tcp.flags.cwr" showname=".... 0... .... = Congestion Window Reduced (CWR): Not set" size="1" pos="47" show="0" value="0" unmaskedvalue="18"/>
      <field name="tcp.flags.ecn" showname=".... .0.. .... = ECN-Echo: Not set" size="1" pos="47" show="0" value="0" unmaskedvalue="18"/>
      <field name="tcp.flags.urg" showname=".... ..0. .... = Urgent: Not set" size="1" pos="47" show="0" value="0" unmaskedvalue="18"/>
      <field name="tcp.flags.ack" showname=".... ...1 .... = Acknowledgment: Set" size="1" pos="47" show="1" value="1" unmaskedvalue="18"/>
      <field name="tcp.flags.push" showname=".... .... 1... = Push: Set" size="1" pos="47" show="1" value="1" unmaskedvalue="18"/>
      <field name="tcp.flags.reset" showname=".... .... .0.. = Reset: Not set" size="1" pos="47" show="0" value="0" unmaskedvalue="18"/>
      <field name="tcp.flags.syn" showname=".... .... ..0. = Syn: Not set" size="1" pos="47" show="0" value="0" unmaskedvalue="18"/>
      <field name="tcp.flags.fin" showname=".... .... ...0 = Fin: Not set" size="1" pos="47" show="0" value="0" unmaskedvalue="18"/>
    </field>
    <field name="tcp.window_size_value" showname="Window size value: 305" size="2" pos="48" show="305" value="0131"/>
    <field name="tcp.window_size" showname="Calculated window size: 39040" size="2" pos="48" show="39040" value="0131"/>
    <field name="tcp.window_size_scalefactor" showname="Window size scaling factor: 128" size="2" pos="48" show="128" value="0131"/>
    <field name="tcp.checksum" showname="Checksum: 0xaf11 [validation disabled]" size="2" pos="50" show="44817" value="af11">
      <field name="tcp.checksum_good" showname="Good Checksum: False" size="2" pos="50" show="0" value="af11"/>
      <field name="tcp.checksum_bad" showname="Bad Checksum: False" size="2" pos="50" show="0" value="af11"/>
    </field>
    <field name="tcp.analysis" showname="SEQ/ACK analysis" size="0" pos="34" show="" value="">
      <field name="tcp.analysis.bytes_in_flight" showname="Bytes in flight: 226" size="0" pos="34" show="226"/>
    </field>
  </proto>
  <proto name="fake-field-wrapper">
    <field name="data" value="17030300453ae5cd35e34ea636696e0ba761fcccdec5615872d797e7cd31861fa097512c2892a21cfcd7c4cfac6d842a6894b9a35aca26c3a7d368aa35e0b1d26b85511f2b944116e8ce1703030093e5dce2ab8e0ea2967e72102406b769902ee84184c0089be80d4d7b60ee0d95e04abb20603a9c2ca85f28fe3881d7a301e7bfe196f5c42040eaca357da22f76ae6c138fde4838d4235ad5c24c843445bf592700bb7b3977b7cf474cd6caa95d90e4cb8389c83391a17bc4c11660104aec0939f5666b5ca926c4bb86663b94d271b87ee9da386c43a8dfd3a10c1a216da407f26f">
      <field name="data.data" showname="Data: 17030300453ae5cd35e34ea636696e0ba761fcccdec56158..." size="226" pos="54" show="17:03:03:00:45:3a:e5:cd:35:e3:4e:a6:36:69:6e:0b:a7:61:fc:cc:de:c5:61:58:72:d7:97:e7:cd:31:86:1f:a0:97:51:2c:28:92:a2:1c:fc:d7:c4:cf:ac:6d:84:2a:68:94:b9:a3:5a:ca:26:c3:a7:d3:68:aa:35:e0:b1:d2:6b:85:51:1f:2b:94:41:16:e8:ce:17:03:03:00:93:e5:dc:e2:ab:8e:0e:a2:96:7e:72:10:24:06:b7:69:90:2e:e8:41:84:c0:08:9b:e8:0d:4d:7b:60:ee:0d:95:e0:4a:bb:20:60:3a:9c:2c:a8:5f:28:fe:38:81:d7:a3:01:e7:bf:e1:96:f5:c4:20:40:ea:ca:35:7d:a2:2f:76:ae:6c:13:8f:de:48:38:d4:23:5a:d5:c2:4c:84:34:45:bf:59:27:00:bb:7b:39:77:b7:cf:47:4c:d6:ca:a9:5d:90:e4:cb:83:89:c8:33:91:a1:7b:c4:c1:16:60:10:4a:ec:09:39:f5:66:6b:5c:a9:26:c4:bb:86:66:3b:94:d2:71:b8:7e:e9:da:38:6c:43:a8:df:d3:a1:0c:1a:21:6d:a4:07:f2:6f" value="17030300453ae5cd35e34ea636696e0ba761fcccdec5615872d797e7cd31861fa097512c2892a21cfcd7c4cfac6d842a6894b9a35aca26c3a7d368aa35e0b1d26b85511f2b944116e8ce1703030093e5dce2ab8e0ea2967e72102406b769902ee84184c0089be80d4d7b60ee0d95e04abb20603a9c2ca85f28fe3881d7a301e7bfe196f5c42040eaca357da22f76ae6c138fde4838d4235ad5c24c843445bf592700bb7b3977b7cf474cd6caa95d90e4cb8389c83391a17bc4c11660104aec0939f5666b5ca926c4bb86663b94d271b87ee9da386c43a8dfd3a10c1a216da407f26f"/>
      <field name="data.len" showname="Length: 226" size="0" pos="54" show="226"/>
  </field>
</proto>
</packet>


<packet>
  <proto name="geninfo" pos="0" showname="General information" size="54">
    <field name="num" pos="0" show="17" showname="Number" value="11" size="54"/>
    <field name="len" pos="0" show="54" showname="Frame Length" value="36" size="54"/>
    <field name="caplen" pos="0" show="54" showname="Captured Length" value="36" size="54"/>
    <field name="timestamp" pos="0" show="Jun 27, 2019 12:20:59.220641000 CEST" showname="Captured Time" value="1561630859.220641000" size="54"/>
  </proto>
  <proto name="frame" showname="Frame 17: 54 bytes on wire (432 bits), 54 bytes captured (432 bits) on interface 0" size="54" pos="0">
    <field name="frame.interface_id" showname="Interface id: 0" size="0" pos="0" show="0"/>
    <field name="frame.encap_type" showname="Encapsulation type: Ethernet (1)" size="0" pos="0" show="1"/>
    <field name="frame.time" showname="Arrival Time: Jun 27, 2019 12:20:59.220641000 CEST" size="0" pos="0" show="&quot;Jun 27, 2019 12:20:59.220641000 CEST&quot;"/>
    <field name="frame.offset_shift" showname="Time shift for this packet: 0.000000000 seconds" size="0" pos="0" show="0.000000000"/>
    <field name="frame.time_epoch" showname="Epoch Time: 1561630859.220641000 seconds" size="0" pos="0" show="1561630859.220641000"/>
    <field name="frame.time_delta" showname="Time delta from previous captured frame: 0.003621000 seconds" size="0" pos="0" show="0.003621000"/>
    <field name="frame.time_delta_displayed" showname="Time delta from previous displayed frame: 0.003621000 seconds" size="0" pos="0" show="0.003621000"/>
    <field name="frame.time_relative" showname="Time since reference or first frame: 0.057697000 seconds" size="0" pos="0" show="0.057697000"/>
    <field name="frame.number" showname="Frame Number: 17" size="0" pos="0" show="17"/>
    <field name="frame.len" showname="Frame Length: 54 bytes (432 bits)" size="0" pos="0" show="54"/>
    <field name="frame.cap_len" showname="Capture Length: 54 bytes (432 bits)" size="0" pos="0" show="54"/>
    <field name="frame.marked" showname="Frame is marked: False" size="0" pos="0" show="0"/>
    <field name="frame.ignored" showname="Frame is ignored: False" size="0" pos="0" show="0"/>
    <field name="frame.protocols" showname="Protocols in frame: eth:ip:tcp" size="0" pos="0" show="eth:ip:tcp"/>
  </proto>
  <proto name="eth" showname="Ethernet II, Src: 02:42:71:12:56:af (02:42:71:12:56:af), Dst: 02:42:ac:11:00:02 (02:42:ac:11:00:02)" size="14" pos="0">
    <field name="eth.dst" showname="Destination: 02:42:ac:11:00:02 (02:42:ac:11:00:02)" size="6" pos="0" show="02:42:ac:11:00:02" value="0242ac110002">
      <field name="eth.addr" showname="Address: 02:42:ac:11:00:02 (02:42:ac:11:00:02)" size="6" pos="0" show="02:42:ac:11:00:02" value="0242ac110002"/>
      <field name="eth.lg" showname=".... ..1. .... .... .... .... = LG bit: Locally administered address (this is NOT the factory default)" size="3" pos="0" show="1" value="1" unmaskedvalue="0242ac"/>
      <field name="eth.ig" showname=".... ...0 .... .... .... .... = IG bit: Individual address (unicast)" size="3" pos="0" show="0" value="0" unmaskedvalue="0242ac"/>
    </field>
    <field name="eth.src" showname="Source: 02:42:71:12:56:af (02:42:71:12:56:af)" size="6" pos="6" show="02:42:71:12:56:af" value="0242711256af">
      <field name="eth.addr" showname="Address: 02:42:71:12:56:af (02:42:71:12:56:af)" size="6" pos="6" show="02:42:71:12:56:af" value="0242711256af"/>
      <field name="eth.lg" showname=".... ..1. .... .... .... .... = LG bit: Locally administered address (this is NOT the factory default)" size="3" pos="6" show="1" value="1" unmaskedvalue="024271"/>
      <field name="eth.ig" showname=".... ...0 .... .... .... .... = IG bit: Individual address (unicast)" size="3" pos="6" show="0" value="0" unmaskedvalue="024271"/>
    </field>
    <field name="eth.type" showname="Type: IP (0x0800)" size="2" pos="12" show="2048" value="0800"/>
  </proto>
  <proto name="ip" showname="Internet Protocol Version 4, Src: 1.1.1.1 (1.1.1.1), Dst: 172.17.0.2 (172.17.0.2)" size="20" pos="14">
    <field name="ip.version" showname="Version: 4" size="1" pos="14" show="4" value="45"/>
    <field name="ip.hdr_len" showname="Header length: 20 bytes" size="1" pos="14" show="20" value="45"/>
    <field name="ip.dsfield" showname="Differentiated Services Field: 0x00 (DSCP 0x00: Default; ECN: 0x00: Not-ECT (Not ECN-Capable Transport))" size="1" pos="15" show="0" value="00">
      <field name="ip.dsfield.dscp" showname="0000 00.. = Differentiated Services Codepoint: Default (0x00)" size="1" pos="15" show="0" value="0" unmaskedvalue="00"/>
      <field name="ip.dsfield.ecn" showname=".... ..00 = Explicit Congestion Notification: Not-ECT (Not ECN-Capable Transport) (0x00)" size="1" pos="15" show="0" value="0" unmaskedvalue="00"/>
    </field>
    <field name="ip.len" showname="Total Length: 40" size="2" pos="16" show="40" value="0028"/>
    <field name="ip.id" showname="Identification: 0x85ae (34222)" size="2" pos="18" show="34222" value="85ae"/>
    <field name="ip.flags" showname="Flags: 0x02 (Don&apos;t Fragment)" size="1" pos="20" show="2" value="40">
      <field name="ip.flags.rb" showname="0... .... = Reserved bit: Not set" size="1" pos="20" show="0" value="40"/>
      <field name="ip.flags.df" showname=".1.. .... = Don&apos;t fragment: Set" size="1" pos="20" show="1" value="40"/>
      <field name="ip.flags.mf" showname="..0. .... = More fragments: Not set" size="1" pos="20" show="0" value="40"/>
    </field>
    <field name="ip.frag_offset" showname="Fragment offset: 0" size="2" pos="20" show="0" value="4000"/>
    <field name="ip.ttl" showname="Time to live: 57" size="1" pos="22" show="57" value="39"/>
    <field name="ip.proto" showname="Protocol: TCP (6)" size="1" pos="23" show="6" value="06"/>
    <field name="ip.checksum" showname="Header checksum: 0x0e0d [validation disabled]" size="2" pos="24" show="3597" value="0e0d">
      <field name="ip.checksum_good" showname="Good: False" size="2" pos="24" show="0" value="0e0d"/>
      <field name="ip.checksum_bad" showname="Bad: False" size="2" pos="24" show="0" value="0e0d"/>
    </field>
    <field name="ip.src" showname="Source: 1.1.1.1 (1.1.1.1)" size="4" pos="26" show="1.1.1.1" value="01010101"/>
    <field name="ip.addr" showname="Source or Destination Address: 1.1.1.1 (1.1.1.1)" hide="yes" size="4" pos="26" show="1.1.1.1" value="01010101"/>
    <field name="ip.src_host" showname="Source Host: 1.1.1.1" hide="yes" size="4" pos="26" show="1.1.1.1" value="01010101"/>
    <field name="ip.host" showname="Source or Destination Host: 1.1.1.1" hide="yes" size="4" pos="26" show="1.1.1.1" value="01010101"/>
    <field name="ip.dst" showname="Destination: 172.17.0.2 (172.17.0.2)" size="4" pos="30" show="172.17.0.2" value="ac110002"/>
    <field name="ip.addr" showname="Source or Destination Address: 172.17.0.2 (172.17.0.2)" hide="yes" size="4" pos="30" show="172.17.0.2" value="ac110002"/>
    <field name="ip.dst_host" showname="Destination Host: 172.17.0.2" hide="yes" size="4" pos="30" show="172.17.0.2" value="ac110002"/>
    <field name="ip.host" showname="Source or Destination Host: 172.17.0.2" hide="yes" size="4" pos="30" show="172.17.0.2" value="ac110002"/>
  </proto>
  <proto name="tcp" showname="Transmission Control Protocol, Src Port: 853 (853), Dst Port: 59694 (59694), Seq: 3050, Ack: 570, Len: 0" size="20" pos="34">
    <field name="tcp.srcport" showname="Source port: 853 (853)" size="2" pos="34" show="853" value="0355"/>
    <field name="tcp.dstport" showname="Destination port: 59694 (59694)" size="2" pos="36" show="59694" value="e92e"/>
    <field name="tcp.port" showname="Source or Destination Port: 853" hide="yes" size="2" pos="34" show="853" value="0355"/>
    <field name="tcp.port" showname="Source or Destination Port: 59694" hide="yes" size="2" pos="36" show="59694" value="e92e"/>
    <field name="tcp.stream" showname="Stream index: 0" size="0" pos="34" show="0"/>
    <field name="tcp.len" showname="TCP Segment Len: 0" hide="yes" size="1" pos="46" show="0" value="50"/>
    <field name="tcp.seq" showname="Sequence number: 3050    (relative sequence number)" size="4" pos="38" show="3050" value="49805fc5"/>
    <field name="tcp.ack" showname="Acknowledgment number: 570    (relative ack number)" size="4" pos="42" show="570" value="04a63530"/>
    <field name="tcp.hdr_len" showname="Header length: 20 bytes" size="1" pos="46" show="20" value="50"/>
    <field name="tcp.flags" showname="Flags: 0x010 (ACK)" size="2" pos="46" show="16" value="10" unmaskedvalue="5010">
      <field name="tcp.flags.res" showname="000. .... .... = Reserved: Not set" size="1" pos="46" show="0" value="0" unmaskedvalue="50"/>
      <field name="tcp.flags.ns" showname="...0 .... .... = Nonce: Not set" size="1" pos="46" show="0" value="0" unmaskedvalue="50"/>
      <field name="tcp.flags.cwr" showname=".... 0... .... = Congestion Window Reduced (CWR): Not set" size="1" pos="47" show="0" value="0" unmaskedvalue="10"/>
      <field name="tcp.flags.ecn" showname=".... .0.. .... = ECN-Echo: Not set" size="1" pos="47" show="0" value="0" unmaskedvalue="10"/>
      <field name="tcp.flags.urg" showname=".... ..0. .... = Urgent: Not set" size="1" pos="47" show="0" value="0" unmaskedvalue="10"/>
      <field name="tcp.flags.ack" showname=".... ...1 .... = Acknowledgment: Set" size="1" pos="47" show="1" value="1" unmaskedvalue="10"/>
      <field name="tcp.flags.push" showname=".... .... 0... = Push: Not set" size="1" pos="47" show="0" value="0" unmaskedvalue="10"/>
      <field name="tcp.flags.reset" showname=".... .... .0.. = Reset: Not set" size="1" pos="47" show="0" value="0" unmaskedvalue="10"/>
      <field name="tcp.flags.syn" showname=".... .... ..0. = Syn: Not set" size="1" pos="47" show="0" value="0" unmaskedvalue="10"/>
      <field name="tcp.flags.fin" showname=".... .... ...0 = Fin: Not set" size="1" pos="47" show="0" value="0" unmaskedvalue="10"/>
    </field>
    <field name="tcp.window_size_value" showname="Window size value: 31" size="2" pos="48" show="31" value="001f"/>
    <field name="tcp.window_size" showname="Calculated window size: 31744" size="2" pos="48" show="31744" value="001f"/>
    <field name="tcp.window_size_scalefactor" showname="Window size scaling factor: 1024" size="2" pos="48" show="1024" value="001f"/>
    <field name="tcp.checksum" showname="Checksum: 0x3201 [validation disabled]" size="2" pos="50" show="12801" value="3201">
      <field name="tcp.checksum_good" showname="Good Checksum: False" size="2" pos="50" show="0" value="3201"/>
      <field name="tcp.checksum_bad" showname="Bad Checksum: False" size="2" pos="50" show="0" value="3201"/>
    </field>
    <field name="tcp.analysis" showname="SEQ/ACK analysis" size="0" pos="34" show="" value="">
      <field name="tcp.analysis.acks_frame" showname="This is an ACK to the segment in frame: 16" size="0" pos="34" show="16"/>
      <field name="tcp.analysis.ack_rtt" showname="The RTT to ACK the segment was: 0.003621000 seconds" size="0" pos="34" show="0.003621000"/>
    </field>
  </proto>
</packet>


<packet>
  <proto name="geninfo" pos="0" showname="General information" size="206">
    <field name="num" pos="0" show="18" showname="Number" value="12" size="206"/>
    <field name="len" pos="0" show="206" showname="Frame Length" value="ce" size="206"/>
    <field name="caplen" pos="0" show="206" showname="Captured Length" value="ce" size="206"/>
    <field name="timestamp" pos="0" show="Jun 27, 2019 12:20:59.221165000 CEST" showname="Captured Time" value="1561630859.221165000" size="206"/>
  </proto>
  <proto name="frame" showname="Frame 18: 206 bytes on wire (1648 bits), 206 bytes captured (1648 bits) on interface 0" size="206" pos="0">
    <field name="frame.interface_id" showname="Interface id: 0" size="0" pos="0" show="0"/>
    <field name="frame.encap_type" showname="Encapsulation type: Ethernet (1)" size="0" pos="0" show="1"/>
    <field name="frame.time" showname="Arrival Time: Jun 27, 2019 12:20:59.221165000 CEST" size="0" pos="0" show="&quot;Jun 27, 2019 12:20:59.221165000 CEST&quot;"/>
    <field name="frame.offset_shift" showname="Time shift for this packet: 0.000000000 seconds" size="0" pos="0" show="0.000000000"/>
    <field name="frame.time_epoch" showname="Epoch Time: 1561630859.221165000 seconds" size="0" pos="0" show="1561630859.221165000"/>
    <field name="frame.time_delta" showname="Time delta from previous captured frame: 0.000524000 seconds" size="0" pos="0" show="0.000524000"/>
    <field name="frame.time_delta_displayed" showname="Time delta from previous displayed frame: 0.000524000 seconds" size="0" pos="0" show="0.000524000"/>
    <field name="frame.time_relative" showname="Time since reference or first frame: 0.058221000 seconds" size="0" pos="0" show="0.058221000"/>
    <field name="frame.number" showname="Frame Number: 18" size="0" pos="0" show="18"/>
    <field name="frame.len" showname="Frame Length: 206 bytes (1648 bits)" size="0" pos="0" show="206"/>
    <field name="frame.cap_len" showname="Capture Length: 206 bytes (1648 bits)" size="0" pos="0" show="206"/>
    <field name="frame.marked" showname="Frame is marked: False" size="0" pos="0" show="0"/>
    <field name="frame.ignored" showname="Frame is ignored: False" size="0" pos="0" show="0"/>
    <field name="frame.protocols" showname="Protocols in frame: eth:ip:tcp:data" size="0" pos="0" show="eth:ip:tcp:data"/>
  </proto>
  <proto name="eth" showname="Ethernet II, Src: 02:42:71:12:56:af (02:42:71:12:56:af), Dst: 02:42:ac:11:00:02 (02:42:ac:11:00:02)" size="14" pos="0">
    <field name="eth.dst" showname="Destination: 02:42:ac:11:00:02 (02:42:ac:11:00:02)" size="6" pos="0" show="02:42:ac:11:00:02" value="0242ac110002">
      <field name="eth.addr" showname="Address: 02:42:ac:11:00:02 (02:42:ac:11:00:02)" size="6" pos="0" show="02:42:ac:11:00:02" value="0242ac110002"/>
      <field name="eth.lg" showname=".... ..1. .... .... .... .... = LG bit: Locally administered address (this is NOT the factory default)" size="3" pos="0" show="1" value="1" unmaskedvalue="0242ac"/>
      <field name="eth.ig" showname=".... ...0 .... .... .... .... = IG bit: Individual address (unicast)" size="3" pos="0" show="0" value="0" unmaskedvalue="0242ac"/>
    </field>
    <field name="eth.src" showname="Source: 02:42:71:12:56:af (02:42:71:12:56:af)" size="6" pos="6" show="02:42:71:12:56:af" value="0242711256af">
      <field name="eth.addr" showname="Address: 02:42:71:12:56:af (02:42:71:12:56:af)" size="6" pos="6" show="02:42:71:12:56:af" value="0242711256af"/>
      <field name="eth.lg" showname=".... ..1. .... .... .... .... = LG bit: Locally administered address (this is NOT the factory default)" size="3" pos="6" show="1" value="1" unmaskedvalue="024271"/>
      <field name="eth.ig" showname=".... ...0 .... .... .... .... = IG bit: Individual address (unicast)" size="3" pos="6" show="0" value="0" unmaskedvalue="024271"/>
    </field>
    <field name="eth.type" showname="Type: IP (0x0800)" size="2" pos="12" show="2048" value="0800"/>
  </proto>
  <proto name="ip" showname="Internet Protocol Version 4, Src: 1.1.1.1 (1.1.1.1), Dst: 172.17.0.2 (172.17.0.2)" size="20" pos="14">
    <field name="ip.version" showname="Version: 4" size="1" pos="14" show="4" value="45"/>
    <field name="ip.hdr_len" showname="Header length: 20 bytes" size="1" pos="14" show="20" value="45"/>
    <field name="ip.dsfield" showname="Differentiated Services Field: 0x00 (DSCP 0x00: Default; ECN: 0x00: Not-ECT (Not ECN-Capable Transport))" size="1" pos="15" show="0" value="00">
      <field name="ip.dsfield.dscp" showname="0000 00.. = Differentiated Services Codepoint: Default (0x00)" size="1" pos="15" show="0" value="0" unmaskedvalue="00"/>
      <field name="ip.dsfield.ecn" showname=".... ..00 = Explicit Congestion Notification: Not-ECT (Not ECN-Capable Transport) (0x00)" size="1" pos="15" show="0" value="0" unmaskedvalue="00"/>
    </field>
    <field name="ip.len" showname="Total Length: 192" size="2" pos="16" show="192" value="00c0"/>
    <field name="ip.id" showname="Identification: 0x85af (34223)" size="2" pos="18" show="34223" value="85af"/>
    <field name="ip.flags" showname="Flags: 0x02 (Don&apos;t Fragment)" size="1" pos="20" show="2" value="40">
      <field name="ip.flags.rb" showname="0... .... = Reserved bit: Not set" size="1" pos="20" show="0" value="40"/>
      <field name="ip.flags.df" showname=".1.. .... = Don&apos;t fragment: Set" size="1" pos="20" show="1" value="40"/>
      <field name="ip.flags.mf" showname="..0. .... = More fragments: Not set" size="1" pos="20" show="0" value="40"/>
    </field>
    <field name="ip.frag_offset" showname="Fragment offset: 0" size="2" pos="20" show="0" value="4000"/>
    <field name="ip.ttl" showname="Time to live: 57" size="1" pos="22" show="57" value="39"/>
    <field name="ip.proto" showname="Protocol: TCP (6)" size="1" pos="23" show="6" value="06"/>
    <field name="ip.checksum" showname="Header checksum: 0x0d74 [validation disabled]" size="2" pos="24" show="3444" value="0d74">
      <field name="ip.checksum_good" showname="Good: False" size="2" pos="24" show="0" value="0d74"/>
      <field name="ip.checksum_bad" showname="Bad: False" size="2" pos="24" show="0" value="0d74"/>
    </field>
    <field name="ip.src" showname="Source: 1.1.1.1 (1.1.1.1)" size="4" pos="26" show="1.1.1.1" value="01010101"/>
    <field name="ip.addr" showname="Source or Destination Address: 1.1.1.1 (1.1.1.1)" hide="yes" size="4" pos="26" show="1.1.1.1" value="01010101"/>
    <field name="ip.src_host" showname="Source Host: 1.1.1.1" hide="yes" size="4" pos="26" show="1.1.1.1" value="01010101"/>
    <field name="ip.host" showname="Source or Destination Host: 1.1.1.1" hide="yes" size="4" pos="26" show="1.1.1.1" value="01010101"/>
    <field name="ip.dst" showname="Destination: 172.17.0.2 (172.17.0.2)" size="4" pos="30" show="172.17.0.2" value="ac110002"/>
    <field name="ip.addr" showname="Source or Destination Address: 172.17.0.2 (172.17.0.2)" hide="yes" size="4" pos="30" show="172.17.0.2" value="ac110002"/>
    <field name="ip.dst_host" showname="Destination Host: 172.17.0.2" hide="yes" size="4" pos="30" show="172.17.0.2" value="ac110002"/>
    <field name="ip.host" showname="Source or Destination Host: 172.17.0.2" hide="yes" size="4" pos="30" show="172.17.0.2" value="ac110002"/>
  </proto>
  <proto name="tcp" showname="Transmission Control Protocol, Src Port: 853 (853), Dst Port: 59694 (59694), Seq: 3050, Ack: 570, Len: 152" size="20" pos="34">
    <field name="tcp.srcport" showname="Source port: 853 (853)" size="2" pos="34" show="853" value="0355"/>
    <field name="tcp.dstport" showname="Destination port: 59694 (59694)" size="2" pos="36" show="59694" value="e92e"/>
    <field name="tcp.port" showname="Source or Destination Port: 853" hide="yes" size="2" pos="34" show="853" value="0355"/>
    <field name="tcp.port" showname="Source or Destination Port: 59694" hide="yes" size="2" pos="36" show="59694" value="e92e"/>
    <field name="tcp.stream" showname="Stream index: 0" size="0" pos="34" show="0"/>
    <field name="tcp.len" showname="TCP Segment Len: 152" hide="yes" size="1" pos="46" show="152" value="50"/>
    <field name="tcp.seq" showname="Sequence number: 3050    (relative sequence number)" size="4" pos="38" show="3050" value="49805fc5"/>
    <field name="tcp.nxtseq" showname="Next sequence number: 3202    (relative sequence number)" size="0" pos="34" show="3202"/>
    <field name="tcp.ack" showname="Acknowledgment number: 570    (relative ack number)" size="4" pos="42" show="570" value="04a63530"/>
    <field name="tcp.hdr_len" showname="Header length: 20 bytes" size="1" pos="46" show="20" value="50"/>
    <field name="tcp.flags" showname="Flags: 0x018 (PSH, ACK)" size="2" pos="46" show="24" value="18" unmaskedvalue="5018">
      <field name="tcp.flags.res" showname="000. .... .... = Reserved: Not set" size="1" pos="46" show="0" value="0" unmaskedvalue="50"/>
      <field name="tcp.flags.ns" showname="...0 .... .... = Nonce: Not set" size="1" pos="46" show="0" value="0" unmaskedvalue="50"/>
      <field name="tcp.flags.cwr" showname=".... 0... .... = Congestion Window Reduced (CWR): Not set" size="1" pos="47" show="0" value="0" unmaskedvalue="18"/>
      <field name="tcp.flags.ecn" showname=".... .0.. .... = ECN-Echo: Not set" size="1" pos="47" show="0" value="0" unmaskedvalue="18"/>
      <field name="tcp.flags.urg" showname=".... ..0. .... = Urgent: Not set" size="1" pos="47" show="0" value="0" unmaskedvalue="18"/>
      <field name="tcp.flags.ack" showname=".... ...1 .... = Acknowledgment: Set" size="1" pos="47" show="1" value="1" unmaskedvalue="18"/>
      <field name="tcp.flags.push" showname=".... .... 1... = Push: Set" size="1" pos="47" show="1" value="1" unmaskedvalue="18"/>
      <field name="tcp.flags.reset" showname=".... .... .0.. = Reset: Not set" size="1" pos="47" show="0" value="0" unmaskedvalue="18"/>
      <field name="tcp.flags.syn" showname=".... .... ..0. = Syn: Not set" size="1" pos="47" show="0" value="0" unmaskedvalue="18"/>
      <field name="tcp.flags.fin" showname=".... .... ...0 = Fin: Not set" size="1" pos="47" show="0" value="0" unmaskedvalue="18"/>
    </field>
    <field name="tcp.window_size_value" showname="Window size value: 31" size="2" pos="48" show="31" value="001f"/>
    <field name="tcp.window_size" showname="Calculated window size: 31744" size="2" pos="48" show="31744" value="001f"/>
    <field name="tcp.window_size_scalefactor" showname="Window size scaling factor: 1024" size="2" pos="48" show="1024" value="001f"/>
    <field name="tcp.checksum" showname="Checksum: 0xa0a9 [validation disabled]" size="2" pos="50" show="41129" value="a0a9">
      <field name="tcp.checksum_good" showname="Good Checksum: False" size="2" pos="50" show="0" value="a0a9"/>
      <field name="tcp.checksum_bad" showname="Bad Checksum: False" size="2" pos="50" show="0" value="a0a9"/>
    </field>
    <field name="tcp.analysis" showname="SEQ/ACK analysis" size="0" pos="34" show="" value="">
      <field name="tcp.analysis.bytes_in_flight" showname="Bytes in flight: 152" size="0" pos="34" show="152"/>
    </field>
  </proto>
  <proto name="fake-field-wrapper">
    <field name="data" value="1703030093911a19478fc78b4b68f136c7ada1e040b4076b5e0ed3b7668549d2a76c61d0d915627bd14e0f4296abd6e37bd05b40198c9dd1ab089b2af1a5c67417b40a5adfe53265132277739ee734ef796243a174c03bc8ee08bd77b997ab755f7a0475a3674a2d929b350bc6cf8f8780f3dbafee22b084be2a984852c32b8a41d9939e93e11deb68b2e173b2e2b81f25ba97c773be0bbd">
      <field name="data.data" showname="Data: 1703030093911a19478fc78b4b68f136c7ada1e040b4076b..." size="152" pos="54" show="17:03:03:00:93:91:1a:19:47:8f:c7:8b:4b:68:f1:36:c7:ad:a1:e0:40:b4:07:6b:5e:0e:d3:b7:66:85:49:d2:a7:6c:61:d0:d9:15:62:7b:d1:4e:0f:42:96:ab:d6:e3:7b:d0:5b:40:19:8c:9d:d1:ab:08:9b:2a:f1:a5:c6:74:17:b4:0a:5a:df:e5:32:65:13:22:77:73:9e:e7:34:ef:79:62:43:a1:74:c0:3b:c8:ee:08:bd:77:b9:97:ab:75:5f:7a:04:75:a3:67:4a:2d:92:9b:35:0b:c6:cf:8f:87:80:f3:db:af:ee:22:b0:84:be:2a:98:48:52:c3:2b:8a:41:d9:93:9e:93:e1:1d:eb:68:b2:e1:73:b2:e2:b8:1f:25:ba:97:c7:73:be:0b:bd" value="1703030093911a19478fc78b4b68f136c7ada1e040b4076b5e0ed3b7668549d2a76c61d0d915627bd14e0f4296abd6e37bd05b40198c9dd1ab089b2af1a5c67417b40a5adfe53265132277739ee734ef796243a174c03bc8ee08bd77b997ab755f7a0475a3674a2d929b350bc6cf8f8780f3dbafee22b084be2a984852c32b8a41d9939e93e11deb68b2e173b2e2b81f25ba97c773be0bbd"/>
      <field name="data.len" showname="Length: 152" size="0" pos="54" show="152"/>
  </field>
</proto>
</packet>


<packet>
  <proto name="geninfo" pos="0" showname="General information" size="78">
    <field name="num" pos="0" show="19" showname="Number" value="13" size="78"/>
    <field name="len" pos="0" show="78" showname="Frame Length" value="4e" size="78"/>
    <field name="caplen" pos="0" show="78" showname="Captured Length" value="4e" size="78"/>
    <field name="timestamp" pos="0" show="Jun 27, 2019 12:20:59.221373000 CEST" showname="Captured Time" value="1561630859.221373000" size="78"/>
  </proto>
  <proto name="frame" showname="Frame 19: 78 bytes on wire (624 bits), 78 bytes captured (624 bits) on interface 0" size="78" pos="0">
    <field name="frame.interface_id" showname="Interface id: 0" size="0" pos="0" show="0"/>
    <field name="frame.encap_type" showname="Encapsulation type: Ethernet (1)" size="0" pos="0" show="1"/>
    <field name="frame.time" showname="Arrival Time: Jun 27, 2019 12:20:59.221373000 CEST" size="0" pos="0" show="&quot;Jun 27, 2019 12:20:59.221373000 CEST&quot;"/>
    <field name="frame.offset_shift" showname="Time shift for this packet: 0.000000000 seconds" size="0" pos="0" show="0.000000000"/>
    <field name="frame.time_epoch" showname="Epoch Time: 1561630859.221373000 seconds" size="0" pos="0" show="1561630859.221373000"/>
    <field name="frame.time_delta" showname="Time delta from previous captured frame: 0.000208000 seconds" size="0" pos="0" show="0.000208000"/>
    <field name="frame.time_delta_displayed" showname="Time delta from previous displayed frame: 0.000208000 seconds" size="0" pos="0" show="0.000208000"/>
    <field name="frame.time_relative" showname="Time since reference or first frame: 0.058429000 seconds" size="0" pos="0" show="0.058429000"/>
    <field name="frame.number" showname="Frame Number: 19" size="0" pos="0" show="19"/>
    <field name="frame.len" showname="Frame Length: 78 bytes (624 bits)" size="0" pos="0" show="78"/>
    <field name="frame.cap_len" showname="Capture Length: 78 bytes (624 bits)" size="0" pos="0" show="78"/>
    <field name="frame.marked" showname="Frame is marked: False" size="0" pos="0" show="0"/>
    <field name="frame.ignored" showname="Frame is ignored: False" size="0" pos="0" show="0"/>
    <field name="frame.protocols" showname="Protocols in frame: eth:ip:tcp:data" size="0" pos="0" show="eth:ip:tcp:data"/>
  </proto>
  <proto name="eth" showname="Ethernet II, Src: 02:42:ac:11:00:02 (02:42:ac:11:00:02), Dst: 02:42:71:12:56:af (02:42:71:12:56:af)" size="14" pos="0">
    <field name="eth.dst" showname="Destination: 02:42:71:12:56:af (02:42:71:12:56:af)" size="6" pos="0" show="02:42:71:12:56:af" value="0242711256af">
      <field name="eth.addr" showname="Address: 02:42:71:12:56:af (02:42:71:12:56:af)" size="6" pos="0" show="02:42:71:12:56:af" value="0242711256af"/>
      <field name="eth.lg" showname=".... ..1. .... .... .... .... = LG bit: Locally administered address (this is NOT the factory default)" size="3" pos="0" show="1" value="1" unmaskedvalue="024271"/>
      <field name="eth.ig" showname=".... ...0 .... .... .... .... = IG bit: Individual address (unicast)" size="3" pos="0" show="0" value="0" unmaskedvalue="024271"/>
    </field>
    <field name="eth.src" showname="Source: 02:42:ac:11:00:02 (02:42:ac:11:00:02)" size="6" pos="6" show="02:42:ac:11:00:02" value="0242ac110002">
      <field name="eth.addr" showname="Address: 02:42:ac:11:00:02 (02:42:ac:11:00:02)" size="6" pos="6" show="02:42:ac:11:00:02" value="0242ac110002"/>
      <field name="eth.lg" showname=".... ..1. .... .... .... .... = LG bit: Locally administered address (this is NOT the factory default)" size="3" pos="6" show="1" value="1" unmaskedvalue="0242ac"/>
      <field name="eth.ig" showname=".... ...0 .... .... .... .... = IG bit: Individual address (unicast)" size="3" pos="6" show="0" value="0" unmaskedvalue="0242ac"/>
    </field>
    <field name="eth.type" showname="Type: IP (0x0800)" size="2" pos="12" show="2048" value="0800"/>
  </proto>
  <proto name="ip" showname="Internet Protocol Version 4, Src: 172.17.0.2 (172.17.0.2), Dst: 1.1.1.1 (1.1.1.1)" size="20" pos="14">
    <field name="ip.version" showname="Version: 4" size="1" pos="14" show="4" value="45"/>
    <field name="ip.hdr_len" showname="Header length: 20 bytes" size="1" pos="14" show="20" value="45"/>
    <field name="ip.dsfield" showname="Differentiated Services Field: 0x00 (DSCP 0x00: Default; ECN: 0x00: Not-ECT (Not ECN-Capable Transport))" size="1" pos="15" show="0" value="00">
      <field name="ip.dsfield.dscp" showname="0000 00.. = Differentiated Services Codepoint: Default (0x00)" size="1" pos="15" show="0" value="0" unmaskedvalue="00"/>
      <field name="ip.dsfield.ecn" showname=".... ..00 = Explicit Congestion Notification: Not-ECT (Not ECN-Capable Transport) (0x00)" size="1" pos="15" show="0" value="0" unmaskedvalue="00"/>
    </field>
    <field name="ip.len" showname="Total Length: 64" size="2" pos="16" show="64" value="0040"/>
    <field name="ip.id" showname="Identification: 0x424d (16973)" size="2" pos="18" show="16973" value="424d"/>
    <field name="ip.flags" showname="Flags: 0x02 (Don&apos;t Fragment)" size="1" pos="20" show="2" value="40">
      <field name="ip.flags.rb" showname="0... .... = Reserved bit: Not set" size="1" pos="20" show="0" value="40"/>
      <field name="ip.flags.df" showname=".1.. .... = Don&apos;t fragment: Set" size="1" pos="20" show="1" value="40"/>
      <field name="ip.flags.mf" showname="..0. .... = More fragments: Not set" size="1" pos="20" show="0" value="40"/>
    </field>
    <field name="ip.frag_offset" showname="Fragment offset: 0" size="2" pos="20" show="0" value="4000"/>
    <field name="ip.ttl" showname="Time to live: 64" size="1" pos="22" show="64" value="40"/>
    <field name="ip.proto" showname="Protocol: TCP (6)" size="1" pos="23" show="6" value="06"/>
    <field name="ip.checksum" showname="Header checksum: 0x4a56 [validation disabled]" size="2" pos="24" show="19030" value="4a56">
      <field name="ip.checksum_good" showname="Good: False" size="2" pos="24" show="0" value="4a56"/>
      <field name="ip.checksum_bad" showname="Bad: False" size="2" pos="24" show="0" value="4a56"/>
    </field>
    <field name="ip.src" showname="Source: 172.17.0.2 (172.17.0.2)" size="4" pos="26" show="172.17.0.2" value="ac110002"/>
    <field name="ip.addr" showname="Source or Destination Address: 172.17.0.2 (172.17.0.2)" hide="yes" size="4" pos="26" show="172.17.0.2" value="ac110002"/>
    <field name="ip.src_host" showname="Source Host: 172.17.0.2" hide="yes" size="4" pos="26" show="172.17.0.2" value="ac110002"/>
    <field name="ip.host" showname="Source or Destination Host: 172.17.0.2" hide="yes" size="4" pos="26" show="172.17.0.2" value="ac110002"/>
    <field name="ip.dst" showname="Destination: 1.1.1.1 (1.1.1.1)" size="4" pos="30" show="1.1.1.1" value="01010101"/>
    <field name="ip.addr" showname="Source or Destination Address: 1.1.1.1 (1.1.1.1)" hide="yes" size="4" pos="30" show="1.1.1.1" value="01010101"/>
    <field name="ip.dst_host" showname="Destination Host: 1.1.1.1" hide="yes" size="4" pos="30" show="1.1.1.1" value="01010101"/>
    <field name="ip.host" showname="Source or Destination Host: 1.1.1.1" hide="yes" size="4" pos="30" show="1.1.1.1" value="01010101"/>
  </proto>
  <proto name="tcp" showname="Transmission Control Protocol, Src Port: 59694 (59694), Dst Port: 853 (853), Seq: 570, Ack: 3202, Len: 24" size="20" pos="34">
    <field name="tcp.srcport" showname="Source port: 59694 (59694)" size="2" pos="34" show="59694" value="e92e"/>
    <field name="tcp.dstport" showname="Destination port: 853 (853)" size="2" pos="36" show="853" value="0355"/>
    <field name="tcp.port" showname="Source or Destination Port: 59694" hide="yes" size="2" pos="34" show="59694" value="e92e"/>
    <field name="tcp.port" showname="Source or Destination Port: 853" hide="yes" size="2" pos="36" show="853" value="0355"/>
    <field name="tcp.stream" showname="Stream index: 0" size="0" pos="34" show="0"/>
    <field name="tcp.len" showname="TCP Segment Len: 24" hide="yes" size="1" pos="46" show="24" value="50"/>
    <field name="tcp.seq" showname="Sequence number: 570    (relative sequence number)" size="4" pos="38" show="570" value="04a63530"/>
    <field name="tcp.nxtseq" showname="Next sequence number: 594    (relative sequence number)" size="0" pos="34" show="594"/>
    <field name="tcp.ack" showname="Acknowledgment number: 3202    (relative ack number)" size="4" pos="42" show="3202" value="4980605d"/>
    <field name="tcp.hdr_len" showname="Header length: 20 bytes" size="1" pos="46" show="20" value="50"/>
    <field name="tcp.flags" showname="Flags: 0x018 (PSH, ACK)" size="2" pos="46" show="24" value="18" unmaskedvalue="5018">
      <field name="tcp.flags.res" showname="000. .... .... = Reserved: Not set" size="1" pos="46" show="0" value="0" unmaskedvalue="50"/>
      <field name="tcp.flags.ns" showname="...0 .... .... = Nonce: Not set" size="1" pos="46" show="0" value="0" unmaskedvalue="50"/>
      <field name="tcp.flags.cwr" showname=".... 0... .... = Congestion Window Reduced (CWR): Not set" size="1" pos="47" show="0" value="0" unmaskedvalue="18"/>
      <field name="tcp.flags.ecn" showname=".... .0.. .... = ECN-Echo: Not set" size="1" pos="47" show="0" value="0" unmaskedvalue="18"/>
      <field name="tcp.flags.urg" showname=".... ..0. .... = Urgent: Not set" size="1" pos="47" show="0" value="0" unmaskedvalue="18"/>
      <field name="tcp.flags.ack" showname=".... ...1 .... = Acknowledgment: Set" size="1" pos="47" show="1" value="1" unmaskedvalue="18"/>
      <field name="tcp.flags.push" showname=".... .... 1... = Push: Set" size="1" pos="47" show="1" value="1" unmaskedvalue="18"/>
      <field name="tcp.flags.reset" showname=".... .... .0.. = Reset: Not set" size="1" pos="47" show="0" value="0" unmaskedvalue="18"/>
      <field name="tcp.flags.syn" showname=".... .... ..0. = Syn: Not set" size="1" pos="47" show="0" value="0" unmaskedvalue="18"/>
      <field name="tcp.flags.fin" showname=".... .... ...0 = Fin: Not set" size="1" pos="47" show="0" value="0" unmaskedvalue="18"/>
    </field>
    <field name="tcp.window_size_value" showname="Window size value: 328" size="2" pos="48" show="328" value="0148"/>
    <field name="tcp.window_size" showname="Calculated window size: 41984" size="2" pos="48" show="41984" value="0148"/>
    <field name="tcp.window_size_scalefactor" showname="Window size scaling factor: 128" size="2" pos="48" show="128" value="0148"/>
    <field name="tcp.checksum" showname="Checksum: 0xae47 [validation disabled]" size="2" pos="50" show="44615" value="ae47">
      <field name="tcp.checksum_good" showname="Good Checksum: False" size="2" pos="50" show="0" value="ae47"/>
      <field name="tcp.checksum_bad" showname="Bad Checksum: False" size="2" pos="50" show="0" value="ae47"/>
    </field>
    <field name="tcp.analysis" showname="SEQ/ACK analysis" size="0" pos="34" show="" value="">
      <field name="tcp.analysis.acks_frame" showname="This is an ACK to the segment in frame: 18" size="0" pos="34" show="18"/>
      <field name="tcp.analysis.ack_rtt" showname="The RTT to ACK the segment was: 0.000208000 seconds" size="0" pos="34" show="0.000208000"/>
      <field name="tcp.analysis.bytes_in_flight" showname="Bytes in flight: 24" size="0" pos="34" show="24"/>
    </field>
  </proto>
  <proto name="fake-field-wrapper">
    <field name="data" value="1703030013ba08e99ca8a44b4e0e48727156d5205abe0806">
      <field name="data.data" showname="Data: 1703030013ba08e99ca8a44b4e0e48727156d5205abe0806" size="24" pos="54" show="17:03:03:00:13:ba:08:e9:9c:a8:a4:4b:4e:0e:48:72:71:56:d5:20:5a:be:08:06" value="1703030013ba08e99ca8a44b4e0e48727156d5205abe0806"/>
      <field name="data.len" showname="Length: 24" size="0" pos="54" show="24"/>
  </field>
</proto>
</packet>


<packet>
  <proto name="geninfo" pos="0" showname="General information" size="54">
    <field name="num" pos="0" show="20" showname="Number" value="14" size="54"/>
    <field name="len" pos="0" show="54" showname="Frame Length" value="36" size="54"/>
    <field name="caplen" pos="0" show="54" showname="Captured Length" value="36" size="54"/>
    <field name="timestamp" pos="0" show="Jun 27, 2019 12:20:59.221440000 CEST" showname="Captured Time" value="1561630859.221440000" size="54"/>
  </proto>
  <proto name="frame" showname="Frame 20: 54 bytes on wire (432 bits), 54 bytes captured (432 bits) on interface 0" size="54" pos="0">
    <field name="frame.interface_id" showname="Interface id: 0" size="0" pos="0" show="0"/>
    <field name="frame.encap_type" showname="Encapsulation type: Ethernet (1)" size="0" pos="0" show="1"/>
    <field name="frame.time" showname="Arrival Time: Jun 27, 2019 12:20:59.221440000 CEST" size="0" pos="0" show="&quot;Jun 27, 2019 12:20:59.221440000 CEST&quot;"/>
    <field name="frame.offset_shift" showname="Time shift for this packet: 0.000000000 seconds" size="0" pos="0" show="0.000000000"/>
    <field name="frame.time_epoch" showname="Epoch Time: 1561630859.221440000 seconds" size="0" pos="0" show="1561630859.221440000"/>
    <field name="frame.time_delta" showname="Time delta from previous captured frame: 0.000067000 seconds" size="0" pos="0" show="0.000067000"/>
    <field name="frame.time_delta_displayed" showname="Time delta from previous displayed frame: 0.000067000 seconds" size="0" pos="0" show="0.000067000"/>
    <field name="frame.time_relative" showname="Time since reference or first frame: 0.058496000 seconds" size="0" pos="0" show="0.058496000"/>
    <field name="frame.number" showname="Frame Number: 20" size="0" pos="0" show="20"/>
    <field name="frame.len" showname="Frame Length: 54 bytes (432 bits)" size="0" pos="0" show="54"/>
    <field name="frame.cap_len" showname="Capture Length: 54 bytes (432 bits)" size="0" pos="0" show="54"/>
    <field name="frame.marked" showname="Frame is marked: False" size="0" pos="0" show="0"/>
    <field name="frame.ignored" showname="Frame is ignored: False" size="0" pos="0" show="0"/>
    <field name="frame.protocols" showname="Protocols in frame: eth:ip:tcp" size="0" pos="0" show="eth:ip:tcp"/>
  </proto>
  <proto name="eth" showname="Ethernet II, Src: 02:42:ac:11:00:02 (02:42:ac:11:00:02), Dst: 02:42:71:12:56:af (02:42:71:12:56:af)" size="14" pos="0">
    <field name="eth.dst" showname="Destination: 02:42:71:12:56:af (02:42:71:12:56:af)" size="6" pos="0" show="02:42:71:12:56:af" value="0242711256af">
      <field name="eth.addr" showname="Address: 02:42:71:12:56:af (02:42:71:12:56:af)" size="6" pos="0" show="02:42:71:12:56:af" value="0242711256af"/>
      <field name="eth.lg" showname=".... ..1. .... .... .... .... = LG bit: Locally administered address (this is NOT the factory default)" size="3" pos="0" show="1" value="1" unmaskedvalue="024271"/>
      <field name="eth.ig" showname=".... ...0 .... .... .... .... = IG bit: Individual address (unicast)" size="3" pos="0" show="0" value="0" unmaskedvalue="024271"/>
    </field>
    <field name="eth.src" showname="Source: 02:42:ac:11:00:02 (02:42:ac:11:00:02)" size="6" pos="6" show="02:42:ac:11:00:02" value="0242ac110002">
      <field name="eth.addr" showname="Address: 02:42:ac:11:00:02 (02:42:ac:11:00:02)" size="6" pos="6" show="02:42:ac:11:00:02" value="0242ac110002"/>
      <field name="eth.lg" showname=".... ..1. .... .... .... .... = LG bit: Locally administered address (this is NOT the factory default)" size="3" pos="6" show="1" value="1" unmaskedvalue="0242ac"/>
      <field name="eth.ig" showname=".... ...0 .... .... .... .... = IG bit: Individual address (unicast)" size="3" pos="6" show="0" value="0" unmaskedvalue="0242ac"/>
    </field>
    <field name="eth.type" showname="Type: IP (0x0800)" size="2" pos="12" show="2048" value="0800"/>
  </proto>
  <proto name="ip" showname="Internet Protocol Version 4, Src: 172.17.0.2 (172.17.0.2), Dst: 1.1.1.1 (1.1.1.1)" size="20" pos="14">
    <field name="ip.version" showname="Version: 4" size="1" pos="14" show="4" value="45"/>
    <field name="ip.hdr_len" showname="Header length: 20 bytes" size="1" pos="14" show="20" value="45"/>
    <field name="ip.dsfield" showname="Differentiated Services Field: 0x00 (DSCP 0x00: Default; ECN: 0x00: Not-ECT (Not ECN-Capable Transport))" size="1" pos="15" show="0" value="00">
      <field name="ip.dsfield.dscp" showname="0000 00.. = Differentiated Services Codepoint: Default (0x00)" size="1" pos="15" show="0" value="0" unmaskedvalue="00"/>
      <field name="ip.dsfield.ecn" showname=".... ..00 = Explicit Congestion Notification: Not-ECT (Not ECN-Capable Transport) (0x00)" size="1" pos="15" show="0" value="0" unmaskedvalue="00"/>
    </field>
    <field name="ip.len" showname="Total Length: 40" size="2" pos="16" show="40" value="0028"/>
    <field name="ip.id" showname="Identification: 0x424e (16974)" size="2" pos="18" show="16974" value="424e"/>
    <field name="ip.flags" showname="Flags: 0x02 (Don&apos;t Fragment)" size="1" pos="20" show="2" value="40">
      <field name="ip.flags.rb" showname="0... .... = Reserved bit: Not set" size="1" pos="20" show="0" value="40"/>
      <field name="ip.flags.df" showname=".1.. .... = Don&apos;t fragment: Set" size="1" pos="20" show="1" value="40"/>
      <field name="ip.flags.mf" showname="..0. .... = More fragments: Not set" size="1" pos="20" show="0" value="40"/>
    </field>
    <field name="ip.frag_offset" showname="Fragment offset: 0" size="2" pos="20" show="0" value="4000"/>
    <field name="ip.ttl" showname="Time to live: 64" size="1" pos="22" show="64" value="40"/>
    <field name="ip.proto" showname="Protocol: TCP (6)" size="1" pos="23" show="6" value="06"/>
    <field name="ip.checksum" showname="Header checksum: 0x4a6d [validation disabled]" size="2" pos="24" show="19053" value="4a6d">
      <field name="ip.checksum_good" showname="Good: False" size="2" pos="24" show="0" value="4a6d"/>
      <field name="ip.checksum_bad" showname="Bad: False" size="2" pos="24" show="0" value="4a6d"/>
    </field>
    <field name="ip.src" showname="Source: 172.17.0.2 (172.17.0.2)" size="4" pos="26" show="172.17.0.2" value="ac110002"/>
    <field name="ip.addr" showname="Source or Destination Address: 172.17.0.2 (172.17.0.2)" hide="yes" size="4" pos="26" show="172.17.0.2" value="ac110002"/>
    <field name="ip.src_host" showname="Source Host: 172.17.0.2" hide="yes" size="4" pos="26" show="172.17.0.2" value="ac110002"/>
    <field name="ip.host" showname="Source or Destination Host: 172.17.0.2" hide="yes" size="4" pos="26" show="172.17.0.2" value="ac110002"/>
    <field name="ip.dst" showname="Destination: 1.1.1.1 (1.1.1.1)" size="4" pos="30" show="1.1.1.1" value="01010101"/>
    <field name="ip.addr" showname="Source or Destination Address: 1.1.1.1 (1.1.1.1)" hide="yes" size="4" pos="30" show="1.1.1.1" value="01010101"/>
    <field name="ip.dst_host" showname="Destination Host: 1.1.1.1" hide="yes" size="4" pos="30" show="1.1.1.1" value="01010101"/>
    <field name="ip.host" showname="Source or Destination Host: 1.1.1.1" hide="yes" size="4" pos="30" show="1.1.1.1" value="01010101"/>
  </proto>
  <proto name="tcp" showname="Transmission Control Protocol, Src Port: 59694 (59694), Dst Port: 853 (853), Seq: 594, Ack: 3202, Len: 0" size="20" pos="34">
    <field name="tcp.srcport" showname="Source port: 59694 (59694)" size="2" pos="34" show="59694" value="e92e"/>
    <field name="tcp.dstport" showname="Destination port: 853 (853)" size="2" pos="36" show="853" value="0355"/>
    <field name="tcp.port" showname="Source or Destination Port: 59694" hide="yes" size="2" pos="34" show="59694" value="e92e"/>
    <field name="tcp.port" showname="Source or Destination Port: 853" hide="yes" size="2" pos="36" show="853" value="0355"/>
    <field name="tcp.stream" showname="Stream index: 0" size="0" pos="34" show="0"/>
    <field name="tcp.len" showname="TCP Segment Len: 0" hide="yes" size="1" pos="46" show="0" value="50"/>
    <field name="tcp.seq" showname="Sequence number: 594    (relative sequence number)" size="4" pos="38" show="594" value="04a63548"/>
    <field name="tcp.ack" showname="Acknowledgment number: 3202    (relative ack number)" size="4" pos="42" show="3202" value="4980605d"/>
    <field name="tcp.hdr_len" showname="Header length: 20 bytes" size="1" pos="46" show="20" value="50"/>
    <field name="tcp.flags" showname="Flags: 0x011 (FIN, ACK)" size="2" pos="46" show="17" value="11" unmaskedvalue="5011">
      <field name="tcp.flags.res" showname="000. .... .... = Reserved: Not set" size="1" pos="46" show="0" value="0" unmaskedvalue="50"/>
      <field name="tcp.flags.ns" showname="...0 .... .... = Nonce: Not set" size="1" pos="46" show="0" value="0" unmaskedvalue="50"/>
      <field name="tcp.flags.cwr" showname=".... 0... .... = Congestion Window Reduced (CWR): Not set" size="1" pos="47" show="0" value="0" unmaskedvalue="11"/>
      <field name="tcp.flags.ecn" showname=".... .0.. .... = ECN-Echo: Not set" size="1" pos="47" show="0" value="0" unmaskedvalue="11"/>
      <field name="tcp.flags.urg" showname=".... ..0. .... = Urgent: Not set" size="1" pos="47" show="0" value="0" unmaskedvalue="11"/>
      <field name="tcp.flags.ack" showname=".... ...1 .... = Acknowledgment: Set" size="1" pos="47" show="1" value="1" unmaskedvalue="11"/>
      <field name="tcp.flags.push" showname=".... .... 0... = Push: Not set" size="1" pos="47" show="0" value="0" unmaskedvalue="11"/>
      <field name="tcp.flags.reset" showname=".... .... .0.. = Reset: Not set" size="1" pos="47" show="0" value="0" unmaskedvalue="11"/>
      <field name="tcp.flags.syn" showname=".... .... ..0. = Syn: Not set" size="1" pos="47" show="0" value="0" unmaskedvalue="11"/>
      <field name="tcp.flags.fin" showname=".... .... ...1 = Fin: Set" size="1" pos="47" show="1" value="1" unmaskedvalue="11">
        <field name="expert" showname="Expert Info (Chat/Sequence): Connection finish (FIN)" size="0" pos="47">
          <field name="expert.message" showname="Message: Connection finish (FIN)" size="0" pos="0" show="Connection finish (FIN)"/>
          <field name="expert.severity" showname="Severity level: Chat" size="0" pos="0" show="2097152"/>
          <field name="expert.group" showname="Group: Sequence" size="0" pos="0" show="33554432"/>
        </field>
      </field>
    </field>
    <field name="tcp.window_size_value" showname="Window size value: 328" size="2" pos="48" show="328" value="0148"/>
    <field name="tcp.window_size" showname="Calculated window size: 41984" size="2" pos="48" show="41984" value="0148"/>
    <field name="tcp.window_size_scalefactor" showname="Window size scaling factor: 128" size="2" pos="48" show="128" value="0148"/>
    <field name="tcp.checksum" showname="Checksum: 0xae2f [validation disabled]" size="2" pos="50" show="44591" value="ae2f">
      <field name="tcp.checksum_good" showname="Good Checksum: False" size="2" pos="50" show="0" value="ae2f"/>
      <field name="tcp.checksum_bad" showname="Bad Checksum: False" size="2" pos="50" show="0" value="ae2f"/>
    </field>
  </proto>
</packet>


<packet>
  <proto name="geninfo" pos="0" showname="General information" size="54">
    <field name="num" pos="0" show="21" showname="Number" value="15" size="54"/>
    <field name="len" pos="0" show="54" showname="Frame Length" value="36" size="54"/>
    <field name="caplen" pos="0" show="54" showname="Captured Length" value="36" size="54"/>
    <field name="timestamp" pos="0" show="Jun 27, 2019 12:20:59.225002000 CEST" showname="Captured Time" value="1561630859.225002000" size="54"/>
  </proto>
  <proto name="frame" showname="Frame 21: 54 bytes on wire (432 bits), 54 bytes captured (432 bits) on interface 0" size="54" pos="0">
    <field name="frame.interface_id" showname="Interface id: 0" size="0" pos="0" show="0"/>
    <field name="frame.encap_type" showname="Encapsulation type: Ethernet (1)" size="0" pos="0" show="1"/>
    <field name="frame.time" showname="Arrival Time: Jun 27, 2019 12:20:59.225002000 CEST" size="0" pos="0" show="&quot;Jun 27, 2019 12:20:59.225002000 CEST&quot;"/>
    <field name="frame.offset_shift" showname="Time shift for this packet: 0.000000000 seconds" size="0" pos="0" show="0.000000000"/>
    <field name="frame.time_epoch" showname="Epoch Time: 1561630859.225002000 seconds" size="0" pos="0" show="1561630859.225002000"/>
    <field name="frame.time_delta" showname="Time delta from previous captured frame: 0.003562000 seconds" size="0" pos="0" show="0.003562000"/>
    <field name="frame.time_delta_displayed" showname="Time delta from previous displayed frame: 0.003562000 seconds" size="0" pos="0" show="0.003562000"/>
    <field name="frame.time_relative" showname="Time since reference or first frame: 0.062058000 seconds" size="0" pos="0" show="0.062058000"/>
    <field name="frame.number" showname="Frame Number: 21" size="0" pos="0" show="21"/>
    <field name="frame.len" showname="Frame Length: 54 bytes (432 bits)" size="0" pos="0" show="54"/>
    <field name="frame.cap_len" showname="Capture Length: 54 bytes (432 bits)" size="0" pos="0" show="54"/>
    <field name="frame.marked" showname="Frame is marked: False" size="0" pos="0" show="0"/>
    <field name="frame.ignored" showname="Frame is ignored: False" size="0" pos="0" show="0"/>
    <field name="frame.protocols" showname="Protocols in frame: eth:ip:tcp" size="0" pos="0" show="eth:ip:tcp"/>
  </proto>
  <proto name="eth" showname="Ethernet II, Src: 02:42:71:12:56:af (02:42:71:12:56:af), Dst: 02:42:ac:11:00:02 (02:42:ac:11:00:02)" size="14" pos="0">
    <field name="eth.dst" showname="Destination: 02:42:ac:11:00:02 (02:42:ac:11:00:02)" size="6" pos="0" show="02:42:ac:11:00:02" value="0242ac110002">
      <field name="eth.addr" showname="Address: 02:42:ac:11:00:02 (02:42:ac:11:00:02)" size="6" pos="0" show="02:42:ac:11:00:02" value="0242ac110002"/>
      <field name="eth.lg" showname=".... ..1. .... .... .... .... = LG bit: Locally administered address (this is NOT the factory default)" size="3" pos="0" show="1" value="1" unmaskedvalue="0242ac"/>
      <field name="eth.ig" showname=".... ...0 .... .... .... .... = IG bit: Individual address (unicast)" size="3" pos="0" show="0" value="0" unmaskedvalue="0242ac"/>
    </field>
    <field name="eth.src" showname="Source: 02:42:71:12:56:af (02:42:71:12:56:af)" size="6" pos="6" show="02:42:71:12:56:af" value="0242711256af">
      <field name="eth.addr" showname="Address: 02:42:71:12:56:af (02:42:71:12:56:af)" size="6" pos="6" show="02:42:71:12:56:af" value="0242711256af"/>
      <field name="eth.lg" showname=".... ..1. .... .... .... .... = LG bit: Locally administered address (this is NOT the factory default)" size="3" pos="6" show="1" value="1" unmaskedvalue="024271"/>
      <field name="eth.ig" showname=".... ...0 .... .... .... .... = IG bit: Individual address (unicast)" size="3" pos="6" show="0" value="0" unmaskedvalue="024271"/>
    </field>
    <field name="eth.type" showname="Type: IP (0x0800)" size="2" pos="12" show="2048" value="0800"/>
  </proto>
  <proto name="ip" showname="Internet Protocol Version 4, Src: 1.1.1.1 (1.1.1.1), Dst: 172.17.0.2 (172.17.0.2)" size="20" pos="14">
    <field name="ip.version" showname="Version: 4" size="1" pos="14" show="4" value="45"/>
    <field name="ip.hdr_len" showname="Header length: 20 bytes" size="1" pos="14" show="20" value="45"/>
    <field name="ip.dsfield" showname="Differentiated Services Field: 0x00 (DSCP 0x00: Default; ECN: 0x00: Not-ECT (Not ECN-Capable Transport))" size="1" pos="15" show="0" value="00">
      <field name="ip.dsfield.dscp" showname="0000 00.. = Differentiated Services Codepoint: Default (0x00)" size="1" pos="15" show="0" value="0" unmaskedvalue="00"/>
      <field name="ip.dsfield.ecn" showname=".... ..00 = Explicit Congestion Notification: Not-ECT (Not ECN-Capable Transport) (0x00)" size="1" pos="15" show="0" value="0" unmaskedvalue="00"/>
    </field>
    <field name="ip.len" showname="Total Length: 40" size="2" pos="16" show="40" value="0028"/>
    <field name="ip.id" showname="Identification: 0x85b0 (34224)" size="2" pos="18" show="34224" value="85b0"/>
    <field name="ip.flags" showname="Flags: 0x02 (Don&apos;t Fragment)" size="1" pos="20" show="2" value="40">
      <field name="ip.flags.rb" showname="0... .... = Reserved bit: Not set" size="1" pos="20" show="0" value="40"/>
      <field name="ip.flags.df" showname=".1.. .... = Don&apos;t fragment: Set" size="1" pos="20" show="1" value="40"/>
      <field name="ip.flags.mf" showname="..0. .... = More fragments: Not set" size="1" pos="20" show="0" value="40"/>
    </field>
    <field name="ip.frag_offset" showname="Fragment offset: 0" size="2" pos="20" show="0" value="4000"/>
    <field name="ip.ttl" showname="Time to live: 57" size="1" pos="22" show="57" value="39"/>
    <field name="ip.proto" showname="Protocol: TCP (6)" size="1" pos="23" show="6" value="06"/>
    <field name="ip.checksum" showname="Header checksum: 0x0e0b [validation disabled]" size="2" pos="24" show="3595" value="0e0b">
      <field name="ip.checksum_good" showname="Good: False" size="2" pos="24" show="0" value="0e0b"/>
      <field name="ip.checksum_bad" showname="Bad: False" size="2" pos="24" show="0" value="0e0b"/>
    </field>
    <field name="ip.src" showname="Source: 1.1.1.1 (1.1.1.1)" size="4" pos="26" show="1.1.1.1" value="01010101"/>
    <field name="ip.addr" showname="Source or Destination Address: 1.1.1.1 (1.1.1.1)" hide="yes" size="4" pos="26" show="1.1.1.1" value="01010101"/>
    <field name="ip.src_host" showname="Source Host: 1.1.1.1" hide="yes" size="4" pos="26" show="1.1.1.1" value="01010101"/>
    <field name="ip.host" showname="Source or Destination Host: 1.1.1.1" hide="yes" size="4" pos="26" show="1.1.1.1" value="01010101"/>
    <field name="ip.dst" showname="Destination: 172.17.0.2 (172.17.0.2)" size="4" pos="30" show="172.17.0.2" value="ac110002"/>
    <field name="ip.addr" showname="Source or Destination Address: 172.17.0.2 (172.17.0.2)" hide="yes" size="4" pos="30" show="172.17.0.2" value="ac110002"/>
    <field name="ip.dst_host" showname="Destination Host: 172.17.0.2" hide="yes" size="4" pos="30" show="172.17.0.2" value="ac110002"/>
    <field name="ip.host" showname="Source or Destination Host: 172.17.0.2" hide="yes" size="4" pos="30" show="172.17.0.2" value="ac110002"/>
  </proto>
  <proto name="tcp" showname="Transmission Control Protocol, Src Port: 853 (853), Dst Port: 59694 (59694), Seq: 3202, Ack: 595, Len: 0" size="20" pos="34">
    <field name="tcp.srcport" showname="Source port: 853 (853)" size="2" pos="34" show="853" value="0355"/>
    <field name="tcp.dstport" showname="Destination port: 59694 (59694)" size="2" pos="36" show="59694" value="e92e"/>
    <field name="tcp.port" showname="Source or Destination Port: 853" hide="yes" size="2" pos="34" show="853" value="0355"/>
    <field name="tcp.port" showname="Source or Destination Port: 59694" hide="yes" size="2" pos="36" show="59694" value="e92e"/>
    <field name="tcp.stream" showname="Stream index: 0" size="0" pos="34" show="0"/>
    <field name="tcp.len" showname="TCP Segment Len: 0" hide="yes" size="1" pos="46" show="0" value="50"/>
    <field name="tcp.seq" showname="Sequence number: 3202    (relative sequence number)" size="4" pos="38" show="3202" value="4980605d"/>
    <field name="tcp.ack" showname="Acknowledgment number: 595    (relative ack number)" size="4" pos="42" show="595" value="04a63549"/>
    <field name="tcp.hdr_len" showname="Header length: 20 bytes" size="1" pos="46" show="20" value="50"/>
    <field name="tcp.flags" showname="Flags: 0x011 (FIN, ACK)" size="2" pos="46" show="17" value="11" unmaskedvalue="5011">
      <field name="tcp.flags.res" showname="000. .... .... = Reserved: Not set" size="1" pos="46" show="0" value="0" unmaskedvalue="50"/>
      <field name="tcp.flags.ns" showname="...0 .... .... = Nonce: Not set" size="1" pos="46" show="0" value="0" unmaskedvalue="50"/>
      <field name="tcp.flags.cwr" showname=".... 0... .... = Congestion Window Reduced (CWR): Not set" size="1" pos="47" show="0" value="0" unmaskedvalue="11"/>
      <field name="tcp.flags.ecn" showname=".... .0.. .... = ECN-Echo: Not set" size="1" pos="47" show="0" value="0" unmaskedvalue="11"/>
      <field name="tcp.flags.urg" showname=".... ..0. .... = Urgent: Not set" size="1" pos="47" show="0" value="0" unmaskedvalue="11"/>
      <field name="tcp.flags.ack" showname=".... ...1 .... = Acknowledgment: Set" size="1" pos="47" show="1" value="1" unmaskedvalue="11"/>
      <field name="tcp.flags.push" showname=".... .... 0... = Push: Not set" size="1" pos="47" show="0" value="0" unmaskedvalue="11"/>
      <field name="tcp.flags.reset" showname=".... .... .0.. = Reset: Not set" size="1" pos="47" show="0" value="0" unmaskedvalue="11"/>
      <field name="tcp.flags.syn" showname=".... .... ..0. = Syn: Not set" size="1" pos="47" show="0" value="0" unmaskedvalue="11"/>
      <field name="tcp.flags.fin" showname=".... .... ...1 = Fin: Set" size="1" pos="47" show="1" value="1" unmaskedvalue="11">
        <field name="expert" showname="Expert Info (Chat/Sequence): Connection finish (FIN)" size="0" pos="47">
          <field name="expert.message" showname="Message: Connection finish (FIN)" size="0" pos="0" show="Connection finish (FIN)"/>
          <field name="expert.severity" showname="Severity level: Chat" size="0" pos="0" show="2097152"/>
          <field name="expert.group" showname="Group: Sequence" size="0" pos="0" show="33554432"/>
        </field>
      </field>
    </field>
    <field name="tcp.window_size_value" showname="Window size value: 31" size="2" pos="48" show="31" value="001f"/>
    <field name="tcp.window_size" showname="Calculated window size: 31744" size="2" pos="48" show="31744" value="001f"/>
    <field name="tcp.window_size_scalefactor" showname="Window size scaling factor: 1024" size="2" pos="48" show="1024" value="001f"/>
    <field name="tcp.checksum" showname="Checksum: 0x314f [validation disabled]" size="2" pos="50" show="12623" value="314f">
      <field name="tcp.checksum_good" showname="Good Checksum: False" size="2" pos="50" show="0" value="314f"/>
      <field name="tcp.checksum_bad" showname="Bad Checksum: False" size="2" pos="50" show="0" value="314f"/>
    </field>
    <field name="tcp.analysis" showname="SEQ/ACK analysis" size="0" pos="34" show="" value="">
      <field name="tcp.analysis.acks_frame" showname="This is an ACK to the segment in frame: 20" size="0" pos="34" show="20"/>
      <field name="tcp.analysis.ack_rtt" showname="The RTT to ACK the segment was: 0.003562000 seconds" size="0" pos="34" show="0.003562000"/>
    </field>
  </proto>
</packet>


<packet>
  <proto name="geninfo" pos="0" showname="General information" size="54">
    <field name="num" pos="0" show="22" showname="Number" value="16" size="54"/>
    <field name="len" pos="0" show="54" showname="Frame Length" value="36" size="54"/>
    <field name="caplen" pos="0" show="54" showname="Captured Length" value="36" size="54"/>
    <field name="timestamp" pos="0" show="Jun 27, 2019 12:20:59.225026000 CEST" showname="Captured Time" value="1561630859.225026000" size="54"/>
  </proto>
  <proto name="frame" showname="Frame 22: 54 bytes on wire (432 bits), 54 bytes captured (432 bits) on interface 0" size="54" pos="0">
    <field name="frame.interface_id" showname="Interface id: 0" size="0" pos="0" show="0"/>
    <field name="frame.encap_type" showname="Encapsulation type: Ethernet (1)" size="0" pos="0" show="1"/>
    <field name="frame.time" showname="Arrival Time: Jun 27, 2019 12:20:59.225026000 CEST" size="0" pos="0" show="&quot;Jun 27, 2019 12:20:59.225026000 CEST&quot;"/>
    <field name="frame.offset_shift" showname="Time shift for this packet: 0.000000000 seconds" size="0" pos="0" show="0.000000000"/>
    <field name="frame.time_epoch" showname="Epoch Time: 1561630859.225026000 seconds" size="0" pos="0" show="1561630859.225026000"/>
    <field name="frame.time_delta" showname="Time delta from previous captured frame: 0.000024000 seconds" size="0" pos="0" show="0.000024000"/>
    <field name="frame.time_delta_displayed" showname="Time delta from previous displayed frame: 0.000024000 seconds" size="0" pos="0" show="0.000024000"/>
    <field name="frame.time_relative" showname="Time since reference or first frame: 0.062082000 seconds" size="0" pos="0" show="0.062082000"/>
    <field name="frame.number" showname="Frame Number: 22" size="0" pos="0" show="22"/>
    <field name="frame.len" showname="Frame Length: 54 bytes (432 bits)" size="0" pos="0" show="54"/>
    <field name="frame.cap_len" showname="Capture Length: 54 bytes (432 bits)" size="0" pos="0" show="54"/>
    <field name="frame.marked" showname="Frame is marked: False" size="0" pos="0" show="0"/>
    <field name="frame.ignored" showname="Frame is ignored: False" size="0" pos="0" show="0"/>
    <field name="frame.protocols" showname="Protocols in frame: eth:ip:tcp" size="0" pos="0" show="eth:ip:tcp"/>
  </proto>
  <proto name="eth" showname="Ethernet II, Src: 02:42:ac:11:00:02 (02:42:ac:11:00:02), Dst: 02:42:71:12:56:af (02:42:71:12:56:af)" size="14" pos="0">
    <field name="eth.dst" showname="Destination: 02:42:71:12:56:af (02:42:71:12:56:af)" size="6" pos="0" show="02:42:71:12:56:af" value="0242711256af">
      <field name="eth.addr" showname="Address: 02:42:71:12:56:af (02:42:71:12:56:af)" size="6" pos="0" show="02:42:71:12:56:af" value="0242711256af"/>
      <field name="eth.lg" showname=".... ..1. .... .... .... .... = LG bit: Locally administered address (this is NOT the factory default)" size="3" pos="0" show="1" value="1" unmaskedvalue="024271"/>
      <field name="eth.ig" showname=".... ...0 .... .... .... .... = IG bit: Individual address (unicast)" size="3" pos="0" show="0" value="0" unmaskedvalue="024271"/>
    </field>
    <field name="eth.src" showname="Source: 02:42:ac:11:00:02 (02:42:ac:11:00:02)" size="6" pos="6" show="02:42:ac:11:00:02" value="0242ac110002">
      <field name="eth.addr" showname="Address: 02:42:ac:11:00:02 (02:42:ac:11:00:02)" size="6" pos="6" show="02:42:ac:11:00:02" value="0242ac110002"/>
      <field name="eth.lg" showname=".... ..1. .... .... .... .... = LG bit: Locally administered address (this is NOT the factory default)" size="3" pos="6" show="1" value="1" unmaskedvalue="0242ac"/>
      <field name="eth.ig" showname=".... ...0 .... .... .... .... = IG bit: Individual address (unicast)" size="3" pos="6" show="0" value="0" unmaskedvalue="0242ac"/>
    </field>
    <field name="eth.type" showname="Type: IP (0x0800)" size="2" pos="12" show="2048" value="0800"/>
  </proto>
  <proto name="ip" showname="Internet Protocol Version 4, Src: 172.17.0.2 (172.17.0.2), Dst: 1.1.1.1 (1.1.1.1)" size="20" pos="14">
    <field name="ip.version" showname="Version: 4" size="1" pos="14" show="4" value="45"/>
    <field name="ip.hdr_len" showname="Header length: 20 bytes" size="1" pos="14" show="20" value="45"/>
    <field name="ip.dsfield" showname="Differentiated Services Field: 0x00 (DSCP 0x00: Default; ECN: 0x00: Not-ECT (Not ECN-Capable Transport))" size="1" pos="15" show="0" value="00">
      <field name="ip.dsfield.dscp" showname="0000 00.. = Differentiated Services Codepoint: Default (0x00)" size="1" pos="15" show="0" value="0" unmaskedvalue="00"/>
      <field name="ip.dsfield.ecn" showname=".... ..00 = Explicit Congestion Notification: Not-ECT (Not ECN-Capable Transport) (0x00)" size="1" pos="15" show="0" value="0" unmaskedvalue="00"/>
    </field>
    <field name="ip.len" showname="Total Length: 40" size="2" pos="16" show="40" value="0028"/>
    <field name="ip.id" showname="Identification: 0x424f (16975)" size="2" pos="18" show="16975" value="424f"/>
    <field name="ip.flags" showname="Flags: 0x02 (Don&apos;t Fragment)" size="1" pos="20" show="2" value="40">
      <field name="ip.flags.rb" showname="0... .... = Reserved bit: Not set" size="1" pos="20" show="0" value="40"/>
      <field name="ip.flags.df" showname=".1.. .... = Don&apos;t fragment: Set" size="1" pos="20" show="1" value="40"/>
      <field name="ip.flags.mf" showname="..0. .... = More fragments: Not set" size="1" pos="20" show="0" value="40"/>
    </field>
    <field name="ip.frag_offset" showname="Fragment offset: 0" size="2" pos="20" show="0" value="4000"/>
    <field name="ip.ttl" showname="Time to live: 64" size="1" pos="22" show="64" value="40"/>
    <field name="ip.proto" showname="Protocol: TCP (6)" size="1" pos="23" show="6" value="06"/>
    <field name="ip.checksum" showname="Header checksum: 0x4a6c [validation disabled]" size="2" pos="24" show="19052" value="4a6c">
      <field name="ip.checksum_good" showname="Good: False" size="2" pos="24" show="0" value="4a6c"/>
      <field name="ip.checksum_bad" showname="Bad: False" size="2" pos="24" show="0" value="4a6c"/>
    </field>
    <field name="ip.src" showname="Source: 172.17.0.2 (172.17.0.2)" size="4" pos="26" show="172.17.0.2" value="ac110002"/>
    <field name="ip.addr" showname="Source or Destination Address: 172.17.0.2 (172.17.0.2)" hide="yes" size="4" pos="26" show="172.17.0.2" value="ac110002"/>
    <field name="ip.src_host" showname="Source Host: 172.17.0.2" hide="yes" size="4" pos="26" show="172.17.0.2" value="ac110002"/>
    <field name="ip.host" showname="Source or Destination Host: 172.17.0.2" hide="yes" size="4" pos="26" show="172.17.0.2" value="ac110002"/>
    <field name="ip.dst" showname="Destination: 1.1.1.1 (1.1.1.1)" size="4" pos="30" show="1.1.1.1" value="01010101"/>
    <field name="ip.addr" showname="Source or Destination Address: 1.1.1.1 (1.1.1.1)" hide="yes" size="4" pos="30" show="1.1.1.1" value="01010101"/>
    <field name="ip.dst_host" showname="Destination Host: 1.1.1.1" hide="yes" size="4" pos="30" show="1.1.1.1" value="01010101"/>
    <field name="ip.host" showname="Source or Destination Host: 1.1.1.1" hide="yes" size="4" pos="30" show="1.1.1.1" value="01010101"/>
  </proto>
  <proto name="tcp" showname="Transmission Control Protocol, Src Port: 59694 (59694), Dst Port: 853 (853), Seq: 595, Ack: 3203, Len: 0" size="20" pos="34">
    <field name="tcp.srcport" showname="Source port: 59694 (59694)" size="2" pos="34" show="59694" value="e92e"/>
    <field name="tcp.dstport" showname="Destination port: 853 (853)" size="2" pos="36" show="853" value="0355"/>
    <field name="tcp.port" showname="Source or Destination Port: 59694" hide="yes" size="2" pos="34" show="59694" value="e92e"/>
    <field name="tcp.port" showname="Source or Destination Port: 853" hide="yes" size="2" pos="36" show="853" value="0355"/>
    <field name="tcp.stream" showname="Stream index: 0" size="0" pos="34" show="0"/>
    <field name="tcp.len" showname="TCP Segment Len: 0" hide="yes" size="1" pos="46" show="0" value="50"/>
    <field name="tcp.seq" showname="Sequence number: 595    (relative sequence number)" size="4" pos="38" show="595" value="04a63549"/>
    <field name="tcp.ack" showname="Acknowledgment number: 3203    (relative ack number)" size="4" pos="42" show="3203" value="4980605e"/>
    <field name="tcp.hdr_len" showname="Header length: 20 bytes" size="1" pos="46" show="20" value="50"/>
    <field name="tcp.flags" showname="Flags: 0x010 (ACK)" size="2" pos="46" show="16" value="10" unmaskedvalue="5010">
      <field name="tcp.flags.res" showname="000. .... .... = Reserved: Not set" size="1" pos="46" show="0" value="0" unmaskedvalue="50"/>
      <field name="tcp.flags.ns" showname="...0 .... .... = Nonce: Not set" size="1" pos="46" show="0" value="0" unmaskedvalue="50"/>
      <field name="tcp.flags.cwr" showname=".... 0... .... = Congestion Window Reduced (CWR): Not set" size="1" pos="47" show="0" value="0" unmaskedvalue="10"/>
      <field name="tcp.flags.ecn" showname=".... .0.. .... = ECN-Echo: Not set" size="1" pos="47" show="0" value="0" unmaskedvalue="10"/>
      <field name="tcp.flags.urg" showname=".... ..0. .... = Urgent: Not set" size="1" pos="47" show="0" value="0" unmaskedvalue="10"/>
      <field name="tcp.flags.ack" showname=".... ...1 .... = Acknowledgment: Set" size="1" pos="47" show="1" value="1" unmaskedvalue="10"/>
      <field name="tcp.flags.push" showname=".... .... 0... = Push: Not set" size="1" pos="47" show="0" value="0" unmaskedvalue="10"/>
      <field name="tcp.flags.reset" showname=".... .... .0.. = Reset: Not set" size="1" pos="47" show="0" value="0" unmaskedvalue="10"/>
      <field name="tcp.flags.syn" showname=".... .... ..0. = Syn: Not set" size="1" pos="47" show="0" value="0" unmaskedvalue="10"/>
      <field name="tcp.flags.fin" showname=".... .... ...0 = Fin: Not set" size="1" pos="47" show="0" value="0" unmaskedvalue="10"/>
    </field>
    <field name="tcp.window_size_value" showname="Window size value: 328" size="2" pos="48" show="328" value="0148"/>
    <field name="tcp.window_size" showname="Calculated window size: 41984" size="2" pos="48" show="41984" value="0148"/>
    <field name="tcp.window_size_scalefactor" showname="Window size scaling factor: 128" size="2" pos="48" show="128" value="0148"/>
    <field name="tcp.checksum" showname="Checksum: 0xae2f [validation disabled]" size="2" pos="50" show="44591" value="ae2f">
      <field name="tcp.checksum_good" showname="Good Checksum: False" size="2" pos="50" show="0" value="ae2f"/>
      <field name="tcp.checksum_bad" showname="Bad Checksum: False" size="2" pos="50" show="0" value="ae2f"/>
    </field>
    <field name="tcp.analysis" showname="SEQ/ACK analysis" size="0" pos="34" show="" value="">
      <field name="tcp.analysis.acks_frame" showname="This is an ACK to the segment in frame: 21" size="0" pos="34" show="21"/>
      <field name="tcp.analysis.ack_rtt" showname="The RTT to ACK the segment was: 0.000024000 seconds" size="0" pos="34" show="0.000024000"/>
    </field>
  </proto>
</packet>


</pdml>
